ARM GAS  C:\Users\lenovo\AppData\Local\Temp\ccfgRfuq.s 			page 1


   1              		.cpu cortex-m7
   2              		.eabi_attribute 27, 1
   3              		.eabi_attribute 28, 1
   4              		.eabi_attribute 20, 1
   5              		.eabi_attribute 21, 1
   6              		.eabi_attribute 23, 3
   7              		.eabi_attribute 24, 1
   8              		.eabi_attribute 25, 1
   9              		.eabi_attribute 26, 1
  10              		.eabi_attribute 30, 1
  11              		.eabi_attribute 34, 1
  12              		.eabi_attribute 18, 4
  13              		.file	"main.c"
  14              		.text
  15              	.Ltext0:
  16              		.cfi_sections	.debug_frame
  17              		.section	.text.MX_SDMMC1_SD_Init,"ax",%progbits
  18              		.align	1
  19              		.syntax unified
  20              		.thumb
  21              		.thumb_func
  22              		.fpu fpv5-sp-d16
  24              	MX_SDMMC1_SD_Init:
  25              	.LFB197:
  26              		.file 1 "main.c"
   1:main.c        **** 
   2:main.c        **** /**
   3:main.c        ****   ******************************************************************************
   4:main.c        ****   * @file           : main.c
   5:main.c        ****   * @brief          : Main program body
   6:main.c        ****   ******************************************************************************
   7:main.c        ****   * This notice applies to any and all portions of this file
   8:main.c        ****   * that are not between comment pairs USER CODE BEGIN and
   9:main.c        ****   * USER CODE END. Other portions of this file, whether 
  10:main.c        ****   * inserted by the user or by software development tools
  11:main.c        ****   * are owned by their respective copyright owners.
  12:main.c        ****   *
  13:main.c        ****   * Copyright (c) 2018 STMicroelectronics International N.V. 
  14:main.c        ****   * All rights reserved.
  15:main.c        ****   *
  16:main.c        ****   * Redistribution and use in source and binary forms, with or without 
  17:main.c        ****   * modification, are permitted, provided that the following conditions are met:
  18:main.c        ****   *
  19:main.c        ****   * 1. Redistribution of source code must retain the above copyright notice, 
  20:main.c        ****   *    this list of conditions and the following disclaimer.
  21:main.c        ****   * 2. Redistributions in binary form must reproduce the above copyright notice,
  22:main.c        ****   *    this list of conditions and the following disclaimer in the documentation
  23:main.c        ****   *    and/or other materials provided with the distribution.
  24:main.c        ****   * 3. Neither the name of STMicroelectronics nor the names of other 
  25:main.c        ****   *    contributors to this software may be used to endorse or promote products 
  26:main.c        ****   *    derived from this software without specific written permission.
  27:main.c        ****   * 4. This software, including modifications and/or derivative works of this 
  28:main.c        ****   *    software, must execute solely and exclusively on microcontroller or
  29:main.c        ****   *    microprocessor devices manufactured by or for STMicroelectronics.
  30:main.c        ****   * 5. Redistribution and use of this software other than as permitted under 
  31:main.c        ****   *    this license is void and will automatically terminate your rights under 
  32:main.c        ****   *    this license. 
ARM GAS  C:\Users\lenovo\AppData\Local\Temp\ccfgRfuq.s 			page 2


  33:main.c        ****   *
  34:main.c        ****   * THIS SOFTWARE IS PROVIDED BY STMICROELECTRONICS AND CONTRIBUTORS "AS IS" 
  35:main.c        ****   * AND ANY EXPRESS, IMPLIED OR STATUTORY WARRANTIES, INCLUDING, BUT NOT 
  36:main.c        ****   * LIMITED TO, THE IMPLIED WARRANTIES OF MERCHANTABILITY, FITNESS FOR A 
  37:main.c        ****   * PARTICULAR PURPOSE AND NON-INFRINGEMENT OF THIRD PARTY INTELLECTUAL PROPERTY
  38:main.c        ****   * RIGHTS ARE DISCLAIMED TO THE FULLEST EXTENT PERMITTED BY LAW. IN NO EVENT 
  39:main.c        ****   * SHALL STMICROELECTRONICS OR CONTRIBUTORS BE LIABLE FOR ANY DIRECT, INDIRECT,
  40:main.c        ****   * INCIDENTAL, SPECIAL, EXEMPLARY, OR CONSEQUENTIAL DAMAGES (INCLUDING, BUT NOT
  41:main.c        ****   * LIMITED TO, PROCUREMENT OF SUBSTITUTE GOODS OR SERVICES; LOSS OF USE, DATA, 
  42:main.c        ****   * OR PROFITS; OR BUSINESS INTERRUPTION) HOWEVER CAUSED AND ON ANY THEORY OF 
  43:main.c        ****   * LIABILITY, WHETHER IN CONTRACT, STRICT LIABILITY, OR TORT (INCLUDING 
  44:main.c        ****   * NEGLIGENCE OR OTHERWISE) ARISING IN ANY WAY OUT OF THE USE OF THIS SOFTWARE,
  45:main.c        ****   * EVEN IF ADVISED OF THE POSSIBILITY OF SUCH DAMAGE.
  46:main.c        ****   *
  47:main.c        ****   ******************************************************************************
  48:main.c        ****   */
  49:main.c        **** /* Includes ------------------------------------------------------------------*/
  50:main.c        **** #include "main.h"
  51:main.c        **** #include "stm32f7xx_hal.h"
  52:main.c        **** #include "cmsis_os.h"
  53:main.c        **** #include "fatfs.h"
  54:main.c        **** #include "lwip.h"
  55:main.c        **** #include "usb_host.h"
  56:main.c        **** 
  57:main.c        **** /* USER CODE BEGIN Includes */
  58:main.c        **** #include  <errno.h>
  59:main.c        **** #include  <sys/unistd.h>
  60:main.c        **** 
  61:main.c        **** #include "stm32746g_discovery_lcd.h"
  62:main.c        **** #include "Utilities/Fonts/fonts.h"
  63:main.c        **** #include "stm32746g_discovery_ts.h"
  64:main.c        **** #include "stm32746g_discovery_audio.h"
  65:main.c        **** #include "term_io.h"
  66:main.c        **** #include "dbgu.h"
  67:main.c        **** #include "ansi.h"
  68:main.c        **** 
  69:main.c        **** #include "FreeRTOS.h"
  70:main.c        **** #include "task.h"
  71:main.c        **** #include "queue.h"
  72:main.c        **** 
  73:main.c        **** #include "lwip/opt.h"
  74:main.c        **** #include "lwip/api.h"
  75:main.c        **** #include "lwip/apps/fs.h"
  76:main.c        **** #include "lwip/dhcp.h"
  77:main.c        **** #include "lwip/tcpip.h"
  78:main.c        **** #include "lwip/netdb.h"
  79:main.c        **** #include "lwip/sockets.h"
  80:main.c        **** 
  81:main.c        **** #include "lwip.h"
  82:main.c        **** 
  83:main.c        **** #include "wm8994/wm8994.h"
  84:main.c        **** 
  85:main.c        **** 
  86:main.c        **** #include "graphics.c"
  87:main.c        **** 
  88:main.c        **** /* USER CODE END Includes */
  89:main.c        **** 
ARM GAS  C:\Users\lenovo\AppData\Local\Temp\ccfgRfuq.s 			page 3


  90:main.c        **** /* Private variables ---------------------------------------------------------*/
  91:main.c        **** ADC_HandleTypeDef hadc3;
  92:main.c        **** 
  93:main.c        **** CRC_HandleTypeDef hcrc;
  94:main.c        **** 
  95:main.c        **** DCMI_HandleTypeDef hdcmi;
  96:main.c        **** 
  97:main.c        **** DMA2D_HandleTypeDef hdma2d;
  98:main.c        **** 
  99:main.c        **** I2C_HandleTypeDef hi2c1;
 100:main.c        **** I2C_HandleTypeDef hi2c3;
 101:main.c        **** 
 102:main.c        **** LTDC_HandleTypeDef hltdc;
 103:main.c        **** 
 104:main.c        **** QSPI_HandleTypeDef hqspi;
 105:main.c        **** 
 106:main.c        **** RTC_HandleTypeDef hrtc;
 107:main.c        **** 
 108:main.c        **** SAI_HandleTypeDef hsai_BlockA2;
 109:main.c        **** SAI_HandleTypeDef hsai_BlockB2;
 110:main.c        **** 
 111:main.c        **** SD_HandleTypeDef hsd1;
 112:main.c        **** 
 113:main.c        **** SPDIFRX_HandleTypeDef hspdif;
 114:main.c        **** 
 115:main.c        **** SPI_HandleTypeDef hspi2;
 116:main.c        **** 
 117:main.c        **** TIM_HandleTypeDef htim1;
 118:main.c        **** TIM_HandleTypeDef htim2;
 119:main.c        **** TIM_HandleTypeDef htim3;
 120:main.c        **** TIM_HandleTypeDef htim5;
 121:main.c        **** TIM_HandleTypeDef htim7;
 122:main.c        **** TIM_HandleTypeDef htim8;
 123:main.c        **** TIM_HandleTypeDef htim12;
 124:main.c        **** 
 125:main.c        **** UART_HandleTypeDef huart1;
 126:main.c        **** UART_HandleTypeDef huart6;
 127:main.c        **** 
 128:main.c        **** SDRAM_HandleTypeDef hsdram1;
 129:main.c        **** 
 130:main.c        **** osThreadId defaultTaskHandle;
 131:main.c        **** osThreadId tableTaskHandle;
 132:main.c        **** 
 133:main.c        **** /* USER CODE BEGIN PV */
 134:main.c        **** /* Private variables ---------------------------------------------------------*/
 135:main.c        **** 
 136:main.c        **** /* USER CODE END PV */
 137:main.c        **** 
 138:main.c        **** /* Private function prototypes -----------------------------------------------*/
 139:main.c        **** void SystemClock_Config(void);
 140:main.c        **** static void MX_GPIO_Init(void);
 141:main.c        **** static void MX_ADC3_Init(void);
 142:main.c        **** static void MX_CRC_Init(void);
 143:main.c        **** static void MX_DCMI_Init(void);
 144:main.c        **** static void MX_DMA2D_Init(void);
 145:main.c        **** static void MX_FMC_Init(void);
 146:main.c        **** static void MX_I2C1_Init(void);
ARM GAS  C:\Users\lenovo\AppData\Local\Temp\ccfgRfuq.s 			page 4


 147:main.c        **** static void MX_I2C3_Init(void);
 148:main.c        **** static void MX_LTDC_Init(void);
 149:main.c        **** static void MX_QUADSPI_Init(void);
 150:main.c        **** static void MX_RTC_Init(void);
 151:main.c        **** static void MX_SAI2_Init(void);
 152:main.c        **** static void MX_SDMMC1_SD_Init(void);
 153:main.c        **** static void MX_SPDIFRX_Init(void);
 154:main.c        **** static void MX_SPI2_Init(void);
 155:main.c        **** static void MX_TIM1_Init(void);
 156:main.c        **** static void MX_TIM2_Init(void);
 157:main.c        **** static void MX_TIM3_Init(void);
 158:main.c        **** static void MX_TIM5_Init(void);
 159:main.c        **** static void MX_TIM8_Init(void);
 160:main.c        **** static void MX_TIM12_Init(void);
 161:main.c        **** static void MX_USART1_UART_Init(void);
 162:main.c        **** static void MX_USART6_UART_Init(void);
 163:main.c        **** static void MX_TIM7_Init(void);
 164:main.c        **** void StartDefaultTask(void const * argument);
 165:main.c        **** void StartTableTask();
 166:main.c        **** 
 167:main.c        **** void HAL_TIM_MspPostInit(TIM_HandleTypeDef *htim);
 168:main.c        ****                                 
 169:main.c        ****                                 
 170:main.c        ****                                 
 171:main.c        ****                                 
 172:main.c        **** 
 173:main.c        **** /* USER CODE BEGIN PFP */
 174:main.c        **** /* Private function prototypes -----------------------------------------------*/
 175:main.c        **** 
 176:main.c        **** /* USER CODE END PFP */
 177:main.c        **** 
 178:main.c        **** /* USER CODE BEGIN 0 */
 179:main.c        **** void mainTask(void* p);
 180:main.c        **** 
 181:main.c        **** osThreadId netconn_thread_handle;
 182:main.c        **** 
 183:main.c        **** static uint32_t lcd_image_fg[LCD_Y_SIZE][LCD_X_SIZE] __attribute__((section(".sdram"))) __attribute
 184:main.c        **** static uint32_t lcd_image_bg[LCD_Y_SIZE][LCD_X_SIZE] __attribute__((section(".sdram"))) __attribute
 185:main.c        **** 
 186:main.c        **** #define MASS_STORAGE_BUF_SIZE		( 1024 * 1024 )
 187:main.c        **** static uint32_t mass_storage_buf[MASS_STORAGE_BUF_SIZE] __attribute__((section(".sdram"))) __attrib
 188:main.c        **** 
 189:main.c        **** #define PRINTF_USES_HAL_TX    0
 190:main.c        **** #define ENABLE_NETWORK        0
 191:main.c        **** 
 192:main.c        **** int __io_putchar(int ch)
 193:main.c        **** {
 194:main.c        ****   uint8_t data = ch;
 195:main.c        ****   #if PRINTF_USES_HAL_TX
 196:main.c        ****     HAL_StatusTypeDef status = HAL_UART_Transmit(&huart1, (uint8_t*)&data, len, 100); 
 197:main.c        ****   #else
 198:main.c        ****     while(__HAL_UART_GET_FLAG(&huart1, UART_FLAG_TXE) == RESET) { ; }
 199:main.c        ****     huart1.Instance->TDR = (uint16_t)data;
 200:main.c        ****   #endif
 201:main.c        ****   return 0;
 202:main.c        **** }
 203:main.c        **** 
ARM GAS  C:\Users\lenovo\AppData\Local\Temp\ccfgRfuq.s 			page 5


 204:main.c        **** char inkey(void)
 205:main.c        **** {
 206:main.c        ****   uint32_t flags = huart1.Instance->ISR;
 207:main.c        ****   
 208:main.c        ****   if((flags & UART_FLAG_RXNE) || (flags & UART_FLAG_ORE))
 209:main.c        ****   {
 210:main.c        ****     __HAL_UART_CLEAR_OREFLAG(&huart1);
 211:main.c        ****     return (huart1.Instance->RDR);
 212:main.c        ****   }
 213:main.c        ****   else
 214:main.c        ****     return 0;
 215:main.c        **** }
 216:main.c        **** 
 217:main.c        **** //partially based on available code examples
 218:main.c        **** static void lcd_start(void)
 219:main.c        **** {
 220:main.c        ****   /* LCD Initialization */ 
 221:main.c        ****   BSP_LCD_Init();
 222:main.c        **** 
 223:main.c        ****   /* LCD Initialization */ 
 224:main.c        ****   BSP_LCD_LayerDefaultInit(0, (unsigned int)lcd_image_bg);
 225:main.c        ****   //BSP_LCD_LayerDefaultInit(1, (unsigned int)lcd_image_bg+(LCD_X_SIZE*LCD_Y_SIZE*4));
 226:main.c        ****   BSP_LCD_LayerDefaultInit(1, (unsigned int)lcd_image_fg);
 227:main.c        **** 
 228:main.c        ****   /* Enable the LCD */ 
 229:main.c        ****   BSP_LCD_DisplayOn(); 
 230:main.c        ****   
 231:main.c        ****   /* Select the LCD Background Layer  */
 232:main.c        ****   BSP_LCD_SelectLayer(0);
 233:main.c        **** 
 234:main.c        ****   /* Clear the Background Layer */ 
 235:main.c        ****   BSP_LCD_Clear(LCD_COLOR_WHITE);
 236:main.c        ****   BSP_LCD_SetBackColor(LCD_COLOR_WHITE);
 237:main.c        ****   
 238:main.c        ****   BSP_LCD_SetColorKeying(1,LCD_COLOR_WHITE);
 239:main.c        ****   
 240:main.c        ****   /* Select the LCD Foreground Layer  */
 241:main.c        ****   BSP_LCD_SelectLayer(1);
 242:main.c        **** 
 243:main.c        ****   /* Clear the Foreground Layer */ 
 244:main.c        ****   BSP_LCD_Clear(LCD_COLOR_WHITE);
 245:main.c        ****   BSP_LCD_SetBackColor(LCD_COLOR_WHITE);
 246:main.c        ****   
 247:main.c        ****   /* Configure the transparency for foreground and background :
 248:main.c        ****      Increase the transparency */
 249:main.c        ****   BSP_LCD_SetTransparency(0, 255);
 250:main.c        ****   BSP_LCD_SetTransparency(1, 255);
 251:main.c        **** }
 252:main.c        **** 
 253:main.c        **** 
 254:main.c        **** static TS_StateTypeDef  TS_State;
 255:main.c        **** 
 256:main.c        **** /* USER CODE END 0 */
 257:main.c        **** 
 258:main.c        **** /**
 259:main.c        ****   * @brief  The application entry point.
 260:main.c        ****   *
ARM GAS  C:\Users\lenovo\AppData\Local\Temp\ccfgRfuq.s 			page 6


 261:main.c        ****   * @retval None
 262:main.c        ****   */
 263:main.c        **** int main(void)
 264:main.c        **** {
 265:main.c        ****   /* USER CODE BEGIN 1 */
 266:main.c        **** 
 267:main.c        ****   /* USER CODE END 1 */
 268:main.c        **** 
 269:main.c        ****   /* MCU Configuration----------------------------------------------------------*/
 270:main.c        **** 
 271:main.c        ****   /* Reset of all peripherals, Initializes the Flash interface and the Systick. */
 272:main.c        ****   HAL_Init();
 273:main.c        **** 
 274:main.c        ****   /* USER CODE BEGIN Init */
 275:main.c        **** 
 276:main.c        ****   /* USER CODE END Init */
 277:main.c        **** 
 278:main.c        ****   /* Configure the system clock */
 279:main.c        ****   SystemClock_Config();
 280:main.c        **** 
 281:main.c        ****   /* USER CODE BEGIN SysInit */
 282:main.c        **** 
 283:main.c        ****   /* USER CODE END SysInit */
 284:main.c        **** 
 285:main.c        ****   /* Initialize all configured peripherals */
 286:main.c        ****   MX_GPIO_Init();
 287:main.c        ****   MX_ADC3_Init();
 288:main.c        ****   MX_CRC_Init();
 289:main.c        ****   MX_DCMI_Init();
 290:main.c        ****   MX_DMA2D_Init();
 291:main.c        ****   MX_FMC_Init();
 292:main.c        ****   MX_I2C1_Init();
 293:main.c        ****   MX_I2C3_Init();
 294:main.c        ****   MX_LTDC_Init();
 295:main.c        ****   MX_QUADSPI_Init();
 296:main.c        ****   MX_RTC_Init();
 297:main.c        ****   MX_SAI2_Init();
 298:main.c        ****   MX_SDMMC1_SD_Init();
 299:main.c        ****   MX_SPDIFRX_Init();
 300:main.c        ****   MX_SPI2_Init();
 301:main.c        ****   MX_TIM1_Init();
 302:main.c        ****   MX_TIM2_Init();
 303:main.c        ****   MX_TIM3_Init();
 304:main.c        ****   MX_TIM5_Init();
 305:main.c        ****   MX_TIM8_Init();
 306:main.c        ****   MX_TIM12_Init();
 307:main.c        ****   MX_USART1_UART_Init();
 308:main.c        ****   MX_USART6_UART_Init();
 309:main.c        ****   MX_TIM7_Init();
 310:main.c        ****   /* USER CODE BEGIN 2 */
 311:main.c        ****   debug_init(&huart1);
 312:main.c        **** 
 313:main.c        ****   xprintf(ANSI_FG_GREEN "STM32F746 Discovery Project" ANSI_FG_DEFAULT "\n");
 314:main.c        **** 
 315:main.c        ****   printf("Regular printf\n");
 316:main.c        **** 
 317:main.c        **** lcd_start();
ARM GAS  C:\Users\lenovo\AppData\Local\Temp\ccfgRfuq.s 			page 7


 318:main.c        **** //draw_background();
 319:main.c        **** initialize_touchscreen();
 320:main.c        **** 
 321:main.c        ****   /* USER CODE END 2 */
 322:main.c        **** 
 323:main.c        ****   /* USER CODE BEGIN RTOS_MUTEX */
 324:main.c        ****   /* add mutexes, ... */
 325:main.c        ****   /* USER CODE END RTOS_MUTEX */
 326:main.c        **** 
 327:main.c        ****   /* USER CODE BEGIN RTOS_SEMAPHORES */
 328:main.c        ****   /* add semaphores, ... */
 329:main.c        ****   /* USER CODE END RTOS_SEMAPHORES */
 330:main.c        **** 
 331:main.c        ****   /* USER CODE BEGIN RTOS_TIMERS */
 332:main.c        ****   /* start timers, add new ones, ... */
 333:main.c        ****   /* USER CODE END RTOS_TIMERS */
 334:main.c        **** 
 335:main.c        ****   /* Create the thread(s) */
 336:main.c        ****   /* definition and creation of defaultTask */
 337:main.c        ****   osThreadDef(defaultTask, StartDefaultTask, osPriorityNormal, 0, 4096);
 338:main.c        ****   defaultTaskHandle = osThreadCreate(osThread(defaultTask), NULL);
 339:main.c        **** 
 340:main.c        ****   /* USER CODE BEGIN RTOS_THREADS */
 341:main.c        ****   /* add threads, ... */
 342:main.c        ****   /* USER CODE END RTOS_THREADS */
 343:main.c        **** 
 344:main.c        ****   /* USER CODE BEGIN RTOS_QUEUES */
 345:main.c        ****   /* add queues, ... */
 346:main.c        ****   /* USER CODE END RTOS_QUEUES */
 347:main.c        ****  
 348:main.c        **** 
 349:main.c        ****   /* Start scheduler */
 350:main.c        ****   osKernelStart();
 351:main.c        ****   
 352:main.c        ****   /* We should never get here as control is now taken by the scheduler */
 353:main.c        **** 
 354:main.c        ****   /* Infinite loop */
 355:main.c        ****   /* USER CODE BEGIN WHILE */
 356:main.c        ****   while (1)
 357:main.c        ****   {
 358:main.c        ****   /* USER CODE END WHILE */
 359:main.c        **** 		  /* Select the LCD Background Layer  */
 360:main.c        ****   
 361:main.c        **** //HAL_Delay(1);
 362:main.c        ****   /* USER CODE BEGIN 3 */
 363:main.c        **** 
 364:main.c        ****   }
 365:main.c        ****   /* USER CODE END 3 */
 366:main.c        **** 
 367:main.c        **** }
 368:main.c        **** 
 369:main.c        **** /**
 370:main.c        ****   * @brief System Clock Configuration
 371:main.c        ****   * @retval None
 372:main.c        ****   */
 373:main.c        **** void SystemClock_Config(void)
 374:main.c        **** {
ARM GAS  C:\Users\lenovo\AppData\Local\Temp\ccfgRfuq.s 			page 8


 375:main.c        **** 
 376:main.c        ****   RCC_OscInitTypeDef RCC_OscInitStruct;
 377:main.c        ****   RCC_ClkInitTypeDef RCC_ClkInitStruct;
 378:main.c        ****   RCC_PeriphCLKInitTypeDef PeriphClkInitStruct;
 379:main.c        **** 
 380:main.c        ****     /**Configure the main internal regulator output voltage 
 381:main.c        ****     */
 382:main.c        ****   __HAL_RCC_PWR_CLK_ENABLE();
 383:main.c        **** 
 384:main.c        ****   __HAL_PWR_VOLTAGESCALING_CONFIG(PWR_REGULATOR_VOLTAGE_SCALE1);
 385:main.c        **** 
 386:main.c        ****     /**Initializes the CPU, AHB and APB busses clocks 
 387:main.c        ****     */
 388:main.c        ****   RCC_OscInitStruct.OscillatorType = RCC_OSCILLATORTYPE_LSI|RCC_OSCILLATORTYPE_HSE;
 389:main.c        ****   RCC_OscInitStruct.HSEState = RCC_HSE_ON;
 390:main.c        ****   RCC_OscInitStruct.LSIState = RCC_LSI_ON;
 391:main.c        ****   RCC_OscInitStruct.PLL.PLLState = RCC_PLL_ON;
 392:main.c        ****   RCC_OscInitStruct.PLL.PLLSource = RCC_PLLSOURCE_HSE;
 393:main.c        ****   RCC_OscInitStruct.PLL.PLLM = 25;
 394:main.c        ****   RCC_OscInitStruct.PLL.PLLN = 400;
 395:main.c        ****   RCC_OscInitStruct.PLL.PLLP = RCC_PLLP_DIV2;
 396:main.c        ****   RCC_OscInitStruct.PLL.PLLQ = 8;
 397:main.c        ****   if (HAL_RCC_OscConfig(&RCC_OscInitStruct) != HAL_OK)
 398:main.c        ****   {
 399:main.c        ****     _Error_Handler(__FILE__, __LINE__);
 400:main.c        ****   }
 401:main.c        **** 
 402:main.c        ****     /**Activate the Over-Drive mode 
 403:main.c        ****     */
 404:main.c        ****   if (HAL_PWREx_EnableOverDrive() != HAL_OK)
 405:main.c        ****   {
 406:main.c        ****     _Error_Handler(__FILE__, __LINE__);
 407:main.c        ****   }
 408:main.c        **** 
 409:main.c        ****     /**Initializes the CPU, AHB and APB busses clocks 
 410:main.c        ****     */
 411:main.c        ****   RCC_ClkInitStruct.ClockType = RCC_CLOCKTYPE_HCLK|RCC_CLOCKTYPE_SYSCLK
 412:main.c        ****                               |RCC_CLOCKTYPE_PCLK1|RCC_CLOCKTYPE_PCLK2;
 413:main.c        ****   RCC_ClkInitStruct.SYSCLKSource = RCC_SYSCLKSOURCE_PLLCLK;
 414:main.c        ****   RCC_ClkInitStruct.AHBCLKDivider = RCC_SYSCLK_DIV1;
 415:main.c        ****   RCC_ClkInitStruct.APB1CLKDivider = RCC_HCLK_DIV4;
 416:main.c        ****   RCC_ClkInitStruct.APB2CLKDivider = RCC_HCLK_DIV2;
 417:main.c        **** 
 418:main.c        ****   if (HAL_RCC_ClockConfig(&RCC_ClkInitStruct, FLASH_LATENCY_6) != HAL_OK)
 419:main.c        ****   {
 420:main.c        ****     _Error_Handler(__FILE__, __LINE__);
 421:main.c        ****   }
 422:main.c        **** 
 423:main.c        ****   PeriphClkInitStruct.PeriphClockSelection = RCC_PERIPHCLK_SPDIFRX|RCC_PERIPHCLK_LTDC
 424:main.c        ****                               |RCC_PERIPHCLK_RTC|RCC_PERIPHCLK_USART1
 425:main.c        ****                               |RCC_PERIPHCLK_USART6|RCC_PERIPHCLK_SAI2
 426:main.c        ****                               |RCC_PERIPHCLK_I2C1|RCC_PERIPHCLK_I2C3
 427:main.c        ****                               |RCC_PERIPHCLK_SDMMC1|RCC_PERIPHCLK_CLK48;
 428:main.c        ****   PeriphClkInitStruct.PLLI2S.PLLI2SN = 100;
 429:main.c        ****   PeriphClkInitStruct.PLLI2S.PLLI2SP = RCC_PLLP_DIV2;
 430:main.c        ****   PeriphClkInitStruct.PLLI2S.PLLI2SR = 2;
 431:main.c        ****   PeriphClkInitStruct.PLLI2S.PLLI2SQ = 2;
ARM GAS  C:\Users\lenovo\AppData\Local\Temp\ccfgRfuq.s 			page 9


 432:main.c        ****   PeriphClkInitStruct.PLLSAI.PLLSAIN = 192;
 433:main.c        ****   PeriphClkInitStruct.PLLSAI.PLLSAIR = 4;
 434:main.c        ****   PeriphClkInitStruct.PLLSAI.PLLSAIQ = 4;
 435:main.c        ****   PeriphClkInitStruct.PLLSAI.PLLSAIP = RCC_PLLSAIP_DIV4;
 436:main.c        ****   PeriphClkInitStruct.PLLI2SDivQ = 1;
 437:main.c        ****   PeriphClkInitStruct.PLLSAIDivQ = 1;
 438:main.c        ****   PeriphClkInitStruct.PLLSAIDivR = RCC_PLLSAIDIVR_8;
 439:main.c        ****   PeriphClkInitStruct.RTCClockSelection = RCC_RTCCLKSOURCE_LSI;
 440:main.c        ****   PeriphClkInitStruct.Sai2ClockSelection = RCC_SAI2CLKSOURCE_PLLSAI;
 441:main.c        ****   PeriphClkInitStruct.Usart1ClockSelection = RCC_USART1CLKSOURCE_PCLK2;
 442:main.c        ****   PeriphClkInitStruct.Usart6ClockSelection = RCC_USART6CLKSOURCE_PCLK2;
 443:main.c        ****   PeriphClkInitStruct.I2c1ClockSelection = RCC_I2C1CLKSOURCE_PCLK1;
 444:main.c        ****   PeriphClkInitStruct.I2c3ClockSelection = RCC_I2C3CLKSOURCE_PCLK1;
 445:main.c        ****   PeriphClkInitStruct.Clk48ClockSelection = RCC_CLK48SOURCE_PLLSAIP;
 446:main.c        ****   PeriphClkInitStruct.Sdmmc1ClockSelection = RCC_SDMMC1CLKSOURCE_CLK48;
 447:main.c        ****   if (HAL_RCCEx_PeriphCLKConfig(&PeriphClkInitStruct) != HAL_OK)
 448:main.c        ****   {
 449:main.c        ****     _Error_Handler(__FILE__, __LINE__);
 450:main.c        ****   }
 451:main.c        **** 
 452:main.c        ****     /**Configure the Systick interrupt time 
 453:main.c        ****     */
 454:main.c        ****   HAL_SYSTICK_Config(HAL_RCC_GetHCLKFreq()/1000);
 455:main.c        **** 
 456:main.c        ****     /**Configure the Systick 
 457:main.c        ****     */
 458:main.c        ****   HAL_SYSTICK_CLKSourceConfig(SYSTICK_CLKSOURCE_HCLK);
 459:main.c        **** 
 460:main.c        ****   /* SysTick_IRQn interrupt configuration */
 461:main.c        ****   HAL_NVIC_SetPriority(SysTick_IRQn, 15, 0);
 462:main.c        **** }
 463:main.c        **** 
 464:main.c        **** /* ADC3 init function */
 465:main.c        **** static void MX_ADC3_Init(void)
 466:main.c        **** {
 467:main.c        **** 
 468:main.c        ****   ADC_ChannelConfTypeDef sConfig;
 469:main.c        **** 
 470:main.c        ****     /**Configure the global features of the ADC (Clock, Resolution, Data Alignment and number of co
 471:main.c        ****     */
 472:main.c        ****   hadc3.Instance = ADC3;
 473:main.c        ****   hadc3.Init.ClockPrescaler = ADC_CLOCK_SYNC_PCLK_DIV4;
 474:main.c        ****   hadc3.Init.Resolution = ADC_RESOLUTION_12B;
 475:main.c        ****   hadc3.Init.ScanConvMode = ADC_SCAN_DISABLE;
 476:main.c        ****   hadc3.Init.ContinuousConvMode = DISABLE;
 477:main.c        ****   hadc3.Init.DiscontinuousConvMode = DISABLE;
 478:main.c        ****   hadc3.Init.ExternalTrigConvEdge = ADC_EXTERNALTRIGCONVEDGE_NONE;
 479:main.c        ****   hadc3.Init.ExternalTrigConv = ADC_SOFTWARE_START;
 480:main.c        ****   hadc3.Init.DataAlign = ADC_DATAALIGN_RIGHT;
 481:main.c        ****   hadc3.Init.NbrOfConversion = 1;
 482:main.c        ****   hadc3.Init.DMAContinuousRequests = DISABLE;
 483:main.c        ****   hadc3.Init.EOCSelection = ADC_EOC_SINGLE_CONV;
 484:main.c        ****   if (HAL_ADC_Init(&hadc3) != HAL_OK)
 485:main.c        ****   {
 486:main.c        ****     _Error_Handler(__FILE__, __LINE__);
 487:main.c        ****   }
 488:main.c        **** 
ARM GAS  C:\Users\lenovo\AppData\Local\Temp\ccfgRfuq.s 			page 10


 489:main.c        ****     /**Configure for the selected ADC regular channel its corresponding rank in the sequencer and i
 490:main.c        ****     */
 491:main.c        ****   sConfig.Channel = ADC_CHANNEL_4;
 492:main.c        ****   sConfig.Rank = ADC_REGULAR_RANK_1;
 493:main.c        ****   sConfig.SamplingTime = ADC_SAMPLETIME_3CYCLES;
 494:main.c        ****   if (HAL_ADC_ConfigChannel(&hadc3, &sConfig) != HAL_OK)
 495:main.c        ****   {
 496:main.c        ****     _Error_Handler(__FILE__, __LINE__);
 497:main.c        ****   }
 498:main.c        **** 
 499:main.c        **** }
 500:main.c        **** 
 501:main.c        **** /* CRC init function */
 502:main.c        **** static void MX_CRC_Init(void)
 503:main.c        **** {
 504:main.c        **** 
 505:main.c        ****   hcrc.Instance = CRC;
 506:main.c        ****   hcrc.Init.DefaultPolynomialUse = DEFAULT_POLYNOMIAL_ENABLE;
 507:main.c        ****   hcrc.Init.DefaultInitValueUse = DEFAULT_INIT_VALUE_ENABLE;
 508:main.c        ****   hcrc.Init.InputDataInversionMode = CRC_INPUTDATA_INVERSION_NONE;
 509:main.c        ****   hcrc.Init.OutputDataInversionMode = CRC_OUTPUTDATA_INVERSION_DISABLE;
 510:main.c        ****   hcrc.InputDataFormat = CRC_INPUTDATA_FORMAT_BYTES;
 511:main.c        ****   if (HAL_CRC_Init(&hcrc) != HAL_OK)
 512:main.c        ****   {
 513:main.c        ****     _Error_Handler(__FILE__, __LINE__);
 514:main.c        ****   }
 515:main.c        **** 
 516:main.c        **** }
 517:main.c        **** 
 518:main.c        **** /* DCMI init function */
 519:main.c        **** static void MX_DCMI_Init(void)
 520:main.c        **** {
 521:main.c        **** 
 522:main.c        ****   hdcmi.Instance = DCMI;
 523:main.c        ****   hdcmi.Init.SynchroMode = DCMI_SYNCHRO_HARDWARE;
 524:main.c        ****   hdcmi.Init.PCKPolarity = DCMI_PCKPOLARITY_FALLING;
 525:main.c        ****   hdcmi.Init.VSPolarity = DCMI_VSPOLARITY_LOW;
 526:main.c        ****   hdcmi.Init.HSPolarity = DCMI_HSPOLARITY_LOW;
 527:main.c        ****   hdcmi.Init.CaptureRate = DCMI_CR_ALL_FRAME;
 528:main.c        ****   hdcmi.Init.ExtendedDataMode = DCMI_EXTEND_DATA_8B;
 529:main.c        ****   hdcmi.Init.JPEGMode = DCMI_JPEG_DISABLE;
 530:main.c        ****   hdcmi.Init.ByteSelectMode = DCMI_BSM_ALL;
 531:main.c        ****   hdcmi.Init.ByteSelectStart = DCMI_OEBS_ODD;
 532:main.c        ****   hdcmi.Init.LineSelectMode = DCMI_LSM_ALL;
 533:main.c        ****   hdcmi.Init.LineSelectStart = DCMI_OELS_ODD;
 534:main.c        ****   if (HAL_DCMI_Init(&hdcmi) != HAL_OK)
 535:main.c        ****   {
 536:main.c        ****     _Error_Handler(__FILE__, __LINE__);
 537:main.c        ****   }
 538:main.c        **** 
 539:main.c        **** }
 540:main.c        **** 
 541:main.c        **** /* DMA2D init function */
 542:main.c        **** static void MX_DMA2D_Init(void)
 543:main.c        **** {
 544:main.c        **** 
 545:main.c        ****   hdma2d.Instance = DMA2D;
ARM GAS  C:\Users\lenovo\AppData\Local\Temp\ccfgRfuq.s 			page 11


 546:main.c        ****   hdma2d.Init.Mode = DMA2D_M2M;
 547:main.c        ****   hdma2d.Init.ColorMode = DMA2D_OUTPUT_ARGB8888;
 548:main.c        ****   hdma2d.Init.OutputOffset = 0;
 549:main.c        ****   hdma2d.LayerCfg[1].InputOffset = 0;
 550:main.c        ****   hdma2d.LayerCfg[1].InputColorMode = DMA2D_INPUT_ARGB8888;
 551:main.c        ****   hdma2d.LayerCfg[1].AlphaMode = DMA2D_NO_MODIF_ALPHA;
 552:main.c        ****   hdma2d.LayerCfg[1].InputAlpha = 0;
 553:main.c        ****   if (HAL_DMA2D_Init(&hdma2d) != HAL_OK)
 554:main.c        ****   {
 555:main.c        ****     _Error_Handler(__FILE__, __LINE__);
 556:main.c        ****   }
 557:main.c        **** 
 558:main.c        ****   if (HAL_DMA2D_ConfigLayer(&hdma2d, 1) != HAL_OK)
 559:main.c        ****   {
 560:main.c        ****     _Error_Handler(__FILE__, __LINE__);
 561:main.c        ****   }
 562:main.c        **** 
 563:main.c        **** }
 564:main.c        **** 
 565:main.c        **** /* I2C1 init function */
 566:main.c        **** static void MX_I2C1_Init(void)
 567:main.c        **** {
 568:main.c        **** 
 569:main.c        ****   hi2c1.Instance = I2C1;
 570:main.c        ****   hi2c1.Init.Timing = 0x00C0EAFF;
 571:main.c        ****   hi2c1.Init.OwnAddress1 = 0;
 572:main.c        ****   hi2c1.Init.AddressingMode = I2C_ADDRESSINGMODE_7BIT;
 573:main.c        ****   hi2c1.Init.DualAddressMode = I2C_DUALADDRESS_DISABLE;
 574:main.c        ****   hi2c1.Init.OwnAddress2 = 0;
 575:main.c        ****   hi2c1.Init.OwnAddress2Masks = I2C_OA2_NOMASK;
 576:main.c        ****   hi2c1.Init.GeneralCallMode = I2C_GENERALCALL_DISABLE;
 577:main.c        ****   hi2c1.Init.NoStretchMode = I2C_NOSTRETCH_DISABLE;
 578:main.c        ****   if (HAL_I2C_Init(&hi2c1) != HAL_OK)
 579:main.c        ****   {
 580:main.c        ****     _Error_Handler(__FILE__, __LINE__);
 581:main.c        ****   }
 582:main.c        **** 
 583:main.c        ****     /**Configure Analogue filter 
 584:main.c        ****     */
 585:main.c        ****   if (HAL_I2CEx_ConfigAnalogFilter(&hi2c1, I2C_ANALOGFILTER_ENABLE) != HAL_OK)
 586:main.c        ****   {
 587:main.c        ****     _Error_Handler(__FILE__, __LINE__);
 588:main.c        ****   }
 589:main.c        **** 
 590:main.c        ****     /**Configure Digital filter 
 591:main.c        ****     */
 592:main.c        ****   if (HAL_I2CEx_ConfigDigitalFilter(&hi2c1, 0) != HAL_OK)
 593:main.c        ****   {
 594:main.c        ****     _Error_Handler(__FILE__, __LINE__);
 595:main.c        ****   }
 596:main.c        **** 
 597:main.c        **** }
 598:main.c        **** 
 599:main.c        **** /* I2C3 init function */
 600:main.c        **** static void MX_I2C3_Init(void)
 601:main.c        **** {
 602:main.c        **** 
ARM GAS  C:\Users\lenovo\AppData\Local\Temp\ccfgRfuq.s 			page 12


 603:main.c        ****   hi2c3.Instance = I2C3;
 604:main.c        ****   hi2c3.Init.Timing = 0x00C0EAFF;
 605:main.c        ****   hi2c3.Init.OwnAddress1 = 0;
 606:main.c        ****   hi2c3.Init.AddressingMode = I2C_ADDRESSINGMODE_7BIT;
 607:main.c        ****   hi2c3.Init.DualAddressMode = I2C_DUALADDRESS_DISABLE;
 608:main.c        ****   hi2c3.Init.OwnAddress2 = 0;
 609:main.c        ****   hi2c3.Init.OwnAddress2Masks = I2C_OA2_NOMASK;
 610:main.c        ****   hi2c3.Init.GeneralCallMode = I2C_GENERALCALL_DISABLE;
 611:main.c        ****   hi2c3.Init.NoStretchMode = I2C_NOSTRETCH_DISABLE;
 612:main.c        ****   if (HAL_I2C_Init(&hi2c3) != HAL_OK)
 613:main.c        ****   {
 614:main.c        ****     _Error_Handler(__FILE__, __LINE__);
 615:main.c        ****   }
 616:main.c        **** 
 617:main.c        ****     /**Configure Analogue filter 
 618:main.c        ****     */
 619:main.c        ****   if (HAL_I2CEx_ConfigAnalogFilter(&hi2c3, I2C_ANALOGFILTER_ENABLE) != HAL_OK)
 620:main.c        ****   {
 621:main.c        ****     _Error_Handler(__FILE__, __LINE__);
 622:main.c        ****   }
 623:main.c        **** 
 624:main.c        ****     /**Configure Digital filter 
 625:main.c        ****     */
 626:main.c        ****   if (HAL_I2CEx_ConfigDigitalFilter(&hi2c3, 0) != HAL_OK)
 627:main.c        ****   {
 628:main.c        ****     _Error_Handler(__FILE__, __LINE__);
 629:main.c        ****   }
 630:main.c        **** 
 631:main.c        **** }
 632:main.c        **** 
 633:main.c        **** /* LTDC init function */
 634:main.c        **** static void MX_LTDC_Init(void)
 635:main.c        **** {
 636:main.c        **** 
 637:main.c        ****   LTDC_LayerCfgTypeDef pLayerCfg;
 638:main.c        **** 
 639:main.c        ****   hltdc.Instance = LTDC;
 640:main.c        ****   hltdc.Init.HSPolarity = LTDC_HSPOLARITY_AL;
 641:main.c        ****   hltdc.Init.VSPolarity = LTDC_VSPOLARITY_AL;
 642:main.c        ****   hltdc.Init.DEPolarity = LTDC_DEPOLARITY_AL;
 643:main.c        ****   hltdc.Init.PCPolarity = LTDC_PCPOLARITY_IPC;
 644:main.c        ****   hltdc.Init.HorizontalSync = 40;
 645:main.c        ****   hltdc.Init.VerticalSync = 9;
 646:main.c        ****   hltdc.Init.AccumulatedHBP = 53;
 647:main.c        ****   hltdc.Init.AccumulatedVBP = 11;
 648:main.c        ****   hltdc.Init.AccumulatedActiveW = 533;
 649:main.c        ****   hltdc.Init.AccumulatedActiveH = 283;
 650:main.c        ****   hltdc.Init.TotalWidth = 565;
 651:main.c        ****   hltdc.Init.TotalHeigh = 285;
 652:main.c        ****   hltdc.Init.Backcolor.Blue = 0;
 653:main.c        ****   hltdc.Init.Backcolor.Green = 0;
 654:main.c        ****   hltdc.Init.Backcolor.Red = 0;
 655:main.c        ****   if (HAL_LTDC_Init(&hltdc) != HAL_OK)
 656:main.c        ****   {
 657:main.c        ****     _Error_Handler(__FILE__, __LINE__);
 658:main.c        ****   }
 659:main.c        **** 
ARM GAS  C:\Users\lenovo\AppData\Local\Temp\ccfgRfuq.s 			page 13


 660:main.c        ****   pLayerCfg.WindowX0 = 0;
 661:main.c        ****   pLayerCfg.WindowX1 = 480;
 662:main.c        ****   pLayerCfg.WindowY0 = 0;
 663:main.c        ****   pLayerCfg.WindowY1 = 272;
 664:main.c        ****   pLayerCfg.PixelFormat = LTDC_PIXEL_FORMAT_ARGB8888;
 665:main.c        ****   pLayerCfg.Alpha = 255;
 666:main.c        ****   pLayerCfg.Alpha0 = 0;
 667:main.c        ****   pLayerCfg.BlendingFactor1 = LTDC_BLENDING_FACTOR1_PAxCA;
 668:main.c        ****   pLayerCfg.BlendingFactor2 = LTDC_BLENDING_FACTOR2_PAxCA;
 669:main.c        ****   pLayerCfg.FBStartAdress = 0xC0000000;
 670:main.c        ****   pLayerCfg.ImageWidth = 480;
 671:main.c        ****   pLayerCfg.ImageHeight = 272;
 672:main.c        ****   pLayerCfg.Backcolor.Blue = 0;
 673:main.c        ****   pLayerCfg.Backcolor.Green = 0;
 674:main.c        ****   pLayerCfg.Backcolor.Red = 0;
 675:main.c        ****   if (HAL_LTDC_ConfigLayer(&hltdc, &pLayerCfg, 0) != HAL_OK)
 676:main.c        ****   {
 677:main.c        ****     _Error_Handler(__FILE__, __LINE__);
 678:main.c        ****   }
 679:main.c        **** 
 680:main.c        **** }
 681:main.c        **** 
 682:main.c        **** /* QUADSPI init function */
 683:main.c        **** static void MX_QUADSPI_Init(void)
 684:main.c        **** {
 685:main.c        **** 
 686:main.c        ****   /* QUADSPI parameter configuration*/
 687:main.c        ****   hqspi.Instance = QUADSPI;
 688:main.c        ****   hqspi.Init.ClockPrescaler = 255;
 689:main.c        ****   hqspi.Init.FifoThreshold = 1;
 690:main.c        ****   hqspi.Init.SampleShifting = QSPI_SAMPLE_SHIFTING_NONE;
 691:main.c        ****   hqspi.Init.FlashSize = 1;
 692:main.c        ****   hqspi.Init.ChipSelectHighTime = QSPI_CS_HIGH_TIME_1_CYCLE;
 693:main.c        ****   hqspi.Init.ClockMode = QSPI_CLOCK_MODE_0;
 694:main.c        ****   hqspi.Init.FlashID = QSPI_FLASH_ID_1;
 695:main.c        ****   hqspi.Init.DualFlash = QSPI_DUALFLASH_DISABLE;
 696:main.c        ****   if (HAL_QSPI_Init(&hqspi) != HAL_OK)
 697:main.c        ****   {
 698:main.c        ****     _Error_Handler(__FILE__, __LINE__);
 699:main.c        ****   }
 700:main.c        **** 
 701:main.c        **** }
 702:main.c        **** 
 703:main.c        **** /* RTC init function */
 704:main.c        **** static void MX_RTC_Init(void)
 705:main.c        **** {
 706:main.c        **** 
 707:main.c        ****   /* USER CODE BEGIN RTC_Init 0 */
 708:main.c        **** 
 709:main.c        ****   /* USER CODE END RTC_Init 0 */
 710:main.c        **** 
 711:main.c        ****   RTC_TimeTypeDef sTime;
 712:main.c        ****   RTC_DateTypeDef sDate;
 713:main.c        ****   RTC_AlarmTypeDef sAlarm;
 714:main.c        **** 
 715:main.c        ****   /* USER CODE BEGIN RTC_Init 1 */
 716:main.c        **** 
ARM GAS  C:\Users\lenovo\AppData\Local\Temp\ccfgRfuq.s 			page 14


 717:main.c        ****   /* USER CODE END RTC_Init 1 */
 718:main.c        **** 
 719:main.c        ****     /**Initialize RTC Only 
 720:main.c        ****     */
 721:main.c        ****   hrtc.Instance = RTC;
 722:main.c        ****   hrtc.Init.HourFormat = RTC_HOURFORMAT_24;
 723:main.c        ****   hrtc.Init.AsynchPrediv = 127;
 724:main.c        ****   hrtc.Init.SynchPrediv = 255;
 725:main.c        ****   hrtc.Init.OutPut = RTC_OUTPUT_DISABLE;
 726:main.c        ****   hrtc.Init.OutPutPolarity = RTC_OUTPUT_POLARITY_HIGH;
 727:main.c        ****   hrtc.Init.OutPutType = RTC_OUTPUT_TYPE_OPENDRAIN;
 728:main.c        ****   if (HAL_RTC_Init(&hrtc) != HAL_OK)
 729:main.c        ****   {
 730:main.c        ****     _Error_Handler(__FILE__, __LINE__);
 731:main.c        ****   }
 732:main.c        **** 
 733:main.c        ****     /**Initialize RTC and set the Time and Date 
 734:main.c        ****     */
 735:main.c        ****   sTime.Hours = 0x0;
 736:main.c        ****   sTime.Minutes = 0x0;
 737:main.c        ****   sTime.Seconds = 0x0;
 738:main.c        ****   sTime.DayLightSaving = RTC_DAYLIGHTSAVING_NONE;
 739:main.c        ****   sTime.StoreOperation = RTC_STOREOPERATION_RESET;
 740:main.c        ****   if (HAL_RTC_SetTime(&hrtc, &sTime, RTC_FORMAT_BCD) != HAL_OK)
 741:main.c        ****   {
 742:main.c        ****     _Error_Handler(__FILE__, __LINE__);
 743:main.c        ****   }
 744:main.c        **** 
 745:main.c        ****   sDate.WeekDay = RTC_WEEKDAY_MONDAY;
 746:main.c        ****   sDate.Month = RTC_MONTH_JANUARY;
 747:main.c        ****   sDate.Date = 0x1;
 748:main.c        ****   sDate.Year = 0x0;
 749:main.c        **** 
 750:main.c        ****   if (HAL_RTC_SetDate(&hrtc, &sDate, RTC_FORMAT_BCD) != HAL_OK)
 751:main.c        ****   {
 752:main.c        ****     _Error_Handler(__FILE__, __LINE__);
 753:main.c        ****   }
 754:main.c        **** 
 755:main.c        ****     /**Enable the Alarm A 
 756:main.c        ****     */
 757:main.c        ****   sAlarm.AlarmTime.Hours = 0x0;
 758:main.c        ****   sAlarm.AlarmTime.Minutes = 0x0;
 759:main.c        ****   sAlarm.AlarmTime.Seconds = 0x0;
 760:main.c        ****   sAlarm.AlarmTime.SubSeconds = 0x0;
 761:main.c        ****   sAlarm.AlarmTime.DayLightSaving = RTC_DAYLIGHTSAVING_NONE;
 762:main.c        ****   sAlarm.AlarmTime.StoreOperation = RTC_STOREOPERATION_RESET;
 763:main.c        ****   sAlarm.AlarmMask = RTC_ALARMMASK_NONE;
 764:main.c        ****   sAlarm.AlarmSubSecondMask = RTC_ALARMSUBSECONDMASK_ALL;
 765:main.c        ****   sAlarm.AlarmDateWeekDaySel = RTC_ALARMDATEWEEKDAYSEL_DATE;
 766:main.c        ****   sAlarm.AlarmDateWeekDay = 0x1;
 767:main.c        ****   sAlarm.Alarm = RTC_ALARM_A;
 768:main.c        ****   if (HAL_RTC_SetAlarm(&hrtc, &sAlarm, RTC_FORMAT_BCD) != HAL_OK)
 769:main.c        ****   {
 770:main.c        ****     _Error_Handler(__FILE__, __LINE__);
 771:main.c        ****   }
 772:main.c        **** 
 773:main.c        ****     /**Enable the Alarm B 
ARM GAS  C:\Users\lenovo\AppData\Local\Temp\ccfgRfuq.s 			page 15


 774:main.c        ****     */
 775:main.c        ****   sAlarm.AlarmDateWeekDay = 0x1;
 776:main.c        ****   sAlarm.Alarm = RTC_ALARM_B;
 777:main.c        ****   if (HAL_RTC_SetAlarm(&hrtc, &sAlarm, RTC_FORMAT_BCD) != HAL_OK)
 778:main.c        ****   {
 779:main.c        ****     _Error_Handler(__FILE__, __LINE__);
 780:main.c        ****   }
 781:main.c        **** 
 782:main.c        ****     /**Enable the TimeStamp 
 783:main.c        ****     */
 784:main.c        ****   if (HAL_RTCEx_SetTimeStamp(&hrtc, RTC_TIMESTAMPEDGE_RISING, RTC_TIMESTAMPPIN_POS1) != HAL_OK)
 785:main.c        ****   {
 786:main.c        ****     _Error_Handler(__FILE__, __LINE__);
 787:main.c        ****   }
 788:main.c        **** 
 789:main.c        **** }
 790:main.c        **** 
 791:main.c        **** /* SAI2 init function */
 792:main.c        **** static void MX_SAI2_Init(void)
 793:main.c        **** {
 794:main.c        **** 
 795:main.c        ****   hsai_BlockA2.Instance = SAI2_Block_A;
 796:main.c        ****   hsai_BlockA2.Init.Protocol = SAI_FREE_PROTOCOL;
 797:main.c        ****   hsai_BlockA2.Init.AudioMode = SAI_MODEMASTER_TX;
 798:main.c        ****   hsai_BlockA2.Init.DataSize = SAI_DATASIZE_24;
 799:main.c        ****   hsai_BlockA2.Init.FirstBit = SAI_FIRSTBIT_MSB;
 800:main.c        ****   hsai_BlockA2.Init.ClockStrobing = SAI_CLOCKSTROBING_FALLINGEDGE;
 801:main.c        ****   hsai_BlockA2.Init.Synchro = SAI_ASYNCHRONOUS;
 802:main.c        ****   hsai_BlockA2.Init.OutputDrive = SAI_OUTPUTDRIVE_DISABLE;
 803:main.c        ****   hsai_BlockA2.Init.NoDivider = SAI_MASTERDIVIDER_ENABLE;
 804:main.c        ****   hsai_BlockA2.Init.FIFOThreshold = SAI_FIFOTHRESHOLD_EMPTY;
 805:main.c        ****   hsai_BlockA2.Init.AudioFrequency = SAI_AUDIO_FREQUENCY_192K;
 806:main.c        ****   hsai_BlockA2.Init.SynchroExt = SAI_SYNCEXT_DISABLE;
 807:main.c        ****   hsai_BlockA2.Init.MonoStereoMode = SAI_STEREOMODE;
 808:main.c        ****   hsai_BlockA2.Init.CompandingMode = SAI_NOCOMPANDING;
 809:main.c        ****   hsai_BlockA2.Init.TriState = SAI_OUTPUT_NOTRELEASED;
 810:main.c        ****   hsai_BlockA2.FrameInit.FrameLength = 8;
 811:main.c        ****   hsai_BlockA2.FrameInit.ActiveFrameLength = 1;
 812:main.c        ****   hsai_BlockA2.FrameInit.FSDefinition = SAI_FS_STARTFRAME;
 813:main.c        ****   hsai_BlockA2.FrameInit.FSPolarity = SAI_FS_ACTIVE_LOW;
 814:main.c        ****   hsai_BlockA2.FrameInit.FSOffset = SAI_FS_FIRSTBIT;
 815:main.c        ****   hsai_BlockA2.SlotInit.FirstBitOffset = 0;
 816:main.c        ****   hsai_BlockA2.SlotInit.SlotSize = SAI_SLOTSIZE_DATASIZE;
 817:main.c        ****   hsai_BlockA2.SlotInit.SlotNumber = 1;
 818:main.c        ****   hsai_BlockA2.SlotInit.SlotActive = 0x00000000;
 819:main.c        ****   if (HAL_SAI_Init(&hsai_BlockA2) != HAL_OK)
 820:main.c        ****   {
 821:main.c        ****     _Error_Handler(__FILE__, __LINE__);
 822:main.c        ****   }
 823:main.c        **** 
 824:main.c        ****   hsai_BlockB2.Instance = SAI2_Block_B;
 825:main.c        ****   hsai_BlockB2.Init.Protocol = SAI_FREE_PROTOCOL;
 826:main.c        ****   hsai_BlockB2.Init.AudioMode = SAI_MODESLAVE_RX;
 827:main.c        ****   hsai_BlockB2.Init.DataSize = SAI_DATASIZE_24;
 828:main.c        ****   hsai_BlockB2.Init.FirstBit = SAI_FIRSTBIT_MSB;
 829:main.c        ****   hsai_BlockB2.Init.ClockStrobing = SAI_CLOCKSTROBING_FALLINGEDGE;
 830:main.c        ****   hsai_BlockB2.Init.Synchro = SAI_SYNCHRONOUS;
ARM GAS  C:\Users\lenovo\AppData\Local\Temp\ccfgRfuq.s 			page 16


 831:main.c        ****   hsai_BlockB2.Init.OutputDrive = SAI_OUTPUTDRIVE_DISABLE;
 832:main.c        ****   hsai_BlockB2.Init.FIFOThreshold = SAI_FIFOTHRESHOLD_EMPTY;
 833:main.c        ****   hsai_BlockB2.Init.SynchroExt = SAI_SYNCEXT_DISABLE;
 834:main.c        ****   hsai_BlockB2.Init.MonoStereoMode = SAI_STEREOMODE;
 835:main.c        ****   hsai_BlockB2.Init.CompandingMode = SAI_NOCOMPANDING;
 836:main.c        ****   hsai_BlockB2.Init.TriState = SAI_OUTPUT_NOTRELEASED;
 837:main.c        ****   hsai_BlockB2.FrameInit.FrameLength = 8;
 838:main.c        ****   hsai_BlockB2.FrameInit.ActiveFrameLength = 1;
 839:main.c        ****   hsai_BlockB2.FrameInit.FSDefinition = SAI_FS_STARTFRAME;
 840:main.c        ****   hsai_BlockB2.FrameInit.FSPolarity = SAI_FS_ACTIVE_LOW;
 841:main.c        ****   hsai_BlockB2.FrameInit.FSOffset = SAI_FS_FIRSTBIT;
 842:main.c        ****   hsai_BlockB2.SlotInit.FirstBitOffset = 0;
 843:main.c        ****   hsai_BlockB2.SlotInit.SlotSize = SAI_SLOTSIZE_DATASIZE;
 844:main.c        ****   hsai_BlockB2.SlotInit.SlotNumber = 1;
 845:main.c        ****   hsai_BlockB2.SlotInit.SlotActive = 0x00000000;
 846:main.c        ****   if (HAL_SAI_Init(&hsai_BlockB2) != HAL_OK)
 847:main.c        ****   {
 848:main.c        ****     _Error_Handler(__FILE__, __LINE__);
 849:main.c        ****   }
 850:main.c        **** 
 851:main.c        **** }
 852:main.c        **** 
 853:main.c        **** /* SDMMC1 init function */
 854:main.c        **** static void MX_SDMMC1_SD_Init(void)
 855:main.c        **** {
  27              		.loc 1 855 0
  28              		.cfi_startproc
  29              		@ args = 0, pretend = 0, frame = 0
  30              		@ frame_needed = 0, uses_anonymous_args = 0
  31              		@ link register save eliminated.
 856:main.c        **** 
 857:main.c        ****   hsd1.Instance = SDMMC1;
  32              		.loc 1 857 0
  33 0000 054B     		ldr	r3, .L2
  34 0002 064A     		ldr	r2, .L2+4
  35 0004 1A60     		str	r2, [r3]
 858:main.c        ****   hsd1.Init.ClockEdge = SDMMC_CLOCK_EDGE_RISING;
  36              		.loc 1 858 0
  37 0006 0022     		movs	r2, #0
  38 0008 5A60     		str	r2, [r3, #4]
 859:main.c        ****   hsd1.Init.ClockBypass = SDMMC_CLOCK_BYPASS_DISABLE;
  39              		.loc 1 859 0
  40 000a 9A60     		str	r2, [r3, #8]
 860:main.c        ****   hsd1.Init.ClockPowerSave = SDMMC_CLOCK_POWER_SAVE_DISABLE;
  41              		.loc 1 860 0
  42 000c DA60     		str	r2, [r3, #12]
 861:main.c        ****   hsd1.Init.BusWide = SDMMC_BUS_WIDE_1B;
  43              		.loc 1 861 0
  44 000e 1A61     		str	r2, [r3, #16]
 862:main.c        ****   hsd1.Init.HardwareFlowControl = SDMMC_HARDWARE_FLOW_CONTROL_DISABLE;
  45              		.loc 1 862 0
  46 0010 5A61     		str	r2, [r3, #20]
 863:main.c        ****   hsd1.Init.ClockDiv = 0;
  47              		.loc 1 863 0
  48 0012 9A61     		str	r2, [r3, #24]
  49 0014 7047     		bx	lr
  50              	.L3:
ARM GAS  C:\Users\lenovo\AppData\Local\Temp\ccfgRfuq.s 			page 17


  51 0016 00BF     		.align	2
  52              	.L2:
  53 0018 00000000 		.word	hsd1
  54 001c 002C0140 		.word	1073818624
  55              		.cfi_endproc
  56              	.LFE197:
  58              		.section	.text.MX_GPIO_Init,"ax",%progbits
  59              		.align	1
  60              		.syntax unified
  61              		.thumb
  62              		.thumb_func
  63              		.fpu fpv5-sp-d16
  65              	MX_GPIO_Init:
  66              	.LFB210:
 864:main.c        **** 
 865:main.c        **** }
 866:main.c        **** 
 867:main.c        **** /* SPDIFRX init function */
 868:main.c        **** static void MX_SPDIFRX_Init(void)
 869:main.c        **** {
 870:main.c        **** 
 871:main.c        ****   hspdif.Instance = SPDIFRX;
 872:main.c        ****   hspdif.Init.InputSelection = SPDIFRX_INPUT_IN0;
 873:main.c        ****   hspdif.Init.Retries = SPDIFRX_MAXRETRIES_NONE;
 874:main.c        ****   hspdif.Init.WaitForActivity = SPDIFRX_WAITFORACTIVITY_OFF;
 875:main.c        ****   hspdif.Init.ChannelSelection = SPDIFRX_CHANNEL_A;
 876:main.c        ****   hspdif.Init.DataFormat = SPDIFRX_DATAFORMAT_LSB;
 877:main.c        ****   hspdif.Init.StereoMode = SPDIFRX_STEREOMODE_DISABLE;
 878:main.c        ****   hspdif.Init.PreambleTypeMask = SPDIFRX_PREAMBLETYPEMASK_OFF;
 879:main.c        ****   hspdif.Init.ChannelStatusMask = SPDIFRX_CHANNELSTATUS_OFF;
 880:main.c        ****   hspdif.Init.ValidityBitMask = SPDIFRX_VALIDITYMASK_OFF;
 881:main.c        ****   hspdif.Init.ParityErrorMask = SPDIFRX_PARITYERRORMASK_OFF;
 882:main.c        ****   if (HAL_SPDIFRX_Init(&hspdif) != HAL_OK)
 883:main.c        ****   {
 884:main.c        ****     _Error_Handler(__FILE__, __LINE__);
 885:main.c        ****   }
 886:main.c        **** 
 887:main.c        **** }
 888:main.c        **** 
 889:main.c        **** /* SPI2 init function */
 890:main.c        **** static void MX_SPI2_Init(void)
 891:main.c        **** {
 892:main.c        **** 
 893:main.c        ****   /* SPI2 parameter configuration*/
 894:main.c        ****   hspi2.Instance = SPI2;
 895:main.c        ****   hspi2.Init.Mode = SPI_MODE_MASTER;
 896:main.c        ****   hspi2.Init.Direction = SPI_DIRECTION_2LINES;
 897:main.c        ****   hspi2.Init.DataSize = SPI_DATASIZE_4BIT;
 898:main.c        ****   hspi2.Init.CLKPolarity = SPI_POLARITY_LOW;
 899:main.c        ****   hspi2.Init.CLKPhase = SPI_PHASE_1EDGE;
 900:main.c        ****   hspi2.Init.NSS = SPI_NSS_SOFT;
 901:main.c        ****   hspi2.Init.BaudRatePrescaler = SPI_BAUDRATEPRESCALER_2;
 902:main.c        ****   hspi2.Init.FirstBit = SPI_FIRSTBIT_MSB;
 903:main.c        ****   hspi2.Init.TIMode = SPI_TIMODE_DISABLE;
 904:main.c        ****   hspi2.Init.CRCCalculation = SPI_CRCCALCULATION_DISABLE;
 905:main.c        ****   hspi2.Init.CRCPolynomial = 7;
 906:main.c        ****   hspi2.Init.CRCLength = SPI_CRC_LENGTH_DATASIZE;
ARM GAS  C:\Users\lenovo\AppData\Local\Temp\ccfgRfuq.s 			page 18


 907:main.c        ****   hspi2.Init.NSSPMode = SPI_NSS_PULSE_ENABLE;
 908:main.c        ****   if (HAL_SPI_Init(&hspi2) != HAL_OK)
 909:main.c        ****   {
 910:main.c        ****     _Error_Handler(__FILE__, __LINE__);
 911:main.c        ****   }
 912:main.c        **** 
 913:main.c        **** }
 914:main.c        **** 
 915:main.c        **** /* TIM1 init function */
 916:main.c        **** static void MX_TIM1_Init(void)
 917:main.c        **** {
 918:main.c        **** 
 919:main.c        ****   TIM_ClockConfigTypeDef sClockSourceConfig;
 920:main.c        ****   TIM_MasterConfigTypeDef sMasterConfig;
 921:main.c        ****   TIM_OC_InitTypeDef sConfigOC;
 922:main.c        ****   TIM_BreakDeadTimeConfigTypeDef sBreakDeadTimeConfig;
 923:main.c        **** 
 924:main.c        ****   htim1.Instance = TIM1;
 925:main.c        ****   htim1.Init.Prescaler = 0;
 926:main.c        ****   htim1.Init.CounterMode = TIM_COUNTERMODE_UP;
 927:main.c        ****   htim1.Init.Period = 0;
 928:main.c        ****   htim1.Init.ClockDivision = TIM_CLOCKDIVISION_DIV1;
 929:main.c        ****   htim1.Init.RepetitionCounter = 0;
 930:main.c        ****   htim1.Init.AutoReloadPreload = TIM_AUTORELOAD_PRELOAD_DISABLE;
 931:main.c        ****   if (HAL_TIM_Base_Init(&htim1) != HAL_OK)
 932:main.c        ****   {
 933:main.c        ****     _Error_Handler(__FILE__, __LINE__);
 934:main.c        ****   }
 935:main.c        **** 
 936:main.c        ****   sClockSourceConfig.ClockSource = TIM_CLOCKSOURCE_INTERNAL;
 937:main.c        ****   if (HAL_TIM_ConfigClockSource(&htim1, &sClockSourceConfig) != HAL_OK)
 938:main.c        ****   {
 939:main.c        ****     _Error_Handler(__FILE__, __LINE__);
 940:main.c        ****   }
 941:main.c        **** 
 942:main.c        ****   if (HAL_TIM_PWM_Init(&htim1) != HAL_OK)
 943:main.c        ****   {
 944:main.c        ****     _Error_Handler(__FILE__, __LINE__);
 945:main.c        ****   }
 946:main.c        **** 
 947:main.c        ****   sMasterConfig.MasterOutputTrigger = TIM_TRGO_RESET;
 948:main.c        ****   sMasterConfig.MasterOutputTrigger2 = TIM_TRGO2_RESET;
 949:main.c        ****   sMasterConfig.MasterSlaveMode = TIM_MASTERSLAVEMODE_DISABLE;
 950:main.c        ****   if (HAL_TIMEx_MasterConfigSynchronization(&htim1, &sMasterConfig) != HAL_OK)
 951:main.c        ****   {
 952:main.c        ****     _Error_Handler(__FILE__, __LINE__);
 953:main.c        ****   }
 954:main.c        **** 
 955:main.c        ****   sConfigOC.OCMode = TIM_OCMODE_PWM1;
 956:main.c        ****   sConfigOC.Pulse = 0;
 957:main.c        ****   sConfigOC.OCPolarity = TIM_OCPOLARITY_HIGH;
 958:main.c        ****   sConfigOC.OCNPolarity = TIM_OCNPOLARITY_HIGH;
 959:main.c        ****   sConfigOC.OCFastMode = TIM_OCFAST_DISABLE;
 960:main.c        ****   sConfigOC.OCIdleState = TIM_OCIDLESTATE_RESET;
 961:main.c        ****   sConfigOC.OCNIdleState = TIM_OCNIDLESTATE_RESET;
 962:main.c        ****   if (HAL_TIM_PWM_ConfigChannel(&htim1, &sConfigOC, TIM_CHANNEL_1) != HAL_OK)
 963:main.c        ****   {
ARM GAS  C:\Users\lenovo\AppData\Local\Temp\ccfgRfuq.s 			page 19


 964:main.c        ****     _Error_Handler(__FILE__, __LINE__);
 965:main.c        ****   }
 966:main.c        **** 
 967:main.c        ****   sBreakDeadTimeConfig.OffStateRunMode = TIM_OSSR_DISABLE;
 968:main.c        ****   sBreakDeadTimeConfig.OffStateIDLEMode = TIM_OSSI_DISABLE;
 969:main.c        ****   sBreakDeadTimeConfig.LockLevel = TIM_LOCKLEVEL_OFF;
 970:main.c        ****   sBreakDeadTimeConfig.DeadTime = 0;
 971:main.c        ****   sBreakDeadTimeConfig.BreakState = TIM_BREAK_DISABLE;
 972:main.c        ****   sBreakDeadTimeConfig.BreakPolarity = TIM_BREAKPOLARITY_HIGH;
 973:main.c        ****   sBreakDeadTimeConfig.BreakFilter = 0;
 974:main.c        ****   sBreakDeadTimeConfig.Break2State = TIM_BREAK2_DISABLE;
 975:main.c        ****   sBreakDeadTimeConfig.Break2Polarity = TIM_BREAK2POLARITY_HIGH;
 976:main.c        ****   sBreakDeadTimeConfig.Break2Filter = 0;
 977:main.c        ****   sBreakDeadTimeConfig.AutomaticOutput = TIM_AUTOMATICOUTPUT_DISABLE;
 978:main.c        ****   if (HAL_TIMEx_ConfigBreakDeadTime(&htim1, &sBreakDeadTimeConfig) != HAL_OK)
 979:main.c        ****   {
 980:main.c        ****     _Error_Handler(__FILE__, __LINE__);
 981:main.c        ****   }
 982:main.c        **** 
 983:main.c        ****   HAL_TIM_MspPostInit(&htim1);
 984:main.c        **** 
 985:main.c        **** }
 986:main.c        **** 
 987:main.c        **** /* TIM2 init function */
 988:main.c        **** static void MX_TIM2_Init(void)
 989:main.c        **** {
 990:main.c        **** 
 991:main.c        ****   TIM_ClockConfigTypeDef sClockSourceConfig;
 992:main.c        ****   TIM_MasterConfigTypeDef sMasterConfig;
 993:main.c        ****   TIM_OC_InitTypeDef sConfigOC;
 994:main.c        **** 
 995:main.c        ****   htim2.Instance = TIM2;
 996:main.c        ****   htim2.Init.Prescaler = 0;
 997:main.c        ****   htim2.Init.CounterMode = TIM_COUNTERMODE_UP;
 998:main.c        ****   htim2.Init.Period = 0;
 999:main.c        ****   htim2.Init.ClockDivision = TIM_CLOCKDIVISION_DIV1;
1000:main.c        ****   htim2.Init.AutoReloadPreload = TIM_AUTORELOAD_PRELOAD_DISABLE;
1001:main.c        ****   if (HAL_TIM_Base_Init(&htim2) != HAL_OK)
1002:main.c        ****   {
1003:main.c        ****     _Error_Handler(__FILE__, __LINE__);
1004:main.c        ****   }
1005:main.c        **** 
1006:main.c        ****   sClockSourceConfig.ClockSource = TIM_CLOCKSOURCE_INTERNAL;
1007:main.c        ****   if (HAL_TIM_ConfigClockSource(&htim2, &sClockSourceConfig) != HAL_OK)
1008:main.c        ****   {
1009:main.c        ****     _Error_Handler(__FILE__, __LINE__);
1010:main.c        ****   }
1011:main.c        **** 
1012:main.c        ****   if (HAL_TIM_PWM_Init(&htim2) != HAL_OK)
1013:main.c        ****   {
1014:main.c        ****     _Error_Handler(__FILE__, __LINE__);
1015:main.c        ****   }
1016:main.c        **** 
1017:main.c        ****   sMasterConfig.MasterOutputTrigger = TIM_TRGO_RESET;
1018:main.c        ****   sMasterConfig.MasterSlaveMode = TIM_MASTERSLAVEMODE_DISABLE;
1019:main.c        ****   if (HAL_TIMEx_MasterConfigSynchronization(&htim2, &sMasterConfig) != HAL_OK)
1020:main.c        ****   {
ARM GAS  C:\Users\lenovo\AppData\Local\Temp\ccfgRfuq.s 			page 20


1021:main.c        ****     _Error_Handler(__FILE__, __LINE__);
1022:main.c        ****   }
1023:main.c        **** 
1024:main.c        ****   sConfigOC.OCMode = TIM_OCMODE_PWM1;
1025:main.c        ****   sConfigOC.Pulse = 0;
1026:main.c        ****   sConfigOC.OCPolarity = TIM_OCPOLARITY_HIGH;
1027:main.c        ****   sConfigOC.OCFastMode = TIM_OCFAST_DISABLE;
1028:main.c        ****   if (HAL_TIM_PWM_ConfigChannel(&htim2, &sConfigOC, TIM_CHANNEL_1) != HAL_OK)
1029:main.c        ****   {
1030:main.c        ****     _Error_Handler(__FILE__, __LINE__);
1031:main.c        ****   }
1032:main.c        **** 
1033:main.c        ****   HAL_TIM_MspPostInit(&htim2);
1034:main.c        **** 
1035:main.c        **** }
1036:main.c        **** 
1037:main.c        **** /* TIM3 init function */
1038:main.c        **** static void MX_TIM3_Init(void)
1039:main.c        **** {
1040:main.c        **** 
1041:main.c        ****   TIM_ClockConfigTypeDef sClockSourceConfig;
1042:main.c        ****   TIM_MasterConfigTypeDef sMasterConfig;
1043:main.c        ****   TIM_OC_InitTypeDef sConfigOC;
1044:main.c        **** 
1045:main.c        ****   htim3.Instance = TIM3;
1046:main.c        ****   htim3.Init.Prescaler = 0;
1047:main.c        ****   htim3.Init.CounterMode = TIM_COUNTERMODE_UP;
1048:main.c        ****   htim3.Init.Period = 0;
1049:main.c        ****   htim3.Init.ClockDivision = TIM_CLOCKDIVISION_DIV1;
1050:main.c        ****   htim3.Init.AutoReloadPreload = TIM_AUTORELOAD_PRELOAD_DISABLE;
1051:main.c        ****   if (HAL_TIM_Base_Init(&htim3) != HAL_OK)
1052:main.c        ****   {
1053:main.c        ****     _Error_Handler(__FILE__, __LINE__);
1054:main.c        ****   }
1055:main.c        **** 
1056:main.c        ****   sClockSourceConfig.ClockSource = TIM_CLOCKSOURCE_INTERNAL;
1057:main.c        ****   if (HAL_TIM_ConfigClockSource(&htim3, &sClockSourceConfig) != HAL_OK)
1058:main.c        ****   {
1059:main.c        ****     _Error_Handler(__FILE__, __LINE__);
1060:main.c        ****   }
1061:main.c        **** 
1062:main.c        ****   if (HAL_TIM_PWM_Init(&htim3) != HAL_OK)
1063:main.c        ****   {
1064:main.c        ****     _Error_Handler(__FILE__, __LINE__);
1065:main.c        ****   }
1066:main.c        **** 
1067:main.c        ****   sMasterConfig.MasterOutputTrigger = TIM_TRGO_RESET;
1068:main.c        ****   sMasterConfig.MasterSlaveMode = TIM_MASTERSLAVEMODE_DISABLE;
1069:main.c        ****   if (HAL_TIMEx_MasterConfigSynchronization(&htim3, &sMasterConfig) != HAL_OK)
1070:main.c        ****   {
1071:main.c        ****     _Error_Handler(__FILE__, __LINE__);
1072:main.c        ****   }
1073:main.c        **** 
1074:main.c        ****   sConfigOC.OCMode = TIM_OCMODE_PWM1;
1075:main.c        ****   sConfigOC.Pulse = 0;
1076:main.c        ****   sConfigOC.OCPolarity = TIM_OCPOLARITY_HIGH;
1077:main.c        ****   sConfigOC.OCFastMode = TIM_OCFAST_DISABLE;
ARM GAS  C:\Users\lenovo\AppData\Local\Temp\ccfgRfuq.s 			page 21


1078:main.c        ****   if (HAL_TIM_PWM_ConfigChannel(&htim3, &sConfigOC, TIM_CHANNEL_1) != HAL_OK)
1079:main.c        ****   {
1080:main.c        ****     _Error_Handler(__FILE__, __LINE__);
1081:main.c        ****   }
1082:main.c        **** 
1083:main.c        ****   HAL_TIM_MspPostInit(&htim3);
1084:main.c        **** 
1085:main.c        **** }
1086:main.c        **** 
1087:main.c        **** /* TIM5 init function */
1088:main.c        **** static void MX_TIM5_Init(void)
1089:main.c        **** {
1090:main.c        **** 
1091:main.c        ****   TIM_ClockConfigTypeDef sClockSourceConfig;
1092:main.c        ****   TIM_MasterConfigTypeDef sMasterConfig;
1093:main.c        ****   TIM_OC_InitTypeDef sConfigOC;
1094:main.c        **** 
1095:main.c        ****   htim5.Instance = TIM5;
1096:main.c        ****   htim5.Init.Prescaler = 0;
1097:main.c        ****   htim5.Init.CounterMode = TIM_COUNTERMODE_UP;
1098:main.c        ****   htim5.Init.Period = 0;
1099:main.c        ****   htim5.Init.ClockDivision = TIM_CLOCKDIVISION_DIV1;
1100:main.c        ****   htim5.Init.AutoReloadPreload = TIM_AUTORELOAD_PRELOAD_DISABLE;
1101:main.c        ****   if (HAL_TIM_Base_Init(&htim5) != HAL_OK)
1102:main.c        ****   {
1103:main.c        ****     _Error_Handler(__FILE__, __LINE__);
1104:main.c        ****   }
1105:main.c        **** 
1106:main.c        ****   sClockSourceConfig.ClockSource = TIM_CLOCKSOURCE_INTERNAL;
1107:main.c        ****   if (HAL_TIM_ConfigClockSource(&htim5, &sClockSourceConfig) != HAL_OK)
1108:main.c        ****   {
1109:main.c        ****     _Error_Handler(__FILE__, __LINE__);
1110:main.c        ****   }
1111:main.c        **** 
1112:main.c        ****   if (HAL_TIM_PWM_Init(&htim5) != HAL_OK)
1113:main.c        ****   {
1114:main.c        ****     _Error_Handler(__FILE__, __LINE__);
1115:main.c        ****   }
1116:main.c        **** 
1117:main.c        ****   sMasterConfig.MasterOutputTrigger = TIM_TRGO_RESET;
1118:main.c        ****   sMasterConfig.MasterSlaveMode = TIM_MASTERSLAVEMODE_DISABLE;
1119:main.c        ****   if (HAL_TIMEx_MasterConfigSynchronization(&htim5, &sMasterConfig) != HAL_OK)
1120:main.c        ****   {
1121:main.c        ****     _Error_Handler(__FILE__, __LINE__);
1122:main.c        ****   }
1123:main.c        **** 
1124:main.c        ****   sConfigOC.OCMode = TIM_OCMODE_PWM1;
1125:main.c        ****   sConfigOC.Pulse = 0;
1126:main.c        ****   sConfigOC.OCPolarity = TIM_OCPOLARITY_HIGH;
1127:main.c        ****   sConfigOC.OCFastMode = TIM_OCFAST_DISABLE;
1128:main.c        ****   if (HAL_TIM_PWM_ConfigChannel(&htim5, &sConfigOC, TIM_CHANNEL_4) != HAL_OK)
1129:main.c        ****   {
1130:main.c        ****     _Error_Handler(__FILE__, __LINE__);
1131:main.c        ****   }
1132:main.c        **** 
1133:main.c        ****   HAL_TIM_MspPostInit(&htim5);
1134:main.c        **** 
ARM GAS  C:\Users\lenovo\AppData\Local\Temp\ccfgRfuq.s 			page 22


1135:main.c        **** }
1136:main.c        **** 
1137:main.c        **** /* TIM7 init function */
1138:main.c        **** static void MX_TIM7_Init(void)
1139:main.c        **** {
1140:main.c        **** 
1141:main.c        ****   TIM_MasterConfigTypeDef sMasterConfig;
1142:main.c        **** 
1143:main.c        ****   htim7.Instance = TIM7;
1144:main.c        ****   htim7.Init.Prescaler = 0;
1145:main.c        ****   htim7.Init.CounterMode = TIM_COUNTERMODE_UP;
1146:main.c        ****   htim7.Init.Period = 0;
1147:main.c        ****   htim7.Init.AutoReloadPreload = TIM_AUTORELOAD_PRELOAD_DISABLE;
1148:main.c        ****   if (HAL_TIM_Base_Init(&htim7) != HAL_OK)
1149:main.c        ****   {
1150:main.c        ****     _Error_Handler(__FILE__, __LINE__);
1151:main.c        ****   }
1152:main.c        **** 
1153:main.c        ****   sMasterConfig.MasterOutputTrigger = TIM_TRGO_RESET;
1154:main.c        ****   sMasterConfig.MasterSlaveMode = TIM_MASTERSLAVEMODE_DISABLE;
1155:main.c        ****   if (HAL_TIMEx_MasterConfigSynchronization(&htim7, &sMasterConfig) != HAL_OK)
1156:main.c        ****   {
1157:main.c        ****     _Error_Handler(__FILE__, __LINE__);
1158:main.c        ****   }
1159:main.c        **** 
1160:main.c        **** }
1161:main.c        **** 
1162:main.c        **** /* TIM8 init function */
1163:main.c        **** static void MX_TIM8_Init(void)
1164:main.c        **** {
1165:main.c        **** 
1166:main.c        ****   TIM_ClockConfigTypeDef sClockSourceConfig;
1167:main.c        ****   TIM_MasterConfigTypeDef sMasterConfig;
1168:main.c        **** 
1169:main.c        ****   htim8.Instance = TIM8;
1170:main.c        ****   htim8.Init.Prescaler = 0;
1171:main.c        ****   htim8.Init.CounterMode = TIM_COUNTERMODE_UP;
1172:main.c        ****   htim8.Init.Period = 0;
1173:main.c        ****   htim8.Init.ClockDivision = TIM_CLOCKDIVISION_DIV1;
1174:main.c        ****   htim8.Init.RepetitionCounter = 0;
1175:main.c        ****   htim8.Init.AutoReloadPreload = TIM_AUTORELOAD_PRELOAD_DISABLE;
1176:main.c        ****   if (HAL_TIM_Base_Init(&htim8) != HAL_OK)
1177:main.c        ****   {
1178:main.c        ****     _Error_Handler(__FILE__, __LINE__);
1179:main.c        ****   }
1180:main.c        **** 
1181:main.c        ****   sClockSourceConfig.ClockSource = TIM_CLOCKSOURCE_INTERNAL;
1182:main.c        ****   if (HAL_TIM_ConfigClockSource(&htim8, &sClockSourceConfig) != HAL_OK)
1183:main.c        ****   {
1184:main.c        ****     _Error_Handler(__FILE__, __LINE__);
1185:main.c        ****   }
1186:main.c        **** 
1187:main.c        ****   sMasterConfig.MasterOutputTrigger = TIM_TRGO_RESET;
1188:main.c        ****   sMasterConfig.MasterOutputTrigger2 = TIM_TRGO2_RESET;
1189:main.c        ****   sMasterConfig.MasterSlaveMode = TIM_MASTERSLAVEMODE_DISABLE;
1190:main.c        ****   if (HAL_TIMEx_MasterConfigSynchronization(&htim8, &sMasterConfig) != HAL_OK)
1191:main.c        ****   {
ARM GAS  C:\Users\lenovo\AppData\Local\Temp\ccfgRfuq.s 			page 23


1192:main.c        ****     _Error_Handler(__FILE__, __LINE__);
1193:main.c        ****   }
1194:main.c        **** 
1195:main.c        **** }
1196:main.c        **** 
1197:main.c        **** /* TIM12 init function */
1198:main.c        **** static void MX_TIM12_Init(void)
1199:main.c        **** {
1200:main.c        **** 
1201:main.c        ****   TIM_OC_InitTypeDef sConfigOC;
1202:main.c        **** 
1203:main.c        ****   htim12.Instance = TIM12;
1204:main.c        ****   htim12.Init.Prescaler = 0;
1205:main.c        ****   htim12.Init.CounterMode = TIM_COUNTERMODE_UP;
1206:main.c        ****   htim12.Init.Period = 0;
1207:main.c        ****   htim12.Init.ClockDivision = TIM_CLOCKDIVISION_DIV1;
1208:main.c        ****   htim12.Init.AutoReloadPreload = TIM_AUTORELOAD_PRELOAD_DISABLE;
1209:main.c        ****   if (HAL_TIM_PWM_Init(&htim12) != HAL_OK)
1210:main.c        ****   {
1211:main.c        ****     _Error_Handler(__FILE__, __LINE__);
1212:main.c        ****   }
1213:main.c        **** 
1214:main.c        ****   sConfigOC.OCMode = TIM_OCMODE_PWM1;
1215:main.c        ****   sConfigOC.Pulse = 0;
1216:main.c        ****   sConfigOC.OCPolarity = TIM_OCPOLARITY_HIGH;
1217:main.c        ****   sConfigOC.OCFastMode = TIM_OCFAST_DISABLE;
1218:main.c        ****   if (HAL_TIM_PWM_ConfigChannel(&htim12, &sConfigOC, TIM_CHANNEL_1) != HAL_OK)
1219:main.c        ****   {
1220:main.c        ****     _Error_Handler(__FILE__, __LINE__);
1221:main.c        ****   }
1222:main.c        **** 
1223:main.c        ****   HAL_TIM_MspPostInit(&htim12);
1224:main.c        **** 
1225:main.c        **** }
1226:main.c        **** 
1227:main.c        **** /* USART1 init function */
1228:main.c        **** static void MX_USART1_UART_Init(void)
1229:main.c        **** {
1230:main.c        **** 
1231:main.c        ****   huart1.Instance = USART1;
1232:main.c        ****   huart1.Init.BaudRate = 115200;
1233:main.c        ****   huart1.Init.WordLength = UART_WORDLENGTH_8B;
1234:main.c        ****   huart1.Init.StopBits = UART_STOPBITS_1;
1235:main.c        ****   huart1.Init.Parity = UART_PARITY_NONE;
1236:main.c        ****   huart1.Init.Mode = UART_MODE_TX_RX;
1237:main.c        ****   huart1.Init.HwFlowCtl = UART_HWCONTROL_NONE;
1238:main.c        ****   huart1.Init.OverSampling = UART_OVERSAMPLING_16;
1239:main.c        ****   huart1.Init.OneBitSampling = UART_ONE_BIT_SAMPLE_DISABLE;
1240:main.c        ****   huart1.AdvancedInit.AdvFeatureInit = UART_ADVFEATURE_NO_INIT;
1241:main.c        ****   if (HAL_UART_Init(&huart1) != HAL_OK)
1242:main.c        ****   {
1243:main.c        ****     _Error_Handler(__FILE__, __LINE__);
1244:main.c        ****   }
1245:main.c        **** 
1246:main.c        **** }
1247:main.c        **** 
1248:main.c        **** /* USART6 init function */
ARM GAS  C:\Users\lenovo\AppData\Local\Temp\ccfgRfuq.s 			page 24


1249:main.c        **** static void MX_USART6_UART_Init(void)
1250:main.c        **** {
1251:main.c        **** 
1252:main.c        ****   huart6.Instance = USART6;
1253:main.c        ****   huart6.Init.BaudRate = 115200;
1254:main.c        ****   huart6.Init.WordLength = UART_WORDLENGTH_8B;
1255:main.c        ****   huart6.Init.StopBits = UART_STOPBITS_1;
1256:main.c        ****   huart6.Init.Parity = UART_PARITY_NONE;
1257:main.c        ****   huart6.Init.Mode = UART_MODE_TX_RX;
1258:main.c        ****   huart6.Init.HwFlowCtl = UART_HWCONTROL_NONE;
1259:main.c        ****   huart6.Init.OverSampling = UART_OVERSAMPLING_16;
1260:main.c        ****   huart6.Init.OneBitSampling = UART_ONE_BIT_SAMPLE_DISABLE;
1261:main.c        ****   huart6.AdvancedInit.AdvFeatureInit = UART_ADVFEATURE_NO_INIT;
1262:main.c        ****   if (HAL_UART_Init(&huart6) != HAL_OK)
1263:main.c        ****   {
1264:main.c        ****     _Error_Handler(__FILE__, __LINE__);
1265:main.c        ****   }
1266:main.c        **** 
1267:main.c        **** }
1268:main.c        **** 
1269:main.c        **** /* FMC initialization function */
1270:main.c        **** static void MX_FMC_Init(void)
1271:main.c        **** {
1272:main.c        ****   FMC_SDRAM_TimingTypeDef SdramTiming;
1273:main.c        **** 
1274:main.c        ****   /** Perform the SDRAM1 memory initialization sequence
1275:main.c        ****   */
1276:main.c        ****   hsdram1.Instance = FMC_SDRAM_DEVICE;
1277:main.c        ****   /* hsdram1.Init */
1278:main.c        ****   hsdram1.Init.SDBank = FMC_SDRAM_BANK1;
1279:main.c        ****   hsdram1.Init.ColumnBitsNumber = FMC_SDRAM_COLUMN_BITS_NUM_8;
1280:main.c        ****   hsdram1.Init.RowBitsNumber = FMC_SDRAM_ROW_BITS_NUM_12;
1281:main.c        ****   hsdram1.Init.MemoryDataWidth = FMC_SDRAM_MEM_BUS_WIDTH_16;
1282:main.c        ****   hsdram1.Init.InternalBankNumber = FMC_SDRAM_INTERN_BANKS_NUM_4;
1283:main.c        ****   hsdram1.Init.CASLatency = FMC_SDRAM_CAS_LATENCY_3;
1284:main.c        ****   hsdram1.Init.WriteProtection = FMC_SDRAM_WRITE_PROTECTION_DISABLE;
1285:main.c        ****   hsdram1.Init.SDClockPeriod = FMC_SDRAM_CLOCK_PERIOD_2;
1286:main.c        ****   hsdram1.Init.ReadBurst = FMC_SDRAM_RBURST_ENABLE;
1287:main.c        ****   hsdram1.Init.ReadPipeDelay = FMC_SDRAM_RPIPE_DELAY_0;
1288:main.c        ****   /* SdramTiming */
1289:main.c        ****   SdramTiming.LoadToActiveDelay = 2;
1290:main.c        ****   SdramTiming.ExitSelfRefreshDelay = 7;
1291:main.c        ****   SdramTiming.SelfRefreshTime = 4;
1292:main.c        ****   SdramTiming.RowCycleDelay = 7;
1293:main.c        ****   SdramTiming.WriteRecoveryTime = 3;
1294:main.c        ****   SdramTiming.RPDelay = 2;
1295:main.c        ****   SdramTiming.RCDDelay = 2;
1296:main.c        **** 
1297:main.c        ****   if (HAL_SDRAM_Init(&hsdram1, &SdramTiming) != HAL_OK)
1298:main.c        ****   {
1299:main.c        ****     _Error_Handler(__FILE__, __LINE__);
1300:main.c        ****   }
1301:main.c        **** 
1302:main.c        **** }
1303:main.c        **** 
1304:main.c        **** /** Configure pins as 
1305:main.c        ****         * Analog 
ARM GAS  C:\Users\lenovo\AppData\Local\Temp\ccfgRfuq.s 			page 25


1306:main.c        ****         * Input 
1307:main.c        ****         * Output
1308:main.c        ****         * EVENT_OUT
1309:main.c        ****         * EXTI
1310:main.c        ****      PB5   ------> USB_OTG_HS_ULPI_D7
1311:main.c        ****      PH4   ------> USB_OTG_HS_ULPI_NXT
1312:main.c        ****      PB13   ------> USB_OTG_HS_ULPI_D6
1313:main.c        ****      PB12   ------> USB_OTG_HS_ULPI_D5
1314:main.c        ****      PC0   ------> USB_OTG_HS_ULPI_STP
1315:main.c        ****      PC2   ------> USB_OTG_HS_ULPI_DIR
1316:main.c        ****      PA5   ------> USB_OTG_HS_ULPI_CK
1317:main.c        ****      PB10   ------> USB_OTG_HS_ULPI_D3
1318:main.c        ****      PA3   ------> USB_OTG_HS_ULPI_D0
1319:main.c        ****      PB1   ------> USB_OTG_HS_ULPI_D2
1320:main.c        ****      PB0   ------> USB_OTG_HS_ULPI_D1
1321:main.c        ****      PB11   ------> USB_OTG_HS_ULPI_D4
1322:main.c        **** */
1323:main.c        **** static void MX_GPIO_Init(void)
1324:main.c        **** {
  67              		.loc 1 1324 0
  68              		.cfi_startproc
  69              		@ args = 0, pretend = 0, frame = 64
  70              		@ frame_needed = 0, uses_anonymous_args = 0
  71 0000 2DE9F04F 		push	{r4, r5, r6, r7, r8, r9, r10, fp, lr}
  72              	.LCFI0:
  73              		.cfi_def_cfa_offset 36
  74              		.cfi_offset 4, -36
  75              		.cfi_offset 5, -32
  76              		.cfi_offset 6, -28
  77              		.cfi_offset 7, -24
  78              		.cfi_offset 8, -20
  79              		.cfi_offset 9, -16
  80              		.cfi_offset 10, -12
  81              		.cfi_offset 11, -8
  82              		.cfi_offset 14, -4
  83 0004 91B0     		sub	sp, sp, #68
  84              	.LCFI1:
  85              		.cfi_def_cfa_offset 104
  86              	.LBB2:
1325:main.c        **** 
1326:main.c        ****   GPIO_InitTypeDef GPIO_InitStruct;
1327:main.c        **** 
1328:main.c        ****   /* GPIO Ports Clock Enable */
1329:main.c        ****   __HAL_RCC_GPIOE_CLK_ENABLE();
  87              		.loc 1 1329 0
  88 0006 9A4B     		ldr	r3, .L6
  89 0008 1A6B     		ldr	r2, [r3, #48]
  90 000a 42F01002 		orr	r2, r2, #16
  91 000e 1A63     		str	r2, [r3, #48]
  92 0010 1A6B     		ldr	r2, [r3, #48]
  93 0012 02F01002 		and	r2, r2, #16
  94 0016 0092     		str	r2, [sp]
  95 0018 009A     		ldr	r2, [sp]
  96              	.LBE2:
  97              	.LBB3:
1330:main.c        ****   __HAL_RCC_GPIOG_CLK_ENABLE();
  98              		.loc 1 1330 0
ARM GAS  C:\Users\lenovo\AppData\Local\Temp\ccfgRfuq.s 			page 26


  99 001a 1A6B     		ldr	r2, [r3, #48]
 100 001c 42F04002 		orr	r2, r2, #64
 101 0020 1A63     		str	r2, [r3, #48]
 102 0022 1A6B     		ldr	r2, [r3, #48]
 103 0024 02F04002 		and	r2, r2, #64
 104 0028 0192     		str	r2, [sp, #4]
 105 002a 019A     		ldr	r2, [sp, #4]
 106              	.LBE3:
 107              	.LBB4:
1331:main.c        ****   __HAL_RCC_GPIOB_CLK_ENABLE();
 108              		.loc 1 1331 0
 109 002c 1A6B     		ldr	r2, [r3, #48]
 110 002e 42F00202 		orr	r2, r2, #2
 111 0032 1A63     		str	r2, [r3, #48]
 112 0034 1A6B     		ldr	r2, [r3, #48]
 113 0036 02F00202 		and	r2, r2, #2
 114 003a 0292     		str	r2, [sp, #8]
 115 003c 029A     		ldr	r2, [sp, #8]
 116              	.LBE4:
 117              	.LBB5:
1332:main.c        ****   __HAL_RCC_GPIOD_CLK_ENABLE();
 118              		.loc 1 1332 0
 119 003e 1A6B     		ldr	r2, [r3, #48]
 120 0040 42F00802 		orr	r2, r2, #8
 121 0044 1A63     		str	r2, [r3, #48]
 122 0046 1A6B     		ldr	r2, [r3, #48]
 123 0048 02F00802 		and	r2, r2, #8
 124 004c 0392     		str	r2, [sp, #12]
 125 004e 039A     		ldr	r2, [sp, #12]
 126              	.LBE5:
 127              	.LBB6:
1333:main.c        ****   __HAL_RCC_GPIOC_CLK_ENABLE();
 128              		.loc 1 1333 0
 129 0050 1A6B     		ldr	r2, [r3, #48]
 130 0052 42F00402 		orr	r2, r2, #4
 131 0056 1A63     		str	r2, [r3, #48]
 132 0058 1A6B     		ldr	r2, [r3, #48]
 133 005a 02F00402 		and	r2, r2, #4
 134 005e 0492     		str	r2, [sp, #16]
 135 0060 049A     		ldr	r2, [sp, #16]
 136              	.LBE6:
 137              	.LBB7:
1334:main.c        ****   __HAL_RCC_GPIOA_CLK_ENABLE();
 138              		.loc 1 1334 0
 139 0062 1A6B     		ldr	r2, [r3, #48]
 140 0064 42F00102 		orr	r2, r2, #1
 141 0068 1A63     		str	r2, [r3, #48]
 142 006a 1A6B     		ldr	r2, [r3, #48]
 143 006c 02F00102 		and	r2, r2, #1
 144 0070 0592     		str	r2, [sp, #20]
 145 0072 059A     		ldr	r2, [sp, #20]
 146              	.LBE7:
 147              	.LBB8:
1335:main.c        ****   __HAL_RCC_GPIOJ_CLK_ENABLE();
 148              		.loc 1 1335 0
 149 0074 1A6B     		ldr	r2, [r3, #48]
 150 0076 42F40072 		orr	r2, r2, #512
ARM GAS  C:\Users\lenovo\AppData\Local\Temp\ccfgRfuq.s 			page 27


 151 007a 1A63     		str	r2, [r3, #48]
 152 007c 1A6B     		ldr	r2, [r3, #48]
 153 007e 02F40072 		and	r2, r2, #512
 154 0082 0692     		str	r2, [sp, #24]
 155 0084 069A     		ldr	r2, [sp, #24]
 156              	.LBE8:
 157              	.LBB9:
1336:main.c        ****   __HAL_RCC_GPIOI_CLK_ENABLE();
 158              		.loc 1 1336 0
 159 0086 1A6B     		ldr	r2, [r3, #48]
 160 0088 42F48072 		orr	r2, r2, #256
 161 008c 1A63     		str	r2, [r3, #48]
 162 008e 1A6B     		ldr	r2, [r3, #48]
 163 0090 02F48072 		and	r2, r2, #256
 164 0094 0792     		str	r2, [sp, #28]
 165 0096 079A     		ldr	r2, [sp, #28]
 166              	.LBE9:
 167              	.LBB10:
1337:main.c        ****   __HAL_RCC_GPIOK_CLK_ENABLE();
 168              		.loc 1 1337 0
 169 0098 1A6B     		ldr	r2, [r3, #48]
 170 009a 42F48062 		orr	r2, r2, #1024
 171 009e 1A63     		str	r2, [r3, #48]
 172 00a0 1A6B     		ldr	r2, [r3, #48]
 173 00a2 02F48062 		and	r2, r2, #1024
 174 00a6 0892     		str	r2, [sp, #32]
 175 00a8 089A     		ldr	r2, [sp, #32]
 176              	.LBE10:
 177              	.LBB11:
1338:main.c        ****   __HAL_RCC_GPIOF_CLK_ENABLE();
 178              		.loc 1 1338 0
 179 00aa 1A6B     		ldr	r2, [r3, #48]
 180 00ac 42F02002 		orr	r2, r2, #32
 181 00b0 1A63     		str	r2, [r3, #48]
 182 00b2 1A6B     		ldr	r2, [r3, #48]
 183 00b4 02F02002 		and	r2, r2, #32
 184 00b8 0992     		str	r2, [sp, #36]
 185 00ba 099A     		ldr	r2, [sp, #36]
 186              	.LBE11:
 187              	.LBB12:
1339:main.c        ****   __HAL_RCC_GPIOH_CLK_ENABLE();
 188              		.loc 1 1339 0
 189 00bc 1A6B     		ldr	r2, [r3, #48]
 190 00be 42F08002 		orr	r2, r2, #128
 191 00c2 1A63     		str	r2, [r3, #48]
 192 00c4 1B6B     		ldr	r3, [r3, #48]
 193 00c6 03F08003 		and	r3, r3, #128
 194 00ca 0A93     		str	r3, [sp, #40]
 195 00cc 0A9B     		ldr	r3, [sp, #40]
 196              	.LBE12:
1340:main.c        **** 
1341:main.c        ****   /*Configure GPIO pin Output Level */
1342:main.c        ****   HAL_GPIO_WritePin(OTG_FS_PowerSwitchOn_GPIO_Port, OTG_FS_PowerSwitchOn_Pin, GPIO_PIN_SET);
 197              		.loc 1 1342 0
 198 00ce 0122     		movs	r2, #1
 199 00d0 2021     		movs	r1, #32
 200 00d2 6848     		ldr	r0, .L6+4
ARM GAS  C:\Users\lenovo\AppData\Local\Temp\ccfgRfuq.s 			page 28


 201 00d4 FFF7FEFF 		bl	HAL_GPIO_WritePin
 202              	.LVL0:
1343:main.c        **** 
1344:main.c        ****   /*Configure GPIO pin Output Level */
1345:main.c        ****   HAL_GPIO_WritePin(GPIOI, ARDUINO_D7_Pin|ARDUINO_D8_Pin, GPIO_PIN_RESET);
 203              		.loc 1 1345 0
 204 00d8 0022     		movs	r2, #0
 205 00da 0C21     		movs	r1, #12
 206 00dc 6648     		ldr	r0, .L6+8
 207 00de FFF7FEFF 		bl	HAL_GPIO_WritePin
 208              	.LVL1:
1346:main.c        **** 
1347:main.c        ****   /*Configure GPIO pin Output Level */
1348:main.c        ****   HAL_GPIO_WritePin(LCD_BL_CTRL_GPIO_Port, LCD_BL_CTRL_Pin, GPIO_PIN_SET);
 209              		.loc 1 1348 0
 210 00e2 0122     		movs	r2, #1
 211 00e4 0821     		movs	r1, #8
 212 00e6 6548     		ldr	r0, .L6+12
 213 00e8 FFF7FEFF 		bl	HAL_GPIO_WritePin
 214              	.LVL2:
1349:main.c        **** 
1350:main.c        ****   /*Configure GPIO pin Output Level */
1351:main.c        ****   HAL_GPIO_WritePin(LCD_DISP_GPIO_Port, LCD_DISP_Pin, GPIO_PIN_SET);
 215              		.loc 1 1351 0
 216 00ec 0122     		movs	r2, #1
 217 00ee 4FF48051 		mov	r1, #4096
 218 00f2 6148     		ldr	r0, .L6+8
 219 00f4 FFF7FEFF 		bl	HAL_GPIO_WritePin
 220              	.LVL3:
1352:main.c        **** 
1353:main.c        ****   /*Configure GPIO pin Output Level */
1354:main.c        ****   HAL_GPIO_WritePin(DCMI_PWR_EN_GPIO_Port, DCMI_PWR_EN_Pin, GPIO_PIN_RESET);
 221              		.loc 1 1354 0
 222 00f8 0022     		movs	r2, #0
 223 00fa 4FF40051 		mov	r1, #8192
 224 00fe 6048     		ldr	r0, .L6+16
 225 0100 FFF7FEFF 		bl	HAL_GPIO_WritePin
 226              	.LVL4:
1355:main.c        **** 
1356:main.c        ****   /*Configure GPIO pin Output Level */
1357:main.c        ****   HAL_GPIO_WritePin(GPIOG, ARDUINO_D4_Pin|ARDUINO_D2_Pin|EXT_RST_Pin, GPIO_PIN_RESET);
 227              		.loc 1 1357 0
 228 0104 0022     		movs	r2, #0
 229 0106 C821     		movs	r1, #200
 230 0108 5E48     		ldr	r0, .L6+20
 231 010a FFF7FEFF 		bl	HAL_GPIO_WritePin
 232              	.LVL5:
1358:main.c        **** 
1359:main.c        ****   /*Configure GPIO pin : OTG_HS_OverCurrent_Pin */
1360:main.c        ****   GPIO_InitStruct.Pin = OTG_HS_OverCurrent_Pin;
 233              		.loc 1 1360 0
 234 010e 4FF0080A 		mov	r10, #8
 235 0112 CDF82CA0 		str	r10, [sp, #44]
1361:main.c        ****   GPIO_InitStruct.Mode = GPIO_MODE_INPUT;
 236              		.loc 1 1361 0
 237 0116 0024     		movs	r4, #0
 238 0118 0C94     		str	r4, [sp, #48]
ARM GAS  C:\Users\lenovo\AppData\Local\Temp\ccfgRfuq.s 			page 29


1362:main.c        ****   GPIO_InitStruct.Pull = GPIO_NOPULL;
 239              		.loc 1 1362 0
 240 011a 0D94     		str	r4, [sp, #52]
1363:main.c        ****   HAL_GPIO_Init(OTG_HS_OverCurrent_GPIO_Port, &GPIO_InitStruct);
 241              		.loc 1 1363 0
 242 011c 0BA9     		add	r1, sp, #44
 243 011e 5A48     		ldr	r0, .L6+24
 244 0120 FFF7FEFF 		bl	HAL_GPIO_Init
 245              	.LVL6:
1364:main.c        **** 
1365:main.c        ****   /*Configure GPIO pins : ULPI_D7_Pin ULPI_D6_Pin ULPI_D5_Pin ULPI_D3_Pin 
1366:main.c        ****                            ULPI_D2_Pin ULPI_D1_Pin ULPI_D4_Pin */
1367:main.c        ****   GPIO_InitStruct.Pin = ULPI_D7_Pin|ULPI_D6_Pin|ULPI_D5_Pin|ULPI_D3_Pin 
 246              		.loc 1 1367 0
 247 0124 43F62343 		movw	r3, #15395
 248 0128 0B93     		str	r3, [sp, #44]
1368:main.c        ****                           |ULPI_D2_Pin|ULPI_D1_Pin|ULPI_D4_Pin;
1369:main.c        ****   GPIO_InitStruct.Mode = GPIO_MODE_AF_PP;
 249              		.loc 1 1369 0
 250 012a 4FF00208 		mov	r8, #2
 251 012e CDF83080 		str	r8, [sp, #48]
1370:main.c        ****   GPIO_InitStruct.Pull = GPIO_NOPULL;
 252              		.loc 1 1370 0
 253 0132 0D94     		str	r4, [sp, #52]
1371:main.c        ****   GPIO_InitStruct.Speed = GPIO_SPEED_FREQ_VERY_HIGH;
 254              		.loc 1 1371 0
 255 0134 0327     		movs	r7, #3
 256 0136 0E97     		str	r7, [sp, #56]
1372:main.c        ****   GPIO_InitStruct.Alternate = GPIO_AF10_OTG_HS;
 257              		.loc 1 1372 0
 258 0138 0A26     		movs	r6, #10
 259 013a 0F96     		str	r6, [sp, #60]
1373:main.c        ****   HAL_GPIO_Init(GPIOB, &GPIO_InitStruct);
 260              		.loc 1 1373 0
 261 013c 0BA9     		add	r1, sp, #44
 262 013e 5348     		ldr	r0, .L6+28
 263 0140 FFF7FEFF 		bl	HAL_GPIO_Init
 264              	.LVL7:
1374:main.c        **** 
1375:main.c        ****   /*Configure GPIO pin : OTG_FS_VBUS_Pin */
1376:main.c        ****   GPIO_InitStruct.Pin = OTG_FS_VBUS_Pin;
 265              		.loc 1 1376 0
 266 0144 4FF48053 		mov	r3, #4096
 267 0148 0B93     		str	r3, [sp, #44]
1377:main.c        ****   GPIO_InitStruct.Mode = GPIO_MODE_INPUT;
 268              		.loc 1 1377 0
 269 014a 0C94     		str	r4, [sp, #48]
1378:main.c        ****   GPIO_InitStruct.Pull = GPIO_NOPULL;
 270              		.loc 1 1378 0
 271 014c 0D94     		str	r4, [sp, #52]
1379:main.c        ****   HAL_GPIO_Init(OTG_FS_VBUS_GPIO_Port, &GPIO_InitStruct);
 272              		.loc 1 1379 0
 273 014e 0BA9     		add	r1, sp, #44
 274 0150 4F48     		ldr	r0, .L6+32
 275 0152 FFF7FEFF 		bl	HAL_GPIO_Init
 276              	.LVL8:
1380:main.c        **** 
ARM GAS  C:\Users\lenovo\AppData\Local\Temp\ccfgRfuq.s 			page 30


1381:main.c        ****   /*Configure GPIO pin : Audio_INT_Pin */
1382:main.c        ****   GPIO_InitStruct.Pin = Audio_INT_Pin;
 277              		.loc 1 1382 0
 278 0156 4023     		movs	r3, #64
 279 0158 0B93     		str	r3, [sp, #44]
1383:main.c        ****   GPIO_InitStruct.Mode = GPIO_MODE_EVT_RISING;
 280              		.loc 1 1383 0
 281 015a DFF840B1 		ldr	fp, .L6+44
 282 015e CDF830B0 		str	fp, [sp, #48]
1384:main.c        ****   GPIO_InitStruct.Pull = GPIO_NOPULL;
 283              		.loc 1 1384 0
 284 0162 0D94     		str	r4, [sp, #52]
1385:main.c        ****   HAL_GPIO_Init(Audio_INT_GPIO_Port, &GPIO_InitStruct);
 285              		.loc 1 1385 0
 286 0164 0BA9     		add	r1, sp, #44
 287 0166 4348     		ldr	r0, .L6+4
 288 0168 FFF7FEFF 		bl	HAL_GPIO_Init
 289              	.LVL9:
1386:main.c        **** 
1387:main.c        ****   /*Configure GPIO pin : OTG_FS_PowerSwitchOn_Pin */
1388:main.c        ****   GPIO_InitStruct.Pin = OTG_FS_PowerSwitchOn_Pin;
 290              		.loc 1 1388 0
 291 016c 2023     		movs	r3, #32
 292 016e 0B93     		str	r3, [sp, #44]
1389:main.c        ****   GPIO_InitStruct.Mode = GPIO_MODE_OUTPUT_PP;
 293              		.loc 1 1389 0
 294 0170 0125     		movs	r5, #1
 295 0172 0C95     		str	r5, [sp, #48]
1390:main.c        ****   GPIO_InitStruct.Pull = GPIO_NOPULL;
 296              		.loc 1 1390 0
 297 0174 0D94     		str	r4, [sp, #52]
1391:main.c        ****   GPIO_InitStruct.Speed = GPIO_SPEED_FREQ_LOW;
 298              		.loc 1 1391 0
 299 0176 0E94     		str	r4, [sp, #56]
1392:main.c        ****   HAL_GPIO_Init(OTG_FS_PowerSwitchOn_GPIO_Port, &GPIO_InitStruct);
 300              		.loc 1 1392 0
 301 0178 0BA9     		add	r1, sp, #44
 302 017a 3E48     		ldr	r0, .L6+4
 303 017c FFF7FEFF 		bl	HAL_GPIO_Init
 304              	.LVL10:
1393:main.c        **** 
1394:main.c        ****   /*Configure GPIO pins : ARDUINO_D7_Pin ARDUINO_D8_Pin LCD_DISP_Pin */
1395:main.c        ****   GPIO_InitStruct.Pin = ARDUINO_D7_Pin|ARDUINO_D8_Pin|LCD_DISP_Pin;
 305              		.loc 1 1395 0
 306 0180 41F20C03 		movw	r3, #4108
 307 0184 0B93     		str	r3, [sp, #44]
1396:main.c        ****   GPIO_InitStruct.Mode = GPIO_MODE_OUTPUT_PP;
 308              		.loc 1 1396 0
 309 0186 0C95     		str	r5, [sp, #48]
1397:main.c        ****   GPIO_InitStruct.Pull = GPIO_NOPULL;
 310              		.loc 1 1397 0
 311 0188 0D94     		str	r4, [sp, #52]
1398:main.c        ****   GPIO_InitStruct.Speed = GPIO_SPEED_FREQ_LOW;
 312              		.loc 1 1398 0
 313 018a 0E94     		str	r4, [sp, #56]
1399:main.c        ****   HAL_GPIO_Init(GPIOI, &GPIO_InitStruct);
 314              		.loc 1 1399 0
ARM GAS  C:\Users\lenovo\AppData\Local\Temp\ccfgRfuq.s 			page 31


 315 018c 0BA9     		add	r1, sp, #44
 316 018e 3A48     		ldr	r0, .L6+8
 317 0190 FFF7FEFF 		bl	HAL_GPIO_Init
 318              	.LVL11:
1400:main.c        **** 
1401:main.c        ****   /*Configure GPIO pin : uSD_Detect_Pin */
1402:main.c        ****   GPIO_InitStruct.Pin = uSD_Detect_Pin;
 319              		.loc 1 1402 0
 320 0194 4FF40059 		mov	r9, #8192
 321 0198 CDF82C90 		str	r9, [sp, #44]
1403:main.c        ****   GPIO_InitStruct.Mode = GPIO_MODE_INPUT;
 322              		.loc 1 1403 0
 323 019c 0C94     		str	r4, [sp, #48]
1404:main.c        ****   GPIO_InitStruct.Pull = GPIO_NOPULL;
 324              		.loc 1 1404 0
 325 019e 0D94     		str	r4, [sp, #52]
1405:main.c        ****   HAL_GPIO_Init(uSD_Detect_GPIO_Port, &GPIO_InitStruct);
 326              		.loc 1 1405 0
 327 01a0 0BA9     		add	r1, sp, #44
 328 01a2 3C48     		ldr	r0, .L6+36
 329 01a4 FFF7FEFF 		bl	HAL_GPIO_Init
 330              	.LVL12:
1406:main.c        **** 
1407:main.c        ****   /*Configure GPIO pin : LCD_BL_CTRL_Pin */
1408:main.c        ****   GPIO_InitStruct.Pin = LCD_BL_CTRL_Pin;
 331              		.loc 1 1408 0
 332 01a8 CDF82CA0 		str	r10, [sp, #44]
1409:main.c        ****   GPIO_InitStruct.Mode = GPIO_MODE_OUTPUT_PP;
 333              		.loc 1 1409 0
 334 01ac 0C95     		str	r5, [sp, #48]
1410:main.c        ****   GPIO_InitStruct.Pull = GPIO_NOPULL;
 335              		.loc 1 1410 0
 336 01ae 0D94     		str	r4, [sp, #52]
1411:main.c        ****   GPIO_InitStruct.Speed = GPIO_SPEED_FREQ_LOW;
 337              		.loc 1 1411 0
 338 01b0 0E94     		str	r4, [sp, #56]
1412:main.c        ****   HAL_GPIO_Init(LCD_BL_CTRL_GPIO_Port, &GPIO_InitStruct);
 339              		.loc 1 1412 0
 340 01b2 0BA9     		add	r1, sp, #44
 341 01b4 3148     		ldr	r0, .L6+12
 342 01b6 FFF7FEFF 		bl	HAL_GPIO_Init
 343              	.LVL13:
1413:main.c        **** 
1414:main.c        ****   /*Configure GPIO pin : OTG_FS_OverCurrent_Pin */
1415:main.c        ****   GPIO_InitStruct.Pin = OTG_FS_OverCurrent_Pin;
 344              		.loc 1 1415 0
 345 01ba 4FF0100A 		mov	r10, #16
 346 01be CDF82CA0 		str	r10, [sp, #44]
1416:main.c        ****   GPIO_InitStruct.Mode = GPIO_MODE_INPUT;
 347              		.loc 1 1416 0
 348 01c2 0C94     		str	r4, [sp, #48]
1417:main.c        ****   GPIO_InitStruct.Pull = GPIO_NOPULL;
 349              		.loc 1 1417 0
 350 01c4 0D94     		str	r4, [sp, #52]
1418:main.c        ****   HAL_GPIO_Init(OTG_FS_OverCurrent_GPIO_Port, &GPIO_InitStruct);
 351              		.loc 1 1418 0
 352 01c6 0BA9     		add	r1, sp, #44
ARM GAS  C:\Users\lenovo\AppData\Local\Temp\ccfgRfuq.s 			page 32


 353 01c8 2A48     		ldr	r0, .L6+4
 354 01ca FFF7FEFF 		bl	HAL_GPIO_Init
 355              	.LVL14:
1419:main.c        **** 
1420:main.c        ****   /*Configure GPIO pins : TP3_Pin NC2_Pin */
1421:main.c        ****   GPIO_InitStruct.Pin = TP3_Pin|NC2_Pin;
 356              		.loc 1 1421 0
 357 01ce 48F20403 		movw	r3, #32772
 358 01d2 0B93     		str	r3, [sp, #44]
1422:main.c        ****   GPIO_InitStruct.Mode = GPIO_MODE_INPUT;
 359              		.loc 1 1422 0
 360 01d4 0C94     		str	r4, [sp, #48]
1423:main.c        ****   GPIO_InitStruct.Pull = GPIO_NOPULL;
 361              		.loc 1 1423 0
 362 01d6 0D94     		str	r4, [sp, #52]
1424:main.c        ****   HAL_GPIO_Init(GPIOH, &GPIO_InitStruct);
 363              		.loc 1 1424 0
 364 01d8 0BA9     		add	r1, sp, #44
 365 01da 2948     		ldr	r0, .L6+16
 366 01dc FFF7FEFF 		bl	HAL_GPIO_Init
 367              	.LVL15:
1425:main.c        **** 
1426:main.c        ****   /*Configure GPIO pin : DCMI_PWR_EN_Pin */
1427:main.c        ****   GPIO_InitStruct.Pin = DCMI_PWR_EN_Pin;
 368              		.loc 1 1427 0
 369 01e0 CDF82C90 		str	r9, [sp, #44]
1428:main.c        ****   GPIO_InitStruct.Mode = GPIO_MODE_OUTPUT_PP;
 370              		.loc 1 1428 0
 371 01e4 0C95     		str	r5, [sp, #48]
1429:main.c        ****   GPIO_InitStruct.Pull = GPIO_NOPULL;
 372              		.loc 1 1429 0
 373 01e6 0D94     		str	r4, [sp, #52]
1430:main.c        ****   GPIO_InitStruct.Speed = GPIO_SPEED_FREQ_LOW;
 374              		.loc 1 1430 0
 375 01e8 0E94     		str	r4, [sp, #56]
1431:main.c        ****   HAL_GPIO_Init(DCMI_PWR_EN_GPIO_Port, &GPIO_InitStruct);
 376              		.loc 1 1431 0
 377 01ea 0BA9     		add	r1, sp, #44
 378 01ec 2448     		ldr	r0, .L6+16
 379 01ee FFF7FEFF 		bl	HAL_GPIO_Init
 380              	.LVL16:
1432:main.c        **** 
1433:main.c        ****   /*Configure GPIO pin : LCD_INT_Pin */
1434:main.c        ****   GPIO_InitStruct.Pin = LCD_INT_Pin;
 381              		.loc 1 1434 0
 382 01f2 CDF82C90 		str	r9, [sp, #44]
1435:main.c        ****   GPIO_InitStruct.Mode = GPIO_MODE_EVT_RISING;
 383              		.loc 1 1435 0
 384 01f6 CDF830B0 		str	fp, [sp, #48]
1436:main.c        ****   GPIO_InitStruct.Pull = GPIO_NOPULL;
 385              		.loc 1 1436 0
 386 01fa 0D94     		str	r4, [sp, #52]
1437:main.c        ****   HAL_GPIO_Init(LCD_INT_GPIO_Port, &GPIO_InitStruct);
 387              		.loc 1 1437 0
 388 01fc 0BA9     		add	r1, sp, #44
 389 01fe 1E48     		ldr	r0, .L6+8
 390 0200 FFF7FEFF 		bl	HAL_GPIO_Init
ARM GAS  C:\Users\lenovo\AppData\Local\Temp\ccfgRfuq.s 			page 33


 391              	.LVL17:
1438:main.c        **** 
1439:main.c        ****   /*Configure GPIO pin : ULPI_NXT_Pin */
1440:main.c        ****   GPIO_InitStruct.Pin = ULPI_NXT_Pin;
 392              		.loc 1 1440 0
 393 0204 CDF82CA0 		str	r10, [sp, #44]
1441:main.c        ****   GPIO_InitStruct.Mode = GPIO_MODE_AF_PP;
 394              		.loc 1 1441 0
 395 0208 CDF83080 		str	r8, [sp, #48]
1442:main.c        ****   GPIO_InitStruct.Pull = GPIO_NOPULL;
 396              		.loc 1 1442 0
 397 020c 0D94     		str	r4, [sp, #52]
1443:main.c        ****   GPIO_InitStruct.Speed = GPIO_SPEED_FREQ_VERY_HIGH;
 398              		.loc 1 1443 0
 399 020e 0E97     		str	r7, [sp, #56]
1444:main.c        ****   GPIO_InitStruct.Alternate = GPIO_AF10_OTG_HS;
 400              		.loc 1 1444 0
 401 0210 0F96     		str	r6, [sp, #60]
1445:main.c        ****   HAL_GPIO_Init(ULPI_NXT_GPIO_Port, &GPIO_InitStruct);
 402              		.loc 1 1445 0
 403 0212 0BA9     		add	r1, sp, #44
 404 0214 1A48     		ldr	r0, .L6+16
 405 0216 FFF7FEFF 		bl	HAL_GPIO_Init
 406              	.LVL18:
1446:main.c        **** 
1447:main.c        ****   /*Configure GPIO pins : ARDUINO_D4_Pin ARDUINO_D2_Pin EXT_RST_Pin */
1448:main.c        ****   GPIO_InitStruct.Pin = ARDUINO_D4_Pin|ARDUINO_D2_Pin|EXT_RST_Pin;
 407              		.loc 1 1448 0
 408 021a C823     		movs	r3, #200
 409 021c 0B93     		str	r3, [sp, #44]
1449:main.c        ****   GPIO_InitStruct.Mode = GPIO_MODE_OUTPUT_PP;
 410              		.loc 1 1449 0
 411 021e 0C95     		str	r5, [sp, #48]
1450:main.c        ****   GPIO_InitStruct.Pull = GPIO_NOPULL;
 412              		.loc 1 1450 0
 413 0220 0D94     		str	r4, [sp, #52]
1451:main.c        ****   GPIO_InitStruct.Speed = GPIO_SPEED_FREQ_LOW;
 414              		.loc 1 1451 0
 415 0222 0E94     		str	r4, [sp, #56]
1452:main.c        ****   HAL_GPIO_Init(GPIOG, &GPIO_InitStruct);
 416              		.loc 1 1452 0
 417 0224 0BA9     		add	r1, sp, #44
 418 0226 1748     		ldr	r0, .L6+20
 419 0228 FFF7FEFF 		bl	HAL_GPIO_Init
 420              	.LVL19:
1453:main.c        **** 
1454:main.c        ****   /*Configure GPIO pins : ULPI_STP_Pin ULPI_DIR_Pin */
1455:main.c        ****   GPIO_InitStruct.Pin = ULPI_STP_Pin|ULPI_DIR_Pin;
 421              		.loc 1 1455 0
 422 022c 0523     		movs	r3, #5
 423 022e 0B93     		str	r3, [sp, #44]
1456:main.c        ****   GPIO_InitStruct.Mode = GPIO_MODE_AF_PP;
 424              		.loc 1 1456 0
 425 0230 CDF83080 		str	r8, [sp, #48]
1457:main.c        ****   GPIO_InitStruct.Pull = GPIO_NOPULL;
 426              		.loc 1 1457 0
 427 0234 0D94     		str	r4, [sp, #52]
ARM GAS  C:\Users\lenovo\AppData\Local\Temp\ccfgRfuq.s 			page 34


1458:main.c        ****   GPIO_InitStruct.Speed = GPIO_SPEED_FREQ_VERY_HIGH;
 428              		.loc 1 1458 0
 429 0236 0E97     		str	r7, [sp, #56]
1459:main.c        ****   GPIO_InitStruct.Alternate = GPIO_AF10_OTG_HS;
 430              		.loc 1 1459 0
 431 0238 0F96     		str	r6, [sp, #60]
1460:main.c        ****   HAL_GPIO_Init(GPIOC, &GPIO_InitStruct);
 432              		.loc 1 1460 0
 433 023a 0BA9     		add	r1, sp, #44
 434 023c 1548     		ldr	r0, .L6+36
 435 023e FFF7FEFF 		bl	HAL_GPIO_Init
 436              	.LVL20:
1461:main.c        **** 
1462:main.c        ****   /*Configure GPIO pin : RMII_RXER_Pin */
1463:main.c        ****   GPIO_InitStruct.Pin = RMII_RXER_Pin;
 437              		.loc 1 1463 0
 438 0242 0423     		movs	r3, #4
 439 0244 0B93     		str	r3, [sp, #44]
1464:main.c        ****   GPIO_InitStruct.Mode = GPIO_MODE_INPUT;
 440              		.loc 1 1464 0
 441 0246 0C94     		str	r4, [sp, #48]
1465:main.c        ****   GPIO_InitStruct.Pull = GPIO_NOPULL;
 442              		.loc 1 1465 0
 443 0248 0D94     		str	r4, [sp, #52]
1466:main.c        ****   HAL_GPIO_Init(RMII_RXER_GPIO_Port, &GPIO_InitStruct);
 444              		.loc 1 1466 0
 445 024a 0BA9     		add	r1, sp, #44
 446 024c 0D48     		ldr	r0, .L6+20
 447 024e FFF7FEFF 		bl	HAL_GPIO_Init
 448              	.LVL21:
1467:main.c        **** 
1468:main.c        ****   /*Configure GPIO pins : ULPI_CLK_Pin ULPI_D0_Pin */
1469:main.c        ****   GPIO_InitStruct.Pin = ULPI_CLK_Pin|ULPI_D0_Pin;
 449              		.loc 1 1469 0
 450 0252 2823     		movs	r3, #40
 451 0254 0B93     		str	r3, [sp, #44]
1470:main.c        ****   GPIO_InitStruct.Mode = GPIO_MODE_AF_PP;
 452              		.loc 1 1470 0
 453 0256 CDF83080 		str	r8, [sp, #48]
1471:main.c        ****   GPIO_InitStruct.Pull = GPIO_NOPULL;
 454              		.loc 1 1471 0
 455 025a 0D94     		str	r4, [sp, #52]
1472:main.c        ****   GPIO_InitStruct.Speed = GPIO_SPEED_FREQ_VERY_HIGH;
 456              		.loc 1 1472 0
 457 025c 0E97     		str	r7, [sp, #56]
1473:main.c        ****   GPIO_InitStruct.Alternate = GPIO_AF10_OTG_HS;
 458              		.loc 1 1473 0
 459 025e 0F96     		str	r6, [sp, #60]
1474:main.c        ****   HAL_GPIO_Init(GPIOA, &GPIO_InitStruct);
 460              		.loc 1 1474 0
 461 0260 0BA9     		add	r1, sp, #44
 462 0262 0D48     		ldr	r0, .L6+40
 463 0264 FFF7FEFF 		bl	HAL_GPIO_Init
 464              	.LVL22:
1475:main.c        **** 
1476:main.c        **** }
 465              		.loc 1 1476 0
ARM GAS  C:\Users\lenovo\AppData\Local\Temp\ccfgRfuq.s 			page 35


 466 0268 11B0     		add	sp, sp, #68
 467              	.LCFI2:
 468              		.cfi_def_cfa_offset 36
 469              		@ sp needed
 470 026a BDE8F08F 		pop	{r4, r5, r6, r7, r8, r9, r10, fp, pc}
 471              	.L7:
 472 026e 00BF     		.align	2
 473              	.L6:
 474 0270 00380240 		.word	1073887232
 475 0274 000C0240 		.word	1073875968
 476 0278 00200240 		.word	1073881088
 477 027c 00280240 		.word	1073883136
 478 0280 001C0240 		.word	1073880064
 479 0284 00180240 		.word	1073879040
 480 0288 00100240 		.word	1073876992
 481 028c 00040240 		.word	1073873920
 482 0290 00240240 		.word	1073882112
 483 0294 00080240 		.word	1073874944
 484 0298 00000240 		.word	1073872896
 485 029c 00001210 		.word	269615104
 486              		.cfi_endproc
 487              	.LFE210:
 489              		.section	.text.lcd_start,"ax",%progbits
 490              		.align	1
 491              		.syntax unified
 492              		.thumb
 493              		.thumb_func
 494              		.fpu fpv5-sp-d16
 496              	lcd_start:
 497              	.LFB184:
 219:main.c        ****   /* LCD Initialization */ 
 498              		.loc 1 219 0
 499              		.cfi_startproc
 500              		@ args = 0, pretend = 0, frame = 0
 501              		@ frame_needed = 0, uses_anonymous_args = 0
 502 0000 08B5     		push	{r3, lr}
 503              	.LCFI3:
 504              		.cfi_def_cfa_offset 8
 505              		.cfi_offset 3, -8
 506              		.cfi_offset 14, -4
 221:main.c        **** 
 507              		.loc 1 221 0
 508 0002 FFF7FEFF 		bl	BSP_LCD_Init
 509              	.LVL23:
 224:main.c        ****   //BSP_LCD_LayerDefaultInit(1, (unsigned int)lcd_image_bg+(LCD_X_SIZE*LCD_Y_SIZE*4));
 510              		.loc 1 224 0
 511 0006 1749     		ldr	r1, .L10
 512 0008 0020     		movs	r0, #0
 513 000a FFF7FEFF 		bl	BSP_LCD_LayerDefaultInit
 514              	.LVL24:
 226:main.c        **** 
 515              		.loc 1 226 0
 516 000e 1649     		ldr	r1, .L10+4
 517 0010 0120     		movs	r0, #1
 518 0012 FFF7FEFF 		bl	BSP_LCD_LayerDefaultInit
 519              	.LVL25:
 229:main.c        ****   
ARM GAS  C:\Users\lenovo\AppData\Local\Temp\ccfgRfuq.s 			page 36


 520              		.loc 1 229 0
 521 0016 FFF7FEFF 		bl	BSP_LCD_DisplayOn
 522              	.LVL26:
 232:main.c        **** 
 523              		.loc 1 232 0
 524 001a 0020     		movs	r0, #0
 525 001c FFF7FEFF 		bl	BSP_LCD_SelectLayer
 526              	.LVL27:
 235:main.c        ****   BSP_LCD_SetBackColor(LCD_COLOR_WHITE);
 527              		.loc 1 235 0
 528 0020 4FF0FF30 		mov	r0, #-1
 529 0024 FFF7FEFF 		bl	BSP_LCD_Clear
 530              	.LVL28:
 236:main.c        ****   
 531              		.loc 1 236 0
 532 0028 4FF0FF30 		mov	r0, #-1
 533 002c FFF7FEFF 		bl	BSP_LCD_SetBackColor
 534              	.LVL29:
 238:main.c        ****   
 535              		.loc 1 238 0
 536 0030 4FF0FF31 		mov	r1, #-1
 537 0034 0120     		movs	r0, #1
 538 0036 FFF7FEFF 		bl	BSP_LCD_SetColorKeying
 539              	.LVL30:
 241:main.c        **** 
 540              		.loc 1 241 0
 541 003a 0120     		movs	r0, #1
 542 003c FFF7FEFF 		bl	BSP_LCD_SelectLayer
 543              	.LVL31:
 244:main.c        ****   BSP_LCD_SetBackColor(LCD_COLOR_WHITE);
 544              		.loc 1 244 0
 545 0040 4FF0FF30 		mov	r0, #-1
 546 0044 FFF7FEFF 		bl	BSP_LCD_Clear
 547              	.LVL32:
 245:main.c        ****   
 548              		.loc 1 245 0
 549 0048 4FF0FF30 		mov	r0, #-1
 550 004c FFF7FEFF 		bl	BSP_LCD_SetBackColor
 551              	.LVL33:
 249:main.c        ****   BSP_LCD_SetTransparency(1, 255);
 552              		.loc 1 249 0
 553 0050 FF21     		movs	r1, #255
 554 0052 0020     		movs	r0, #0
 555 0054 FFF7FEFF 		bl	BSP_LCD_SetTransparency
 556              	.LVL34:
 250:main.c        **** }
 557              		.loc 1 250 0
 558 0058 FF21     		movs	r1, #255
 559 005a 0120     		movs	r0, #1
 560 005c FFF7FEFF 		bl	BSP_LCD_SetTransparency
 561              	.LVL35:
 562 0060 08BD     		pop	{r3, pc}
 563              	.L11:
 564 0062 00BF     		.align	2
 565              	.L10:
 566 0064 00000000 		.word	.LANCHOR0
 567 0068 00F80700 		.word	.LANCHOR1+960
ARM GAS  C:\Users\lenovo\AppData\Local\Temp\ccfgRfuq.s 			page 37


 568              		.cfi_endproc
 569              	.LFE184:
 571              		.section	.text.xprintfTable,"ax",%progbits
 572              		.align	1
 573              		.global	xprintfTable
 574              		.syntax unified
 575              		.thumb
 576              		.thumb_func
 577              		.fpu fpv5-sp-d16
 579              	xprintfTable:
 580              	.LFB157:
 581              		.file 2 "figures.c"
   1:figures.c     ****  #define X_SIZE 27
   2:figures.c     ****   #define Y_SIZE 27
   3:figures.c     ****  
   4:figures.c     ****  int table[X_SIZE][Y_SIZE] = {0};
   5:figures.c     ****  
   6:figures.c     ****  int delay = 100;
   7:figures.c     **** 
   8:figures.c     **** 
   9:figures.c     ****  void xprintfTable(){
 582              		.loc 2 9 0
 583              		.cfi_startproc
 584              		@ args = 0, pretend = 0, frame = 0
 585              		@ frame_needed = 0, uses_anonymous_args = 0
 586 0000 38B5     		push	{r3, r4, r5, lr}
 587              	.LCFI4:
 588              		.cfi_def_cfa_offset 16
 589              		.cfi_offset 3, -16
 590              		.cfi_offset 4, -12
 591              		.cfi_offset 5, -8
 592              		.cfi_offset 14, -4
 593              	.LVL36:
 594              	.LBB13:
  10:figures.c     **** 	for(int i = 0; i<X_SIZE; i++){
 595              		.loc 2 10 0
 596 0002 0025     		movs	r5, #0
 597 0004 13E0     		b	.L13
 598              	.LVL37:
 599              	.L14:
 600              	.LBB14:
  11:figures.c     **** 		for(int j = 0; j<Y_SIZE; j++){
 601              		.loc 2 11 0 discriminator 2
 602 0006 0134     		adds	r4, r4, #1
 603              	.LVL38:
 604              	.L16:
 605              		.loc 2 11 0 is_stmt 0 discriminator 1
 606 0008 1A2C     		cmp	r4, #26
 607 000a 0FDC     		bgt	.L19
  12:figures.c     **** 			if(table[i][j]) xprintf("Not 0: %d %d", i, j);
 608              		.loc 2 12 0 is_stmt 1
 609 000c 05EB4503 		add	r3, r5, r5, lsl #1
 610 0010 03EBC303 		add	r3, r3, r3, lsl #3
 611 0014 2344     		add	r3, r3, r4
 612 0016 084A     		ldr	r2, .L21
 613 0018 52F82330 		ldr	r3, [r2, r3, lsl #2]
 614 001c 002B     		cmp	r3, #0
ARM GAS  C:\Users\lenovo\AppData\Local\Temp\ccfgRfuq.s 			page 38


 615 001e F2D0     		beq	.L14
 616              		.loc 2 12 0 is_stmt 0 discriminator 1
 617 0020 2246     		mov	r2, r4
 618 0022 2946     		mov	r1, r5
 619 0024 0548     		ldr	r0, .L21+4
 620 0026 FFF7FEFF 		bl	xprintf
 621              	.LVL39:
 622 002a ECE7     		b	.L14
 623              	.L19:
 624              	.LBE14:
  10:figures.c     **** 	for(int i = 0; i<X_SIZE; i++){
 625              		.loc 2 10 0 is_stmt 1 discriminator 2
 626 002c 0135     		adds	r5, r5, #1
 627              	.LVL40:
 628              	.L13:
  10:figures.c     **** 	for(int i = 0; i<X_SIZE; i++){
 629              		.loc 2 10 0 is_stmt 0 discriminator 1
 630 002e 1A2D     		cmp	r5, #26
 631 0030 01DC     		bgt	.L20
 632 0032 0024     		movs	r4, #0
 633 0034 E8E7     		b	.L16
 634              	.L20:
 635              	.LBE13:
  13:figures.c     **** 			//xprintf("%d ", table[i][j]);
  14:figures.c     **** 		}
  15:figures.c     **** 	}
  16:figures.c     ****  }
 636              		.loc 2 16 0 is_stmt 1
 637 0036 38BD     		pop	{r3, r4, r5, pc}
 638              	.LVL41:
 639              	.L22:
 640              		.align	2
 641              	.L21:
 642 0038 00000000 		.word	.LANCHOR2
 643 003c 00000000 		.word	.LC4
 644              		.cfi_endproc
 645              	.LFE157:
 647              		.section	.text.clearTable,"ax",%progbits
 648              		.align	1
 649              		.global	clearTable
 650              		.syntax unified
 651              		.thumb
 652              		.thumb_func
 653              		.fpu fpv5-sp-d16
 655              	clearTable:
 656              	.LFB158:
  17:figures.c     ****  
  18:figures.c     ****  void clearTable(){
 657              		.loc 2 18 0
 658              		.cfi_startproc
 659              		@ args = 0, pretend = 0, frame = 0
 660              		@ frame_needed = 0, uses_anonymous_args = 0
 661              		@ link register save eliminated.
 662              	.LVL42:
 663              	.LBB15:
  19:figures.c     **** 	for(int i=0; i<X_SIZE; i++){
 664              		.loc 2 19 0
ARM GAS  C:\Users\lenovo\AppData\Local\Temp\ccfgRfuq.s 			page 39


 665 0000 0021     		movs	r1, #0
 666              	.LVL43:
 667              	.L29:
 668 0002 1A29     		cmp	r1, #26
 669 0004 19DC     		bgt	.L34
 670 0006 0022     		movs	r2, #0
 671              	.LVL44:
 672              	.LBB16:
  20:figures.c     **** 		for(int j=0; j<Y_SIZE; j++){
 673              		.loc 2 20 0
 674 0008 1A2A     		cmp	r2, #26
 675 000a 14DC     		bgt	.L35
 676              	.LBE16:
 677              	.LBE15:
  18:figures.c     **** 	for(int i=0; i<X_SIZE; i++){
 678              		.loc 2 18 0
 679 000c 10B4     		push	{r4}
 680              	.LCFI5:
 681              		.cfi_def_cfa_offset 4
 682              		.cfi_offset 4, -4
 683              	.L25:
 684              	.LBB18:
 685              	.LBB17:
  21:figures.c     **** 			table[i][j] = 0;
 686              		.loc 2 21 0 discriminator 3
 687 000e 01EB4103 		add	r3, r1, r1, lsl #1
 688 0012 03EBC303 		add	r3, r3, r3, lsl #3
 689 0016 1344     		add	r3, r3, r2
 690 0018 0024     		movs	r4, #0
 691 001a 0848     		ldr	r0, .L37
 692 001c 40F82340 		str	r4, [r0, r3, lsl #2]
  20:figures.c     **** 		for(int j=0; j<Y_SIZE; j++){
 693              		.loc 2 20 0 discriminator 3
 694 0020 0132     		adds	r2, r2, #1
 695              	.LVL45:
 696              	.L26:
  20:figures.c     **** 		for(int j=0; j<Y_SIZE; j++){
 697              		.loc 2 20 0 is_stmt 0 discriminator 1
 698 0022 1A2A     		cmp	r2, #26
 699 0024 F3DD     		ble	.L25
 700              	.LBE17:
  19:figures.c     **** 		for(int j=0; j<Y_SIZE; j++){
 701              		.loc 2 19 0 is_stmt 1 discriminator 2
 702 0026 0131     		adds	r1, r1, #1
 703              	.LVL46:
 704 0028 1A29     		cmp	r1, #26
 705 002a 01DC     		bgt	.L36
 706 002c 0022     		movs	r2, #0
 707              	.LVL47:
 708 002e F8E7     		b	.L26
 709              	.LVL48:
 710              	.L36:
 711              	.LBE18:
  22:figures.c     **** 		}
  23:figures.c     **** 	}
  24:figures.c     **** 
  25:figures.c     **** 
ARM GAS  C:\Users\lenovo\AppData\Local\Temp\ccfgRfuq.s 			page 40


  26:figures.c     ****   }
 712              		.loc 2 26 0
 713 0030 5DF8044B 		ldr	r4, [sp], #4
 714              	.LCFI6:
 715              		.cfi_restore 4
 716              		.cfi_def_cfa_offset 0
 717 0034 7047     		bx	lr
 718              	.L35:
 719              	.LBB19:
  19:figures.c     **** 		for(int j=0; j<Y_SIZE; j++){
 720              		.loc 2 19 0
 721 0036 0131     		adds	r1, r1, #1
 722              	.LVL49:
 723 0038 E3E7     		b	.L29
 724              	.LVL50:
 725              	.L34:
 726 003a 7047     		bx	lr
 727              	.L38:
 728              		.align	2
 729              	.L37:
 730 003c 00000000 		.word	.LANCHOR2
 731              	.LBE19:
 732              		.cfi_endproc
 733              	.LFE158:
 735              		.section	.text.setGameOfLife,"ax",%progbits
 736              		.align	1
 737              		.global	setGameOfLife
 738              		.syntax unified
 739              		.thumb
 740              		.thumb_func
 741              		.fpu fpv5-sp-d16
 743              	setGameOfLife:
 744              	.LFB159:
  27:figures.c     ****   
  28:figures.c     ****   void setGameOfLife(){
 745              		.loc 2 28 0
 746              		.cfi_startproc
 747              		@ args = 0, pretend = 0, frame = 0
 748              		@ frame_needed = 0, uses_anonymous_args = 0
 749 0000 08B5     		push	{r3, lr}
 750              	.LCFI7:
 751              		.cfi_def_cfa_offset 8
 752              		.cfi_offset 3, -8
 753              		.cfi_offset 14, -4
  29:figures.c     ****         clearTable();
 754              		.loc 2 29 0
 755 0002 FFF7FEFF 		bl	clearTable
 756              	.LVL51:
  30:figures.c     **** 		delay = 100;
 757              		.loc 2 30 0
 758 0006 6422     		movs	r2, #100
 759 0008 684B     		ldr	r3, .L41
 760 000a 1A60     		str	r2, [r3]
  31:figures.c     ****         table[4][6] = 1;
 761              		.loc 2 31 0
 762 000c 684B     		ldr	r3, .L41+4
 763 000e 0122     		movs	r2, #1
ARM GAS  C:\Users\lenovo\AppData\Local\Temp\ccfgRfuq.s 			page 41


 764 0010 C3F8C821 		str	r2, [r3, #456]
  32:figures.c     ****         table[4][7] = 1;
 765              		.loc 2 32 0
 766 0014 C3F8CC21 		str	r2, [r3, #460]
  33:figures.c     ****         table[4][8] = 1;
 767              		.loc 2 33 0
 768 0018 C3F8D021 		str	r2, [r3, #464]
  34:figures.c     ****         table[4][9] = 1;
 769              		.loc 2 34 0
 770 001c C3F8D421 		str	r2, [r3, #468]
  35:figures.c     ****         table[4][17] = 1;
 771              		.loc 2 35 0
 772 0020 C3F8F421 		str	r2, [r3, #500]
  36:figures.c     ****         table[4][18] = 1;
 773              		.loc 2 36 0
 774 0024 C3F8F821 		str	r2, [r3, #504]
  37:figures.c     ****         table[4][19] = 1;
 775              		.loc 2 37 0
 776 0028 C3F8FC21 		str	r2, [r3, #508]
  38:figures.c     ****         table[4][20] = 1;
 777              		.loc 2 38 0
 778 002c C3F80022 		str	r2, [r3, #512]
  39:figures.c     ****         table[4][21] = 1;
 779              		.loc 2 39 0
 780 0030 C3F80422 		str	r2, [r3, #516]
  40:figures.c     ****         table[5][5] = 1;
 781              		.loc 2 40 0
 782 0034 C3F83022 		str	r2, [r3, #560]
  41:figures.c     ****         table[5][9] = 1;
 783              		.loc 2 41 0
 784 0038 C3F84022 		str	r2, [r3, #576]
  42:figures.c     ****         table[5][21] = 1;
 785              		.loc 2 42 0
 786 003c C3F87022 		str	r2, [r3, #624]
  43:figures.c     ****         table[6][5] = 1;
 787              		.loc 2 43 0
 788 0040 C3F89C22 		str	r2, [r3, #668]
  44:figures.c     ****         table[6][9] = 1;
 789              		.loc 2 44 0
 790 0044 C3F8AC22 		str	r2, [r3, #684]
  45:figures.c     ****         table[6][21] = 1;
 791              		.loc 2 45 0
 792 0048 C3F8DC22 		str	r2, [r3, #732]
  46:figures.c     ****         table[7][5] = 1;
 793              		.loc 2 46 0
 794 004c C3F80823 		str	r2, [r3, #776]
  47:figures.c     ****         table[7][7] = 1;
 795              		.loc 2 47 0
 796 0050 C3F81023 		str	r2, [r3, #784]
  48:figures.c     ****         table[7][8] = 1;
 797              		.loc 2 48 0
 798 0054 C3F81423 		str	r2, [r3, #788]
  49:figures.c     ****         table[7][9] = 1;
 799              		.loc 2 49 0
 800 0058 C3F81823 		str	r2, [r3, #792]
  50:figures.c     ****         table[7][21] = 1;
 801              		.loc 2 50 0
ARM GAS  C:\Users\lenovo\AppData\Local\Temp\ccfgRfuq.s 			page 42


 802 005c C3F84823 		str	r2, [r3, #840]
  51:figures.c     ****         table[9][5] = 1;
 803              		.loc 2 51 0
 804 0060 C3F8E023 		str	r2, [r3, #992]
  52:figures.c     ****         table[9][6] = 1;
 805              		.loc 2 52 0
 806 0064 C3F8E423 		str	r2, [r3, #996]
  53:figures.c     ****         table[9][7] = 1;
 807              		.loc 2 53 0
 808 0068 C3F8E823 		str	r2, [r3, #1000]
  54:figures.c     ****         table[9][8] = 1;
 809              		.loc 2 54 0
 810 006c C3F8EC23 		str	r2, [r3, #1004]
  55:figures.c     ****         table[9][9] = 1;
 811              		.loc 2 55 0
 812 0070 C3F8F023 		str	r2, [r3, #1008]
  56:figures.c     ****         table[9][11] = 1;
 813              		.loc 2 56 0
 814 0074 C3F8F823 		str	r2, [r3, #1016]
  57:figures.c     ****         table[9][12] = 1;
 815              		.loc 2 57 0
 816 0078 C3F8FC23 		str	r2, [r3, #1020]
  58:figures.c     ****         table[9][13] = 1;
 817              		.loc 2 58 0
 818 007c C3F80024 		str	r2, [r3, #1024]
  59:figures.c     ****         table[9][14] = 1;
 819              		.loc 2 59 0
 820 0080 C3F80424 		str	r2, [r3, #1028]
  60:figures.c     ****         table[9][15] = 1;
 821              		.loc 2 60 0
 822 0084 C3F80824 		str	r2, [r3, #1032]
  61:figures.c     ****         table[10][5] = 1;
 823              		.loc 2 61 0
 824 0088 C3F84C24 		str	r2, [r3, #1100]
  62:figures.c     ****         table[10][7] = 1;
 825              		.loc 2 62 0
 826 008c C3F85424 		str	r2, [r3, #1108]
  63:figures.c     ****         table[10][11] = 1;
 827              		.loc 2 63 0
 828 0090 C3F86424 		str	r2, [r3, #1124]
  64:figures.c     ****         table[10][15] = 1;
 829              		.loc 2 64 0
 830 0094 C3F87424 		str	r2, [r3, #1140]
  65:figures.c     ****         table[10][17] = 1;
 831              		.loc 2 65 0
 832 0098 C3F87C24 		str	r2, [r3, #1148]
  66:figures.c     ****         table[10][18] = 1;
 833              		.loc 2 66 0
 834 009c C3F88024 		str	r2, [r3, #1152]
  67:figures.c     ****         table[10][19] = 1;
 835              		.loc 2 67 0
 836 00a0 C3F88424 		str	r2, [r3, #1156]
  68:figures.c     ****         table[10][20] = 1;
 837              		.loc 2 68 0
 838 00a4 C3F88824 		str	r2, [r3, #1160]
  69:figures.c     ****         table[10][21] = 1;
 839              		.loc 2 69 0
ARM GAS  C:\Users\lenovo\AppData\Local\Temp\ccfgRfuq.s 			page 43


 840 00a8 C3F88C24 		str	r2, [r3, #1164]
  70:figures.c     ****         table[11][5] = 1;
 841              		.loc 2 70 0
 842 00ac C3F8B824 		str	r2, [r3, #1208]
  71:figures.c     ****         table[11][6] = 1;
 843              		.loc 2 71 0
 844 00b0 C3F8BC24 		str	r2, [r3, #1212]
  72:figures.c     ****         table[11][7] = 1;
 845              		.loc 2 72 0
 846 00b4 C3F8C024 		str	r2, [r3, #1216]
  73:figures.c     ****         table[11][8] = 1;
 847              		.loc 2 73 0
 848 00b8 C3F8C424 		str	r2, [r3, #1220]
  74:figures.c     ****         table[11][9] = 1;
 849              		.loc 2 74 0
 850 00bc C3F8C824 		str	r2, [r3, #1224]
  75:figures.c     ****         table[11][11] = 1;
 851              		.loc 2 75 0
 852 00c0 C3F8D024 		str	r2, [r3, #1232]
  76:figures.c     ****         table[11][12] = 1;
 853              		.loc 2 76 0
 854 00c4 C3F8D424 		str	r2, [r3, #1236]
  77:figures.c     ****         table[11][13] = 1;
 855              		.loc 2 77 0
 856 00c8 C3F8D824 		str	r2, [r3, #1240]
  78:figures.c     ****         table[11][14] = 1;
 857              		.loc 2 78 0
 858 00cc C3F8DC24 		str	r2, [r3, #1244]
  79:figures.c     ****         table[11][15] = 1;
 859              		.loc 2 79 0
 860 00d0 C3F8E024 		str	r2, [r3, #1248]
  80:figures.c     ****         table[13][5] = 1;
 861              		.loc 2 80 0
 862 00d4 C3F89025 		str	r2, [r3, #1424]
  81:figures.c     ****         table[13][6] = 1;
 863              		.loc 2 81 0
 864 00d8 C3F89425 		str	r2, [r3, #1428]
  82:figures.c     ****         table[13][7] = 1;
 865              		.loc 2 82 0
 866 00dc C3F89825 		str	r2, [r3, #1432]
  83:figures.c     ****         table[13][8] = 1;
 867              		.loc 2 83 0
 868 00e0 C3F89C25 		str	r2, [r3, #1436]
  84:figures.c     ****         table[13][9] = 1;
 869              		.loc 2 84 0
 870 00e4 C3F8A025 		str	r2, [r3, #1440]
  85:figures.c     ****         table[13][11] = 1;
 871              		.loc 2 85 0
 872 00e8 C3F8A825 		str	r2, [r3, #1448]
  86:figures.c     ****         table[13][12] = 1;
 873              		.loc 2 86 0
 874 00ec C3F8AC25 		str	r2, [r3, #1452]
  87:figures.c     ****         table[13][13] = 1;
 875              		.loc 2 87 0
 876 00f0 C3F8B025 		str	r2, [r3, #1456]
  88:figures.c     ****         table[13][14] = 1;
 877              		.loc 2 88 0
ARM GAS  C:\Users\lenovo\AppData\Local\Temp\ccfgRfuq.s 			page 44


 878 00f4 C3F8B425 		str	r2, [r3, #1460]
  89:figures.c     ****         table[13][15] = 1;
 879              		.loc 2 89 0
 880 00f8 C3F8B825 		str	r2, [r3, #1464]
  90:figures.c     ****         table[13][17] = 1;
 881              		.loc 2 90 0
 882 00fc C3F8C025 		str	r2, [r3, #1472]
  91:figures.c     ****         table[13][18] = 1;
 883              		.loc 2 91 0
 884 0100 C3F8C425 		str	r2, [r3, #1476]
  92:figures.c     ****         table[13][19] = 1;
 885              		.loc 2 92 0
 886 0104 C3F8C825 		str	r2, [r3, #1480]
  93:figures.c     ****         table[13][20] = 1;
 887              		.loc 2 93 0
 888 0108 C3F8CC25 		str	r2, [r3, #1484]
  94:figures.c     ****         table[13][21] = 1;
 889              		.loc 2 94 0
 890 010c C3F8D025 		str	r2, [r3, #1488]
  95:figures.c     ****         table[14][5] = 1;
 891              		.loc 2 95 0
 892 0110 C3F8FC25 		str	r2, [r3, #1532]
  96:figures.c     ****         table[14][11] = 1;
 893              		.loc 2 96 0
 894 0114 C3F81426 		str	r2, [r3, #1556]
  97:figures.c     ****         table[14][13] = 1;
 895              		.loc 2 97 0
 896 0118 C3F81C26 		str	r2, [r3, #1564]
  98:figures.c     ****         table[14][17] = 1;
 897              		.loc 2 98 0
 898 011c C3F82C26 		str	r2, [r3, #1580]
  99:figures.c     ****         table[14][19] = 1;
 899              		.loc 2 99 0
 900 0120 C3F83426 		str	r2, [r3, #1588]
 100:figures.c     ****         table[15][6] = 1;
 901              		.loc 2 100 0
 902 0124 C3F86C26 		str	r2, [r3, #1644]
 101:figures.c     ****         table[15][11] = 1;
 903              		.loc 2 101 0
 904 0128 C3F88026 		str	r2, [r3, #1664]
 102:figures.c     ****         table[15][13] = 1;
 905              		.loc 2 102 0
 906 012c C3F88826 		str	r2, [r3, #1672]
 103:figures.c     ****         table[15][17] = 1;
 907              		.loc 2 103 0
 908 0130 C3F89826 		str	r2, [r3, #1688]
 104:figures.c     ****         table[15][19] = 1;
 909              		.loc 2 104 0
 910 0134 C3F8A026 		str	r2, [r3, #1696]
 105:figures.c     ****         table[16][5] = 1;
 911              		.loc 2 105 0
 912 0138 C3F8D426 		str	r2, [r3, #1748]
 106:figures.c     ****         table[17][5] = 1;
 913              		.loc 2 106 0
 914 013c C3F84027 		str	r2, [r3, #1856]
 107:figures.c     ****         table[17][6] = 1;
 915              		.loc 2 107 0
ARM GAS  C:\Users\lenovo\AppData\Local\Temp\ccfgRfuq.s 			page 45


 916 0140 C3F84427 		str	r2, [r3, #1860]
 108:figures.c     ****         table[17][7] = 1;
 917              		.loc 2 108 0
 918 0144 C3F84827 		str	r2, [r3, #1864]
 109:figures.c     ****         table[17][8] = 1;
 919              		.loc 2 109 0
 920 0148 C3F84C27 		str	r2, [r3, #1868]
 110:figures.c     ****         table[17][9] = 1;
 921              		.loc 2 110 0
 922 014c C3F85027 		str	r2, [r3, #1872]
 111:figures.c     ****         table[19][5] = 1;
 923              		.loc 2 111 0
 924 0150 C3F81828 		str	r2, [r3, #2072]
 112:figures.c     ****         table[19][6] = 1;
 925              		.loc 2 112 0
 926 0154 C3F81C28 		str	r2, [r3, #2076]
 113:figures.c     ****         table[19][7] = 1;
 927              		.loc 2 113 0
 928 0158 C3F82028 		str	r2, [r3, #2080]
 114:figures.c     ****         table[19][8] = 1;
 929              		.loc 2 114 0
 930 015c C3F82428 		str	r2, [r3, #2084]
 115:figures.c     ****         table[19][9] = 1;
 931              		.loc 2 115 0
 932 0160 C3F82828 		str	r2, [r3, #2088]
 116:figures.c     ****         table[19][17] = 1;
 933              		.loc 2 116 0
 934 0164 C3F84828 		str	r2, [r3, #2120]
 117:figures.c     ****         table[19][18] = 1;
 935              		.loc 2 117 0
 936 0168 C3F84C28 		str	r2, [r3, #2124]
 118:figures.c     ****         table[19][19] = 1;
 937              		.loc 2 118 0
 938 016c C3F85028 		str	r2, [r3, #2128]
 119:figures.c     ****         table[19][20] = 1;
 939              		.loc 2 119 0
 940 0170 C3F85428 		str	r2, [r3, #2132]
 120:figures.c     ****         table[19][21] = 1;
 941              		.loc 2 120 0
 942 0174 C3F85828 		str	r2, [r3, #2136]
 121:figures.c     ****         table[20][5] = 1;
 943              		.loc 2 121 0
 944 0178 C3F88428 		str	r2, [r3, #2180]
 122:figures.c     ****         table[20][7] = 1;
 945              		.loc 2 122 0
 946 017c C3F88C28 		str	r2, [r3, #2188]
 123:figures.c     ****         table[20][9] = 1;
 947              		.loc 2 123 0
 948 0180 C3F89428 		str	r2, [r3, #2196]
 124:figures.c     ****         table[20][17] = 1;
 949              		.loc 2 124 0
 950 0184 C3F8B428 		str	r2, [r3, #2228]
 125:figures.c     ****         table[20][19] = 1;
 951              		.loc 2 125 0
 952 0188 C3F8BC28 		str	r2, [r3, #2236]
 126:figures.c     ****         table[20][21] = 1;
 953              		.loc 2 126 0
ARM GAS  C:\Users\lenovo\AppData\Local\Temp\ccfgRfuq.s 			page 46


 954 018c C3F8C428 		str	r2, [r3, #2244]
 127:figures.c     ****         table[21][5] = 1;
 955              		.loc 2 127 0
 956 0190 C3F8F028 		str	r2, [r3, #2288]
 128:figures.c     ****         table[21][7] = 1;
 957              		.loc 2 128 0
 958 0194 C3F8F828 		str	r2, [r3, #2296]
 129:figures.c     ****         table[21][9] = 1;
 959              		.loc 2 129 0
 960 0198 C3F80029 		str	r2, [r3, #2304]
 130:figures.c     ****         table[21][17] = 1;
 961              		.loc 2 130 0
 962 019c C3F82029 		str	r2, [r3, #2336]
 131:figures.c     ****         table[21][19] = 1;
 963              		.loc 2 131 0
 964 01a0 C3F82829 		str	r2, [r3, #2344]
 132:figures.c     ****         table[21][21] = 1;
 965              		.loc 2 132 0
 966 01a4 C3F83029 		str	r2, [r3, #2352]
 967 01a8 08BD     		pop	{r3, pc}
 968              	.L42:
 969 01aa 00BF     		.align	2
 970              	.L41:
 971 01ac 00000000 		.word	.LANCHOR3
 972 01b0 00000000 		.word	.LANCHOR2
 973              		.cfi_endproc
 974              	.LFE159:
 976              		.section	.text.setEvolution,"ax",%progbits
 977              		.align	1
 978              		.global	setEvolution
 979              		.syntax unified
 980              		.thumb
 981              		.thumb_func
 982              		.fpu fpv5-sp-d16
 984              	setEvolution:
 985              	.LFB160:
 133:figures.c     **** }
 134:figures.c     **** 
 135:figures.c     **** void setEvolution(){
 986              		.loc 2 135 0
 987              		.cfi_startproc
 988              		@ args = 0, pretend = 0, frame = 0
 989              		@ frame_needed = 0, uses_anonymous_args = 0
 990 0000 08B5     		push	{r3, lr}
 991              	.LCFI8:
 992              		.cfi_def_cfa_offset 8
 993              		.cfi_offset 3, -8
 994              		.cfi_offset 14, -4
 136:figures.c     ****         clearTable();
 995              		.loc 2 136 0
 996 0002 FFF7FEFF 		bl	clearTable
 997              	.LVL52:
 137:figures.c     **** 		delay = 300;
 998              		.loc 2 137 0
 999 0006 4FF49672 		mov	r2, #300
 1000 000a 0A4B     		ldr	r3, .L45
 1001 000c 1A60     		str	r2, [r3]
ARM GAS  C:\Users\lenovo\AppData\Local\Temp\ccfgRfuq.s 			page 47


 138:figures.c     ****         table[10][10] = 1;
 1002              		.loc 2 138 0
 1003 000e 0A4B     		ldr	r3, .L45+4
 1004 0010 0122     		movs	r2, #1
 1005 0012 C3F86024 		str	r2, [r3, #1120]
 139:figures.c     ****         table[10][11] = 1;
 1006              		.loc 2 139 0
 1007 0016 C3F86424 		str	r2, [r3, #1124]
 140:figures.c     ****         table[10][12] = 1;
 1008              		.loc 2 140 0
 1009 001a C3F86824 		str	r2, [r3, #1128]
 141:figures.c     ****         table[11][10] = 1;
 1010              		.loc 2 141 0
 1011 001e C3F8CC24 		str	r2, [r3, #1228]
 142:figures.c     ****         table[11][12] = 1;
 1012              		.loc 2 142 0
 1013 0022 C3F8D424 		str	r2, [r3, #1236]
 143:figures.c     ****         table[12][10] = 1;
 1014              		.loc 2 143 0
 1015 0026 C3F83825 		str	r2, [r3, #1336]
 144:figures.c     ****         table[12][11] = 1;
 1016              		.loc 2 144 0
 1017 002a C3F83C25 		str	r2, [r3, #1340]
 145:figures.c     ****         table[12][12] = 1;
 1018              		.loc 2 145 0
 1019 002e C3F84025 		str	r2, [r3, #1344]
 1020 0032 08BD     		pop	{r3, pc}
 1021              	.L46:
 1022              		.align	2
 1023              	.L45:
 1024 0034 00000000 		.word	.LANCHOR3
 1025 0038 00000000 		.word	.LANCHOR2
 1026              		.cfi_endproc
 1027              	.LFE160:
 1029              		.section	.text.setDiamond,"ax",%progbits
 1030              		.align	1
 1031              		.global	setDiamond
 1032              		.syntax unified
 1033              		.thumb
 1034              		.thumb_func
 1035              		.fpu fpv5-sp-d16
 1037              	setDiamond:
 1038              	.LFB161:
 146:figures.c     **** }
 147:figures.c     **** 
 148:figures.c     **** void setDiamond(){
 1039              		.loc 2 148 0
 1040              		.cfi_startproc
 1041              		@ args = 0, pretend = 0, frame = 0
 1042              		@ frame_needed = 0, uses_anonymous_args = 0
 1043 0000 08B5     		push	{r3, lr}
 1044              	.LCFI9:
 1045              		.cfi_def_cfa_offset 8
 1046              		.cfi_offset 3, -8
 1047              		.cfi_offset 14, -4
 149:figures.c     ****         clearTable();
 1048              		.loc 2 149 0
ARM GAS  C:\Users\lenovo\AppData\Local\Temp\ccfgRfuq.s 			page 48


 1049 0002 FFF7FEFF 		bl	clearTable
 1050              	.LVL53:
 150:figures.c     ****         table[10][11] = 1;
 1051              		.loc 2 150 0
 1052 0006 114B     		ldr	r3, .L49
 1053 0008 0122     		movs	r2, #1
 1054 000a C3F86424 		str	r2, [r3, #1124]
 151:figures.c     ****         table[10][12] = 1;
 1055              		.loc 2 151 0
 1056 000e C3F86824 		str	r2, [r3, #1128]
 152:figures.c     ****         table[11][10] = 1;
 1057              		.loc 2 152 0
 1058 0012 C3F8CC24 		str	r2, [r3, #1228]
 153:figures.c     ****         table[11][13] = 1;
 1059              		.loc 2 153 0
 1060 0016 C3F8D824 		str	r2, [r3, #1240]
 154:figures.c     ****         table[12][9] = 1;
 1061              		.loc 2 154 0
 1062 001a C3F83425 		str	r2, [r3, #1332]
 155:figures.c     ****         table[12][14] = 1;
 1063              		.loc 2 155 0
 1064 001e C3F84825 		str	r2, [r3, #1352]
 156:figures.c     ****         table[13][8] = 1;
 1065              		.loc 2 156 0
 1066 0022 C3F89C25 		str	r2, [r3, #1436]
 157:figures.c     ****         table[13][15] = 1;
 1067              		.loc 2 157 0
 1068 0026 C3F8B825 		str	r2, [r3, #1464]
 158:figures.c     ****         table[14][8] = 1;
 1069              		.loc 2 158 0
 1070 002a C3F80826 		str	r2, [r3, #1544]
 159:figures.c     ****         table[14][15] = 1;
 1071              		.loc 2 159 0
 1072 002e C3F82426 		str	r2, [r3, #1572]
 160:figures.c     ****         table[15][9] = 1;
 1073              		.loc 2 160 0
 1074 0032 C3F87826 		str	r2, [r3, #1656]
 161:figures.c     ****         table[15][14] = 1;
 1075              		.loc 2 161 0
 1076 0036 C3F88C26 		str	r2, [r3, #1676]
 162:figures.c     ****         table[16][10] = 1;
 1077              		.loc 2 162 0
 1078 003a C3F8E826 		str	r2, [r3, #1768]
 163:figures.c     ****         table[16][13] = 1;
 1079              		.loc 2 163 0
 1080 003e C3F8F426 		str	r2, [r3, #1780]
 164:figures.c     ****         table[17][11] = 1;
 1081              		.loc 2 164 0
 1082 0042 C3F85827 		str	r2, [r3, #1880]
 165:figures.c     ****         table[17][12] = 1;
 1083              		.loc 2 165 0
 1084 0046 C3F85C27 		str	r2, [r3, #1884]
 1085 004a 08BD     		pop	{r3, pc}
 1086              	.L50:
 1087              		.align	2
 1088              	.L49:
 1089 004c 00000000 		.word	.LANCHOR2
ARM GAS  C:\Users\lenovo\AppData\Local\Temp\ccfgRfuq.s 			page 49


 1090              		.cfi_endproc
 1091              	.LFE161:
 1093              		.section	.text.setQueenBee,"ax",%progbits
 1094              		.align	1
 1095              		.global	setQueenBee
 1096              		.syntax unified
 1097              		.thumb
 1098              		.thumb_func
 1099              		.fpu fpv5-sp-d16
 1101              	setQueenBee:
 1102              	.LFB162:
 166:figures.c     **** }
 167:figures.c     **** 
 168:figures.c     **** void setQueenBee(){
 1103              		.loc 2 168 0
 1104              		.cfi_startproc
 1105              		@ args = 0, pretend = 0, frame = 0
 1106              		@ frame_needed = 0, uses_anonymous_args = 0
 1107 0000 08B5     		push	{r3, lr}
 1108              	.LCFI10:
 1109              		.cfi_def_cfa_offset 8
 1110              		.cfi_offset 3, -8
 1111              		.cfi_offset 14, -4
 169:figures.c     **** 		delay = 100;
 1112              		.loc 2 169 0
 1113 0002 6422     		movs	r2, #100
 1114 0004 174B     		ldr	r3, .L53
 1115 0006 1A60     		str	r2, [r3]
 170:figures.c     ****         clearTable();
 1116              		.loc 2 170 0
 1117 0008 FFF7FEFF 		bl	clearTable
 1118              	.LVL54:
 171:figures.c     ****         table[10][10] = 1;
 1119              		.loc 2 171 0
 1120 000c 164B     		ldr	r3, .L53+4
 1121 000e 0122     		movs	r2, #1
 1122 0010 C3F86024 		str	r2, [r3, #1120]
 172:figures.c     ****         table[11][8] = 1;
 1123              		.loc 2 172 0
 1124 0014 C3F8C424 		str	r2, [r3, #1220]
 173:figures.c     ****         table[11][10] = 1;
 1125              		.loc 2 173 0
 1126 0018 C3F8CC24 		str	r2, [r3, #1228]
 174:figures.c     ****         table[12][7] = 1;
 1127              		.loc 2 174 0
 1128 001c C3F82C25 		str	r2, [r3, #1324]
 175:figures.c     ****         table[12][9] = 1;
 1129              		.loc 2 175 0
 1130 0020 C3F83425 		str	r2, [r3, #1332]
 176:figures.c     ****         table[13][1] = 1;
 1131              		.loc 2 176 0
 1132 0024 C3F88025 		str	r2, [r3, #1408]
 177:figures.c     ****         table[13][2] = 1;
 1133              		.loc 2 177 0
 1134 0028 C3F88425 		str	r2, [r3, #1412]
 178:figures.c     ****         table[13][6] = 1;
 1135              		.loc 2 178 0
ARM GAS  C:\Users\lenovo\AppData\Local\Temp\ccfgRfuq.s 			page 50


 1136 002c C3F89425 		str	r2, [r3, #1428]
 179:figures.c     ****         table[13][9] = 1;
 1137              		.loc 2 179 0
 1138 0030 C3F8A025 		str	r2, [r3, #1440]
 180:figures.c     ****         table[13][21] = 1;
 1139              		.loc 2 180 0
 1140 0034 C3F8D025 		str	r2, [r3, #1488]
 181:figures.c     ****         table[13][22] = 1;
 1141              		.loc 2 181 0
 1142 0038 C3F8D425 		str	r2, [r3, #1492]
 182:figures.c     ****         table[14][1] = 1;
 1143              		.loc 2 182 0
 1144 003c C3F8EC25 		str	r2, [r3, #1516]
 183:figures.c     ****         table[14][2] = 1;
 1145              		.loc 2 183 0
 1146 0040 C3F8F025 		str	r2, [r3, #1520]
 184:figures.c     ****         table[14][7] = 1;
 1147              		.loc 2 184 0
 1148 0044 C3F80426 		str	r2, [r3, #1540]
 185:figures.c     ****         table[14][9] = 1;
 1149              		.loc 2 185 0
 1150 0048 C3F80C26 		str	r2, [r3, #1548]
 186:figures.c     ****         table[14][21] = 1;
 1151              		.loc 2 186 0
 1152 004c C3F83C26 		str	r2, [r3, #1596]
 187:figures.c     ****         table[14][22] = 1;
 1153              		.loc 2 187 0
 1154 0050 C3F84026 		str	r2, [r3, #1600]
 188:figures.c     ****         table[15][8] = 1;
 1155              		.loc 2 188 0
 1156 0054 C3F87426 		str	r2, [r3, #1652]
 189:figures.c     ****         table[15][10] = 1;
 1157              		.loc 2 189 0
 1158 0058 C3F87C26 		str	r2, [r3, #1660]
 190:figures.c     ****         table[16][10] = 1;
 1159              		.loc 2 190 0
 1160 005c C3F8E826 		str	r2, [r3, #1768]
 1161 0060 08BD     		pop	{r3, pc}
 1162              	.L54:
 1163 0062 00BF     		.align	2
 1164              	.L53:
 1165 0064 00000000 		.word	.LANCHOR3
 1166 0068 00000000 		.word	.LANCHOR2
 1167              		.cfi_endproc
 1168              	.LFE162:
 1170              		.section	.text.setHertzOscillator,"ax",%progbits
 1171              		.align	1
 1172              		.global	setHertzOscillator
 1173              		.syntax unified
 1174              		.thumb
 1175              		.thumb_func
 1176              		.fpu fpv5-sp-d16
 1178              	setHertzOscillator:
 1179              	.LFB163:
 191:figures.c     **** }
 192:figures.c     **** 
 193:figures.c     **** void setHertzOscillator(){
ARM GAS  C:\Users\lenovo\AppData\Local\Temp\ccfgRfuq.s 			page 51


 1180              		.loc 2 193 0
 1181              		.cfi_startproc
 1182              		@ args = 0, pretend = 0, frame = 0
 1183              		@ frame_needed = 0, uses_anonymous_args = 0
 1184 0000 08B5     		push	{r3, lr}
 1185              	.LCFI11:
 1186              		.cfi_def_cfa_offset 8
 1187              		.cfi_offset 3, -8
 1188              		.cfi_offset 14, -4
 194:figures.c     **** 		delay = 800;
 1189              		.loc 2 194 0
 1190 0002 4FF44872 		mov	r2, #800
 1191 0006 264B     		ldr	r3, .L57
 1192 0008 1A60     		str	r2, [r3]
 195:figures.c     ****         clearTable();
 1193              		.loc 2 195 0
 1194 000a FFF7FEFF 		bl	clearTable
 1195              	.LVL55:
 196:figures.c     ****         table[5][11] = 1;
 1196              		.loc 2 196 0
 1197 000e 254B     		ldr	r3, .L57+4
 1198 0010 0122     		movs	r2, #1
 1199 0012 C3F84822 		str	r2, [r3, #584]
 197:figures.c     ****         table[5][12] = 1;
 1200              		.loc 2 197 0
 1201 0016 C3F84C22 		str	r2, [r3, #588]
 198:figures.c     ****         table[5][14] = 1;
 1202              		.loc 2 198 0
 1203 001a C3F85422 		str	r2, [r3, #596]
 199:figures.c     ****         table[6][11] = 1;
 1204              		.loc 2 199 0
 1205 001e C3F8B422 		str	r2, [r3, #692]
 200:figures.c     ****         table[6][13] = 1;
 1206              		.loc 2 200 0
 1207 0022 C3F8BC22 		str	r2, [r3, #700]
 201:figures.c     ****         table[6][14] = 1;
 1208              		.loc 2 201 0
 1209 0026 C3F8C022 		str	r2, [r3, #704]
 202:figures.c     ****         table[8][12] = 1;
 1210              		.loc 2 202 0
 1211 002a C3F89023 		str	r2, [r3, #912]
 203:figures.c     ****         table[8][13] = 1;
 1212              		.loc 2 203 0
 1213 002e C3F89423 		str	r2, [r3, #916]
 204:figures.c     ****         table[8][14] = 1;
 1214              		.loc 2 204 0
 1215 0032 C3F89823 		str	r2, [r3, #920]
 205:figures.c     ****         table[9][11] = 1;
 1216              		.loc 2 205 0
 1217 0036 C3F8F823 		str	r2, [r3, #1016]
 206:figures.c     ****         table[9][13] = 1;
 1218              		.loc 2 206 0
 1219 003a C3F80024 		str	r2, [r3, #1024]
 207:figures.c     ****         table[9][15] = 1;
 1220              		.loc 2 207 0
 1221 003e C3F80824 		str	r2, [r3, #1032]
 208:figures.c     ****         table[9][17] = 1;
ARM GAS  C:\Users\lenovo\AppData\Local\Temp\ccfgRfuq.s 			page 52


 1222              		.loc 2 208 0
 1223 0042 C3F81024 		str	r2, [r3, #1040]
 209:figures.c     ****         table[9][18] = 1;
 1224              		.loc 2 209 0
 1225 0046 C3F81424 		str	r2, [r3, #1044]
 210:figures.c     ****         table[10][11] = 1;
 1226              		.loc 2 210 0
 1227 004a C3F86424 		str	r2, [r3, #1124]
 211:figures.c     ****         table[10][15] = 1;
 1228              		.loc 2 211 0
 1229 004e C3F87424 		str	r2, [r3, #1140]
 212:figures.c     ****         table[10][17] = 1;
 1230              		.loc 2 212 0
 1231 0052 C3F87C24 		str	r2, [r3, #1148]
 213:figures.c     ****         table[10][18] = 1;
 1232              		.loc 2 213 0
 1233 0056 C3F88024 		str	r2, [r3, #1152]
 214:figures.c     ****         table[11][8] = 1;
 1234              		.loc 2 214 0
 1235 005a C3F8C424 		str	r2, [r3, #1220]
 215:figures.c     ****         table[11][9] = 1;
 1236              		.loc 2 215 0
 1237 005e C3F8C824 		str	r2, [r3, #1224]
 216:figures.c     ****         table[11][11] = 1;
 1238              		.loc 2 216 0
 1239 0062 C3F8D024 		str	r2, [r3, #1232]
 217:figures.c     ****         table[11][15] = 1;
 1240              		.loc 2 217 0
 1241 0066 C3F8E024 		str	r2, [r3, #1248]
 218:figures.c     ****         table[12][8] = 1;
 1242              		.loc 2 218 0
 1243 006a C3F83025 		str	r2, [r3, #1328]
 219:figures.c     ****         table[12][9] = 1;
 1244              		.loc 2 219 0
 1245 006e C3F83425 		str	r2, [r3, #1332]
 220:figures.c     ****         table[12][11] = 1;
 1246              		.loc 2 220 0
 1247 0072 C3F83C25 		str	r2, [r3, #1340]
 221:figures.c     ****         table[12][15] = 1;
 1248              		.loc 2 221 0
 1249 0076 C3F84C25 		str	r2, [r3, #1356]
 222:figures.c     ****         table[13][12] = 1;
 1250              		.loc 2 222 0
 1251 007a C3F8AC25 		str	r2, [r3, #1452]
 223:figures.c     ****         table[13][13] = 1;
 1252              		.loc 2 223 0
 1253 007e C3F8B025 		str	r2, [r3, #1456]
 224:figures.c     ****         table[13][14] = 1;
 1254              		.loc 2 224 0
 1255 0082 C3F8B425 		str	r2, [r3, #1460]
 225:figures.c     ****         table[15][12] = 1;
 1256              		.loc 2 225 0
 1257 0086 C3F88426 		str	r2, [r3, #1668]
 226:figures.c     ****         table[15][13] = 1;
 1258              		.loc 2 226 0
 1259 008a C3F88826 		str	r2, [r3, #1672]
 227:figures.c     ****         table[15][15] = 1;
ARM GAS  C:\Users\lenovo\AppData\Local\Temp\ccfgRfuq.s 			page 53


 1260              		.loc 2 227 0
 1261 008e C3F89026 		str	r2, [r3, #1680]
 228:figures.c     ****         table[16][12] = 1;
 1262              		.loc 2 228 0
 1263 0092 C3F8F026 		str	r2, [r3, #1776]
 229:figures.c     ****         table[16][14] = 1;
 1264              		.loc 2 229 0
 1265 0096 C3F8F826 		str	r2, [r3, #1784]
 230:figures.c     ****         table[16][15] = 1;
 1266              		.loc 2 230 0
 1267 009a C3F8FC26 		str	r2, [r3, #1788]
 1268 009e 08BD     		pop	{r3, pc}
 1269              	.L58:
 1270              		.align	2
 1271              	.L57:
 1272 00a0 00000000 		.word	.LANCHOR3
 1273 00a4 00000000 		.word	.LANCHOR2
 1274              		.cfi_endproc
 1275              	.LFE163:
 1277              		.section	.text.setFigureEigth,"ax",%progbits
 1278              		.align	1
 1279              		.global	setFigureEigth
 1280              		.syntax unified
 1281              		.thumb
 1282              		.thumb_func
 1283              		.fpu fpv5-sp-d16
 1285              	setFigureEigth:
 1286              	.LFB164:
 231:figures.c     **** }
 232:figures.c     **** 
 233:figures.c     **** void setFigureEigth(){
 1287              		.loc 2 233 0
 1288              		.cfi_startproc
 1289              		@ args = 0, pretend = 0, frame = 0
 1290              		@ frame_needed = 0, uses_anonymous_args = 0
 1291 0000 08B5     		push	{r3, lr}
 1292              	.LCFI12:
 1293              		.cfi_def_cfa_offset 8
 1294              		.cfi_offset 3, -8
 1295              		.cfi_offset 14, -4
 234:figures.c     **** 		delay = 600;
 1296              		.loc 2 234 0
 1297 0002 4FF41672 		mov	r2, #600
 1298 0006 154B     		ldr	r3, .L61
 1299 0008 1A60     		str	r2, [r3]
 235:figures.c     ****         clearTable();
 1300              		.loc 2 235 0
 1301 000a FFF7FEFF 		bl	clearTable
 1302              	.LVL56:
 236:figures.c     ****         table[9][10] = 1;
 1303              		.loc 2 236 0
 1304 000e 144B     		ldr	r3, .L61+4
 1305 0010 0122     		movs	r2, #1
 1306 0012 C3F8F423 		str	r2, [r3, #1012]
 237:figures.c     ****         table[9][11] = 1;
 1307              		.loc 2 237 0
 1308 0016 C3F8F823 		str	r2, [r3, #1016]
ARM GAS  C:\Users\lenovo\AppData\Local\Temp\ccfgRfuq.s 			page 54


 238:figures.c     ****         table[9][12] = 1;
 1309              		.loc 2 238 0
 1310 001a C3F8FC23 		str	r2, [r3, #1020]
 239:figures.c     ****         table[10][10] = 1;
 1311              		.loc 2 239 0
 1312 001e C3F86024 		str	r2, [r3, #1120]
 240:figures.c     ****         table[10][11] = 1;
 1313              		.loc 2 240 0
 1314 0022 C3F86424 		str	r2, [r3, #1124]
 241:figures.c     ****         table[10][12] = 1;
 1315              		.loc 2 241 0
 1316 0026 C3F86824 		str	r2, [r3, #1128]
 242:figures.c     ****         table[11][10] = 1;
 1317              		.loc 2 242 0
 1318 002a C3F8CC24 		str	r2, [r3, #1228]
 243:figures.c     ****         table[11][11] = 1;
 1319              		.loc 2 243 0
 1320 002e C3F8D024 		str	r2, [r3, #1232]
 244:figures.c     ****         table[11][12] = 1;
 1321              		.loc 2 244 0
 1322 0032 C3F8D424 		str	r2, [r3, #1236]
 245:figures.c     ****         table[12][13] = 1;
 1323              		.loc 2 245 0
 1324 0036 C3F84425 		str	r2, [r3, #1348]
 246:figures.c     ****         table[12][14] = 1;
 1325              		.loc 2 246 0
 1326 003a C3F84825 		str	r2, [r3, #1352]
 247:figures.c     ****         table[12][15] = 1;
 1327              		.loc 2 247 0
 1328 003e C3F84C25 		str	r2, [r3, #1356]
 248:figures.c     ****         table[13][13] = 1;
 1329              		.loc 2 248 0
 1330 0042 C3F8B025 		str	r2, [r3, #1456]
 249:figures.c     ****         table[13][14] = 1;
 1331              		.loc 2 249 0
 1332 0046 C3F8B425 		str	r2, [r3, #1460]
 250:figures.c     ****         table[13][15] = 1;
 1333              		.loc 2 250 0
 1334 004a C3F8B825 		str	r2, [r3, #1464]
 251:figures.c     ****         table[14][13] = 1;
 1335              		.loc 2 251 0
 1336 004e C3F81C26 		str	r2, [r3, #1564]
 252:figures.c     ****         table[14][14] = 1;
 1337              		.loc 2 252 0
 1338 0052 C3F82026 		str	r2, [r3, #1568]
 253:figures.c     ****         table[14][15] = 1;
 1339              		.loc 2 253 0
 1340 0056 C3F82426 		str	r2, [r3, #1572]
 1341 005a 08BD     		pop	{r3, pc}
 1342              	.L62:
 1343              		.align	2
 1344              	.L61:
 1345 005c 00000000 		.word	.LANCHOR3
 1346 0060 00000000 		.word	.LANCHOR2
 1347              		.cfi_endproc
 1348              	.LFE164:
 1350              		.section	.text.setCopperhead,"ax",%progbits
ARM GAS  C:\Users\lenovo\AppData\Local\Temp\ccfgRfuq.s 			page 55


 1351              		.align	1
 1352              		.global	setCopperhead
 1353              		.syntax unified
 1354              		.thumb
 1355              		.thumb_func
 1356              		.fpu fpv5-sp-d16
 1358              	setCopperhead:
 1359              	.LFB165:
 254:figures.c     **** }
 255:figures.c     **** 
 256:figures.c     **** void setCopperhead(){
 1360              		.loc 2 256 0
 1361              		.cfi_startproc
 1362              		@ args = 0, pretend = 0, frame = 0
 1363              		@ frame_needed = 0, uses_anonymous_args = 0
 1364 0000 08B5     		push	{r3, lr}
 1365              	.LCFI13:
 1366              		.cfi_def_cfa_offset 8
 1367              		.cfi_offset 3, -8
 1368              		.cfi_offset 14, -4
 257:figures.c     **** 		delay = 100;
 1369              		.loc 2 257 0
 1370 0002 6422     		movs	r2, #100
 1371 0004 1F4B     		ldr	r3, .L65
 1372 0006 1A60     		str	r2, [r3]
 258:figures.c     ****         clearTable();
 1373              		.loc 2 258 0
 1374 0008 FFF7FEFF 		bl	clearTable
 1375              	.LVL57:
 259:figures.c     ****         table[12][12] = 1;
 1376              		.loc 2 259 0
 1377 000c 1E4B     		ldr	r3, .L65+4
 1378 000e 0122     		movs	r2, #1
 1379 0010 C3F84025 		str	r2, [r3, #1344]
 260:figures.c     ****         table[12][13] = 1;
 1380              		.loc 2 260 0
 1381 0014 C3F84425 		str	r2, [r3, #1348]
 261:figures.c     ****         table[13][12] = 1;
 1382              		.loc 2 261 0
 1383 0018 C3F8AC25 		str	r2, [r3, #1452]
 262:figures.c     ****         table[13][13] = 1;
 1384              		.loc 2 262 0
 1385 001c C3F8B025 		str	r2, [r3, #1456]
 263:figures.c     ****         table[14][11] = 1;
 1386              		.loc 2 263 0
 1387 0020 C3F81426 		str	r2, [r3, #1556]
 264:figures.c     ****         table[14][14] = 1;
 1388              		.loc 2 264 0
 1389 0024 C3F82026 		str	r2, [r3, #1568]
 265:figures.c     ****         table[15][11] = 1;
 1390              		.loc 2 265 0
 1391 0028 C3F88026 		str	r2, [r3, #1664]
 266:figures.c     ****         table[15][12] = 1;
 1392              		.loc 2 266 0
 1393 002c C3F88426 		str	r2, [r3, #1668]
 267:figures.c     ****         table[15][13] = 1;
 1394              		.loc 2 267 0
ARM GAS  C:\Users\lenovo\AppData\Local\Temp\ccfgRfuq.s 			page 56


 1395 0030 C3F88826 		str	r2, [r3, #1672]
 268:figures.c     ****         table[15][14] = 1;
 1396              		.loc 2 268 0
 1397 0034 C3F88C26 		str	r2, [r3, #1676]
 269:figures.c     ****         table[16][10] = 1;
 1398              		.loc 2 269 0
 1399 0038 C3F8E826 		str	r2, [r3, #1768]
 270:figures.c     ****         table[16][12] = 1;
 1400              		.loc 2 270 0
 1401 003c C3F8F026 		str	r2, [r3, #1776]
 271:figures.c     ****         table[16][13] = 1;
 1402              		.loc 2 271 0
 1403 0040 C3F8F426 		str	r2, [r3, #1780]
 272:figures.c     ****         table[16][15] = 1;
 1404              		.loc 2 272 0
 1405 0044 C3F8FC26 		str	r2, [r3, #1788]
 273:figures.c     ****         table[17][11] = 1;
 1406              		.loc 2 273 0
 1407 0048 C3F85827 		str	r2, [r3, #1880]
 274:figures.c     ****         table[17][14] = 1;
 1408              		.loc 2 274 0
 1409 004c C3F86427 		str	r2, [r3, #1892]
 275:figures.c     ****         table[19][10] = 1;
 1410              		.loc 2 275 0
 1411 0050 C3F82C28 		str	r2, [r3, #2092]
 276:figures.c     ****         table[19][11] = 1;
 1412              		.loc 2 276 0
 1413 0054 C3F83028 		str	r2, [r3, #2096]
 277:figures.c     ****         table[19][14] = 1;
 1414              		.loc 2 277 0
 1415 0058 C3F83C28 		str	r2, [r3, #2108]
 278:figures.c     ****         table[19][15] = 1;
 1416              		.loc 2 278 0
 1417 005c C3F84028 		str	r2, [r3, #2112]
 279:figures.c     ****         table[20][9] = 1;
 1418              		.loc 2 279 0
 1419 0060 C3F89428 		str	r2, [r3, #2196]
 280:figures.c     ****         table[20][16] = 1;
 1420              		.loc 2 280 0
 1421 0064 C3F8B028 		str	r2, [r3, #2224]
 281:figures.c     ****         table[22][10] = 1;
 1422              		.loc 2 281 0
 1423 0068 C3F87029 		str	r2, [r3, #2416]
 282:figures.c     ****         table[22][15] = 1;
 1424              		.loc 2 282 0
 1425 006c C3F88429 		str	r2, [r3, #2436]
 283:figures.c     ****         table[23][11] = 1;
 1426              		.loc 2 283 0
 1427 0070 C3F8E029 		str	r2, [r3, #2528]
 284:figures.c     ****         table[23][14] = 1;
 1428              		.loc 2 284 0
 1429 0074 C3F8EC29 		str	r2, [r3, #2540]
 285:figures.c     ****         table[24][12] = 1;
 1430              		.loc 2 285 0
 1431 0078 C3F8502A 		str	r2, [r3, #2640]
 286:figures.c     ****         table[24][13] = 1;
 1432              		.loc 2 286 0
ARM GAS  C:\Users\lenovo\AppData\Local\Temp\ccfgRfuq.s 			page 57


 1433 007c C3F8542A 		str	r2, [r3, #2644]
 1434 0080 08BD     		pop	{r3, pc}
 1435              	.L66:
 1436 0082 00BF     		.align	2
 1437              	.L65:
 1438 0084 00000000 		.word	.LANCHOR3
 1439 0088 00000000 		.word	.LANCHOR2
 1440              		.cfi_endproc
 1441              	.LFE165:
 1443              		.section	.text.setCloverleaf,"ax",%progbits
 1444              		.align	1
 1445              		.global	setCloverleaf
 1446              		.syntax unified
 1447              		.thumb
 1448              		.thumb_func
 1449              		.fpu fpv5-sp-d16
 1451              	setCloverleaf:
 1452              	.LFB166:
 287:figures.c     **** }
 288:figures.c     **** 
 289:figures.c     **** void setCloverleaf(){
 1453              		.loc 2 289 0
 1454              		.cfi_startproc
 1455              		@ args = 0, pretend = 0, frame = 0
 1456              		@ frame_needed = 0, uses_anonymous_args = 0
 1457 0000 08B5     		push	{r3, lr}
 1458              	.LCFI14:
 1459              		.cfi_def_cfa_offset 8
 1460              		.cfi_offset 3, -8
 1461              		.cfi_offset 14, -4
 290:figures.c     **** 		delay = 800;
 1462              		.loc 2 290 0
 1463 0002 4FF44872 		mov	r2, #800
 1464 0006 2B4B     		ldr	r3, .L69
 1465 0008 1A60     		str	r2, [r3]
 291:figures.c     ****         clearTable();
 1466              		.loc 2 291 0
 1467 000a FFF7FEFF 		bl	clearTable
 1468              	.LVL58:
 292:figures.c     ****         table[9][12] = 1;
 1469              		.loc 2 292 0
 1470 000e 2A4B     		ldr	r3, .L69+4
 1471 0010 0122     		movs	r2, #1
 1472 0012 C3F8FC23 		str	r2, [r3, #1020]
 293:figures.c     ****         table[9][14] = 1;
 1473              		.loc 2 293 0
 1474 0016 C3F80424 		str	r2, [r3, #1028]
 294:figures.c     ****         table[10][10] = 1;
 1475              		.loc 2 294 0
 1476 001a C3F86024 		str	r2, [r3, #1120]
 295:figures.c     ****         table[10][11] = 1;
 1477              		.loc 2 295 0
 1478 001e C3F86424 		str	r2, [r3, #1124]
 296:figures.c     ****         table[10][12] = 1;
 1479              		.loc 2 296 0
 1480 0022 C3F86824 		str	r2, [r3, #1128]
 297:figures.c     ****         table[10][14] = 1;
ARM GAS  C:\Users\lenovo\AppData\Local\Temp\ccfgRfuq.s 			page 58


 1481              		.loc 2 297 0
 1482 0026 C3F87024 		str	r2, [r3, #1136]
 298:figures.c     ****         table[10][15] = 1;
 1483              		.loc 2 298 0
 1484 002a C3F87424 		str	r2, [r3, #1140]
 299:figures.c     ****         table[10][16] = 1;
 1485              		.loc 2 299 0
 1486 002e C3F87824 		str	r2, [r3, #1144]
 300:figures.c     ****         table[11][9] = 1;
 1487              		.loc 2 300 0
 1488 0032 C3F8C824 		str	r2, [r3, #1224]
 301:figures.c     ****         table[11][13] = 1;
 1489              		.loc 2 301 0
 1490 0036 C3F8D824 		str	r2, [r3, #1240]
 302:figures.c     ****         table[11][17] = 1;
 1491              		.loc 2 302 0
 1492 003a C3F8E824 		str	r2, [r3, #1256]
 303:figures.c     ****         table[12][9] = 1;
 1493              		.loc 2 303 0
 1494 003e C3F83425 		str	r2, [r3, #1332]
 304:figures.c     ****         table[12][11] = 1;
 1495              		.loc 2 304 0
 1496 0042 C3F83C25 		str	r2, [r3, #1340]
 305:figures.c     ****         table[12][15] = 1;
 1497              		.loc 2 305 0
 1498 0046 C3F84C25 		str	r2, [r3, #1356]
 306:figures.c     ****         table[12][17] = 1;
 1499              		.loc 2 306 0
 1500 004a C3F85425 		str	r2, [r3, #1364]
 307:figures.c     ****         table[13][10] = 1;
 1501              		.loc 2 307 0
 1502 004e C3F8A425 		str	r2, [r3, #1444]
 308:figures.c     ****         table[13][11] = 1;
 1503              		.loc 2 308 0
 1504 0052 C3F8A825 		str	r2, [r3, #1448]
 309:figures.c     ****         table[13][13] = 1;
 1505              		.loc 2 309 0
 1506 0056 C3F8B025 		str	r2, [r3, #1456]
 310:figures.c     ****         table[13][15] = 1;
 1507              		.loc 2 310 0
 1508 005a C3F8B825 		str	r2, [r3, #1464]
 311:figures.c     ****         table[13][16] = 1;
 1509              		.loc 2 311 0
 1510 005e C3F8BC25 		str	r2, [r3, #1468]
 312:figures.c     ****         table[15][10] = 1;
 1511              		.loc 2 312 0
 1512 0062 C3F87C26 		str	r2, [r3, #1660]
 313:figures.c     ****         table[15][11] = 1;
 1513              		.loc 2 313 0
 1514 0066 C3F88026 		str	r2, [r3, #1664]
 314:figures.c     ****         table[15][13] = 1;
 1515              		.loc 2 314 0
 1516 006a C3F88826 		str	r2, [r3, #1672]
 315:figures.c     ****         table[15][15] = 1;
 1517              		.loc 2 315 0
 1518 006e C3F89026 		str	r2, [r3, #1680]
 316:figures.c     ****         table[15][16] = 1;
ARM GAS  C:\Users\lenovo\AppData\Local\Temp\ccfgRfuq.s 			page 59


 1519              		.loc 2 316 0
 1520 0072 C3F89426 		str	r2, [r3, #1684]
 317:figures.c     ****         table[16][9] = 1;
 1521              		.loc 2 317 0
 1522 0076 C3F8E426 		str	r2, [r3, #1764]
 318:figures.c     ****         table[16][11] = 1;
 1523              		.loc 2 318 0
 1524 007a C3F8EC26 		str	r2, [r3, #1772]
 319:figures.c     ****         table[16][15] = 1;
 1525              		.loc 2 319 0
 1526 007e C3F8FC26 		str	r2, [r3, #1788]
 320:figures.c     ****         table[16][17] = 1;
 1527              		.loc 2 320 0
 1528 0082 C3F80427 		str	r2, [r3, #1796]
 321:figures.c     ****         table[17][9] = 1;
 1529              		.loc 2 321 0
 1530 0086 C3F85027 		str	r2, [r3, #1872]
 322:figures.c     ****         table[17][13] = 1;
 1531              		.loc 2 322 0
 1532 008a C3F86027 		str	r2, [r3, #1888]
 323:figures.c     ****         table[17][17] = 1;
 1533              		.loc 2 323 0
 1534 008e C3F87027 		str	r2, [r3, #1904]
 324:figures.c     ****         table[18][10] = 1;
 1535              		.loc 2 324 0
 1536 0092 C3F8C027 		str	r2, [r3, #1984]
 325:figures.c     ****         table[18][11] = 1;
 1537              		.loc 2 325 0
 1538 0096 C3F8C427 		str	r2, [r3, #1988]
 326:figures.c     ****         table[18][12] = 1;
 1539              		.loc 2 326 0
 1540 009a C3F8C827 		str	r2, [r3, #1992]
 327:figures.c     ****         table[18][14] = 1;
 1541              		.loc 2 327 0
 1542 009e C3F8D027 		str	r2, [r3, #2000]
 328:figures.c     ****         table[18][15] = 1;
 1543              		.loc 2 328 0
 1544 00a2 C3F8D427 		str	r2, [r3, #2004]
 329:figures.c     ****         table[18][16] = 1;
 1545              		.loc 2 329 0
 1546 00a6 C3F8D827 		str	r2, [r3, #2008]
 330:figures.c     ****         table[19][12] = 1;
 1547              		.loc 2 330 0
 1548 00aa C3F83428 		str	r2, [r3, #2100]
 331:figures.c     ****         table[19][14] = 1;
 1549              		.loc 2 331 0
 1550 00ae C3F83C28 		str	r2, [r3, #2108]
 1551 00b2 08BD     		pop	{r3, pc}
 1552              	.L70:
 1553              		.align	2
 1554              	.L69:
 1555 00b4 00000000 		.word	.LANCHOR3
 1556 00b8 00000000 		.word	.LANCHOR2
 1557              		.cfi_endproc
 1558              	.LFE166:
 1560              		.section	.text.setLWSS,"ax",%progbits
 1561              		.align	1
ARM GAS  C:\Users\lenovo\AppData\Local\Temp\ccfgRfuq.s 			page 60


 1562              		.global	setLWSS
 1563              		.syntax unified
 1564              		.thumb
 1565              		.thumb_func
 1566              		.fpu fpv5-sp-d16
 1568              	setLWSS:
 1569              	.LFB167:
 332:figures.c     **** }
 333:figures.c     **** 
 334:figures.c     **** void setLWSS(){
 1570              		.loc 2 334 0
 1571              		.cfi_startproc
 1572              		@ args = 0, pretend = 0, frame = 0
 1573              		@ frame_needed = 0, uses_anonymous_args = 0
 1574 0000 08B5     		push	{r3, lr}
 1575              	.LCFI15:
 1576              		.cfi_def_cfa_offset 8
 1577              		.cfi_offset 3, -8
 1578              		.cfi_offset 14, -4
 335:figures.c     **** 		delay = 100;
 1579              		.loc 2 335 0
 1580 0002 6422     		movs	r2, #100
 1581 0004 0F4B     		ldr	r3, .L73
 1582 0006 1A60     		str	r2, [r3]
 336:figures.c     ****         clearTable();
 1583              		.loc 2 336 0
 1584 0008 FFF7FEFF 		bl	clearTable
 1585              	.LVL59:
 337:figures.c     ****         table[7][3] = 1;
 1586              		.loc 2 337 0
 1587 000c 0E4B     		ldr	r3, .L73+4
 1588 000e 0122     		movs	r2, #1
 1589 0010 C3F80023 		str	r2, [r3, #768]
 338:figures.c     ****         table[7][4] = 1;
 1590              		.loc 2 338 0
 1591 0014 C3F80423 		str	r2, [r3, #772]
 339:figures.c     ****         table[8][1] = 1;
 1592              		.loc 2 339 0
 1593 0018 C3F86423 		str	r2, [r3, #868]
 340:figures.c     ****         table[8][2] = 1;
 1594              		.loc 2 340 0
 1595 001c C3F86823 		str	r2, [r3, #872]
 341:figures.c     ****         table[8][4] = 1;
 1596              		.loc 2 341 0
 1597 0020 C3F87023 		str	r2, [r3, #880]
 342:figures.c     ****         table[8][5] = 1;
 1598              		.loc 2 342 0
 1599 0024 C3F87423 		str	r2, [r3, #884]
 343:figures.c     ****         table[9][1] = 1;
 1600              		.loc 2 343 0
 1601 0028 C3F8D023 		str	r2, [r3, #976]
 344:figures.c     ****         table[9][2] = 1;
 1602              		.loc 2 344 0
 1603 002c C3F8D423 		str	r2, [r3, #980]
 345:figures.c     ****         table[9][3] = 1;
 1604              		.loc 2 345 0
 1605 0030 C3F8D823 		str	r2, [r3, #984]
ARM GAS  C:\Users\lenovo\AppData\Local\Temp\ccfgRfuq.s 			page 61


 346:figures.c     ****         table[9][4] = 1;
 1606              		.loc 2 346 0
 1607 0034 C3F8DC23 		str	r2, [r3, #988]
 347:figures.c     ****         table[10][2] = 1;
 1608              		.loc 2 347 0
 1609 0038 C3F84024 		str	r2, [r3, #1088]
 348:figures.c     ****         table[10][3] = 1;
 1610              		.loc 2 348 0
 1611 003c C3F84424 		str	r2, [r3, #1092]
 1612 0040 08BD     		pop	{r3, pc}
 1613              	.L74:
 1614 0042 00BF     		.align	2
 1615              	.L73:
 1616 0044 00000000 		.word	.LANCHOR3
 1617 0048 00000000 		.word	.LANCHOR2
 1618              		.cfi_endproc
 1619              	.LFE167:
 1621              		.section	.text.setBeacon,"ax",%progbits
 1622              		.align	1
 1623              		.global	setBeacon
 1624              		.syntax unified
 1625              		.thumb
 1626              		.thumb_func
 1627              		.fpu fpv5-sp-d16
 1629              	setBeacon:
 1630              	.LFB168:
 349:figures.c     **** }
 350:figures.c     **** 
 351:figures.c     **** void setBeacon(){
 1631              		.loc 2 351 0
 1632              		.cfi_startproc
 1633              		@ args = 0, pretend = 0, frame = 0
 1634              		@ frame_needed = 0, uses_anonymous_args = 0
 1635 0000 08B5     		push	{r3, lr}
 1636              	.LCFI16:
 1637              		.cfi_def_cfa_offset 8
 1638              		.cfi_offset 3, -8
 1639              		.cfi_offset 14, -4
 352:figures.c     **** 		delay = 1000;
 1640              		.loc 2 352 0
 1641 0002 4FF47A72 		mov	r2, #1000
 1642 0006 094B     		ldr	r3, .L77
 1643 0008 1A60     		str	r2, [r3]
 353:figures.c     ****         clearTable();
 1644              		.loc 2 353 0
 1645 000a FFF7FEFF 		bl	clearTable
 1646              	.LVL60:
 354:figures.c     ****         table[12][11] = 1;
 1647              		.loc 2 354 0
 1648 000e 084B     		ldr	r3, .L77+4
 1649 0010 0122     		movs	r2, #1
 1650 0012 C3F83C25 		str	r2, [r3, #1340]
 355:figures.c     ****         table[12][12] = 1;
 1651              		.loc 2 355 0
 1652 0016 C3F84025 		str	r2, [r3, #1344]
 356:figures.c     ****         table[13][11] = 1;
 1653              		.loc 2 356 0
ARM GAS  C:\Users\lenovo\AppData\Local\Temp\ccfgRfuq.s 			page 62


 1654 001a C3F8A825 		str	r2, [r3, #1448]
 357:figures.c     ****         table[14][14] = 1;
 1655              		.loc 2 357 0
 1656 001e C3F82026 		str	r2, [r3, #1568]
 358:figures.c     ****         table[15][13] = 1;
 1657              		.loc 2 358 0
 1658 0022 C3F88826 		str	r2, [r3, #1672]
 359:figures.c     ****         table[15][14] = 1;
 1659              		.loc 2 359 0
 1660 0026 C3F88C26 		str	r2, [r3, #1676]
 1661 002a 08BD     		pop	{r3, pc}
 1662              	.L78:
 1663              		.align	2
 1664              	.L77:
 1665 002c 00000000 		.word	.LANCHOR3
 1666 0030 00000000 		.word	.LANCHOR2
 1667              		.cfi_endproc
 1668              	.LFE168:
 1670              		.section	.text.setPulsar,"ax",%progbits
 1671              		.align	1
 1672              		.global	setPulsar
 1673              		.syntax unified
 1674              		.thumb
 1675              		.thumb_func
 1676              		.fpu fpv5-sp-d16
 1678              	setPulsar:
 1679              	.LFB169:
 360:figures.c     **** }
 361:figures.c     **** 
 362:figures.c     **** void setPulsar(){
 1680              		.loc 2 362 0
 1681              		.cfi_startproc
 1682              		@ args = 0, pretend = 0, frame = 0
 1683              		@ frame_needed = 0, uses_anonymous_args = 0
 1684 0000 08B5     		push	{r3, lr}
 1685              	.LCFI17:
 1686              		.cfi_def_cfa_offset 8
 1687              		.cfi_offset 3, -8
 1688              		.cfi_offset 14, -4
 363:figures.c     **** 		delay = 800;
 1689              		.loc 2 363 0
 1690 0002 4FF44872 		mov	r2, #800
 1691 0006 334B     		ldr	r3, .L81
 1692 0008 1A60     		str	r2, [r3]
 364:figures.c     ****         clearTable();
 1693              		.loc 2 364 0
 1694 000a FFF7FEFF 		bl	clearTable
 1695              	.LVL61:
 365:figures.c     ****         table[6][9] = 1;
 1696              		.loc 2 365 0
 1697 000e 324B     		ldr	r3, .L81+4
 1698 0010 0122     		movs	r2, #1
 1699 0012 C3F8AC22 		str	r2, [r3, #684]
 366:figures.c     ****         table[6][10] = 1;
 1700              		.loc 2 366 0
 1701 0016 C3F8B022 		str	r2, [r3, #688]
 367:figures.c     ****         table[6][11] = 1;
ARM GAS  C:\Users\lenovo\AppData\Local\Temp\ccfgRfuq.s 			page 63


 1702              		.loc 2 367 0
 1703 001a C3F8B422 		str	r2, [r3, #692]
 368:figures.c     ****         table[6][15] = 1;
 1704              		.loc 2 368 0
 1705 001e C3F8C422 		str	r2, [r3, #708]
 369:figures.c     ****         table[6][16] = 1;
 1706              		.loc 2 369 0
 1707 0022 C3F8C822 		str	r2, [r3, #712]
 370:figures.c     ****         table[6][17] = 1;
 1708              		.loc 2 370 0
 1709 0026 C3F8CC22 		str	r2, [r3, #716]
 371:figures.c     ****         table[8][7] = 1;
 1710              		.loc 2 371 0
 1711 002a C3F87C23 		str	r2, [r3, #892]
 372:figures.c     ****         table[8][12] = 1;
 1712              		.loc 2 372 0
 1713 002e C3F89023 		str	r2, [r3, #912]
 373:figures.c     ****         table[8][14] = 1;
 1714              		.loc 2 373 0
 1715 0032 C3F89823 		str	r2, [r3, #920]
 374:figures.c     ****         table[8][19] = 1;
 1716              		.loc 2 374 0
 1717 0036 C3F8AC23 		str	r2, [r3, #940]
 375:figures.c     ****         table[9][7] = 1;
 1718              		.loc 2 375 0
 1719 003a C3F8E823 		str	r2, [r3, #1000]
 376:figures.c     ****         table[9][12] = 1;
 1720              		.loc 2 376 0
 1721 003e C3F8FC23 		str	r2, [r3, #1020]
 377:figures.c     ****         table[9][14] = 1;
 1722              		.loc 2 377 0
 1723 0042 C3F80424 		str	r2, [r3, #1028]
 378:figures.c     ****         table[9][19] = 1;
 1724              		.loc 2 378 0
 1725 0046 C3F81824 		str	r2, [r3, #1048]
 379:figures.c     ****         table[10][7] = 1;
 1726              		.loc 2 379 0
 1727 004a C3F85424 		str	r2, [r3, #1108]
 380:figures.c     ****         table[10][12] = 1;
 1728              		.loc 2 380 0
 1729 004e C3F86824 		str	r2, [r3, #1128]
 381:figures.c     ****         table[10][14] = 1;
 1730              		.loc 2 381 0
 1731 0052 C3F87024 		str	r2, [r3, #1136]
 382:figures.c     ****         table[10][19] = 1;
 1732              		.loc 2 382 0
 1733 0056 C3F88424 		str	r2, [r3, #1156]
 383:figures.c     ****         table[11][9] = 1;
 1734              		.loc 2 383 0
 1735 005a C3F8C824 		str	r2, [r3, #1224]
 384:figures.c     ****         table[11][10] = 1;
 1736              		.loc 2 384 0
 1737 005e C3F8CC24 		str	r2, [r3, #1228]
 385:figures.c     ****         table[11][11] = 1;
 1738              		.loc 2 385 0
 1739 0062 C3F8D024 		str	r2, [r3, #1232]
 386:figures.c     ****         table[11][15] = 1;
ARM GAS  C:\Users\lenovo\AppData\Local\Temp\ccfgRfuq.s 			page 64


 1740              		.loc 2 386 0
 1741 0066 C3F8E024 		str	r2, [r3, #1248]
 387:figures.c     ****         table[11][16] = 1;
 1742              		.loc 2 387 0
 1743 006a C3F8E424 		str	r2, [r3, #1252]
 388:figures.c     ****         table[11][17] = 1;
 1744              		.loc 2 388 0
 1745 006e C3F8E824 		str	r2, [r3, #1256]
 389:figures.c     ****         table[13][9] = 1;
 1746              		.loc 2 389 0
 1747 0072 C3F8A025 		str	r2, [r3, #1440]
 390:figures.c     ****         table[13][10] = 1;
 1748              		.loc 2 390 0
 1749 0076 C3F8A425 		str	r2, [r3, #1444]
 391:figures.c     ****         table[13][11] = 1;
 1750              		.loc 2 391 0
 1751 007a C3F8A825 		str	r2, [r3, #1448]
 392:figures.c     ****         table[13][15] = 1;
 1752              		.loc 2 392 0
 1753 007e C3F8B825 		str	r2, [r3, #1464]
 393:figures.c     ****         table[13][16] = 1;
 1754              		.loc 2 393 0
 1755 0082 C3F8BC25 		str	r2, [r3, #1468]
 394:figures.c     ****         table[13][17] = 1;
 1756              		.loc 2 394 0
 1757 0086 C3F8C025 		str	r2, [r3, #1472]
 395:figures.c     ****         table[14][7] = 1;
 1758              		.loc 2 395 0
 1759 008a C3F80426 		str	r2, [r3, #1540]
 396:figures.c     ****         table[14][12] = 1;
 1760              		.loc 2 396 0
 1761 008e C3F81826 		str	r2, [r3, #1560]
 397:figures.c     ****         table[14][14] = 1;
 1762              		.loc 2 397 0
 1763 0092 C3F82026 		str	r2, [r3, #1568]
 398:figures.c     ****         table[14][19] = 1;
 1764              		.loc 2 398 0
 1765 0096 C3F83426 		str	r2, [r3, #1588]
 399:figures.c     ****         table[15][7] = 1;
 1766              		.loc 2 399 0
 1767 009a C3F87026 		str	r2, [r3, #1648]
 400:figures.c     ****         table[15][12] = 1;
 1768              		.loc 2 400 0
 1769 009e C3F88426 		str	r2, [r3, #1668]
 401:figures.c     ****         table[15][14] = 1;
 1770              		.loc 2 401 0
 1771 00a2 C3F88C26 		str	r2, [r3, #1676]
 402:figures.c     ****         table[15][19] = 1;
 1772              		.loc 2 402 0
 1773 00a6 C3F8A026 		str	r2, [r3, #1696]
 403:figures.c     ****         table[16][7] = 1;
 1774              		.loc 2 403 0
 1775 00aa C3F8DC26 		str	r2, [r3, #1756]
 404:figures.c     ****         table[16][12] = 1;
 1776              		.loc 2 404 0
 1777 00ae C3F8F026 		str	r2, [r3, #1776]
 405:figures.c     ****         table[16][14] = 1;
ARM GAS  C:\Users\lenovo\AppData\Local\Temp\ccfgRfuq.s 			page 65


 1778              		.loc 2 405 0
 1779 00b2 C3F8F826 		str	r2, [r3, #1784]
 406:figures.c     ****         table[16][19] = 1;
 1780              		.loc 2 406 0
 1781 00b6 C3F80C27 		str	r2, [r3, #1804]
 407:figures.c     ****         table[18][9] = 1;
 1782              		.loc 2 407 0
 1783 00ba C3F8BC27 		str	r2, [r3, #1980]
 408:figures.c     ****         table[18][10] = 1;
 1784              		.loc 2 408 0
 1785 00be C3F8C027 		str	r2, [r3, #1984]
 409:figures.c     ****         table[18][11] = 1;
 1786              		.loc 2 409 0
 1787 00c2 C3F8C427 		str	r2, [r3, #1988]
 410:figures.c     ****         table[18][15] = 1;
 1788              		.loc 2 410 0
 1789 00c6 C3F8D427 		str	r2, [r3, #2004]
 411:figures.c     ****         table[18][16] = 1;
 1790              		.loc 2 411 0
 1791 00ca C3F8D827 		str	r2, [r3, #2008]
 412:figures.c     ****         table[18][17] = 1;
 1792              		.loc 2 412 0
 1793 00ce C3F8DC27 		str	r2, [r3, #2012]
 1794 00d2 08BD     		pop	{r3, pc}
 1795              	.L82:
 1796              		.align	2
 1797              	.L81:
 1798 00d4 00000000 		.word	.LANCHOR3
 1799 00d8 00000000 		.word	.LANCHOR2
 1800              		.cfi_endproc
 1801              	.LFE169:
 1803              		.section	.text.setCrocodile,"ax",%progbits
 1804              		.align	1
 1805              		.global	setCrocodile
 1806              		.syntax unified
 1807              		.thumb
 1808              		.thumb_func
 1809              		.fpu fpv5-sp-d16
 1811              	setCrocodile:
 1812              	.LFB170:
 413:figures.c     **** }
 414:figures.c     **** 
 415:figures.c     ****   void setCrocodile(){
 1813              		.loc 2 415 0
 1814              		.cfi_startproc
 1815              		@ args = 0, pretend = 0, frame = 0
 1816              		@ frame_needed = 0, uses_anonymous_args = 0
 1817 0000 08B5     		push	{r3, lr}
 1818              	.LCFI18:
 1819              		.cfi_def_cfa_offset 8
 1820              		.cfi_offset 3, -8
 1821              		.cfi_offset 14, -4
 416:figures.c     **** 	delay = 300;
 1822              		.loc 2 416 0
 1823 0002 4FF49672 		mov	r2, #300
 1824 0006 154B     		ldr	r3, .L85
 1825 0008 1A60     		str	r2, [r3]
ARM GAS  C:\Users\lenovo\AppData\Local\Temp\ccfgRfuq.s 			page 66


 417:figures.c     **** 	clearTable();
 1826              		.loc 2 417 0
 1827 000a FFF7FEFF 		bl	clearTable
 1828              	.LVL62:
 418:figures.c     **** 	table[8][13]=1;
 1829              		.loc 2 418 0
 1830 000e 144B     		ldr	r3, .L85+4
 1831 0010 0122     		movs	r2, #1
 1832 0012 C3F89423 		str	r2, [r3, #916]
 419:figures.c     **** 	table[9][12]=1;
 1833              		.loc 2 419 0
 1834 0016 C3F8FC23 		str	r2, [r3, #1020]
 420:figures.c     **** 	table[10][11]=1;
 1835              		.loc 2 420 0
 1836 001a C3F86424 		str	r2, [r3, #1124]
 421:figures.c     **** 	table[11][11]=1;
 1837              		.loc 2 421 0
 1838 001e C3F8D024 		str	r2, [r3, #1232]
 422:figures.c     **** 	table[12][11]=1;
 1839              		.loc 2 422 0
 1840 0022 C3F83C25 		str	r2, [r3, #1340]
 423:figures.c     **** 	table[13][11]=1;
 1841              		.loc 2 423 0
 1842 0026 C3F8A825 		str	r2, [r3, #1448]
 424:figures.c     **** 	table[14][11]=1;
 1843              		.loc 2 424 0
 1844 002a C3F81426 		str	r2, [r3, #1556]
 425:figures.c     **** 	table[15][11]=1;
 1845              		.loc 2 425 0
 1846 002e C3F88026 		str	r2, [r3, #1664]
 426:figures.c     **** 	table[16][12]=1;
 1847              		.loc 2 426 0
 1848 0032 C3F8F026 		str	r2, [r3, #1776]
 427:figures.c     **** 	table[17][13]=1;
 1849              		.loc 2 427 0
 1850 0036 C3F86027 		str	r2, [r3, #1888]
 428:figures.c     **** 	table[16][14]=1;
 1851              		.loc 2 428 0
 1852 003a C3F8F826 		str	r2, [r3, #1784]
 429:figures.c     **** 	table[15][15]=1;
 1853              		.loc 2 429 0
 1854 003e C3F89026 		str	r2, [r3, #1680]
 430:figures.c     **** 	table[14][15]=1;
 1855              		.loc 2 430 0
 1856 0042 C3F82426 		str	r2, [r3, #1572]
 431:figures.c     **** 	table[13][15]=1;
 1857              		.loc 2 431 0
 1858 0046 C3F8B825 		str	r2, [r3, #1464]
 432:figures.c     **** 	table[12][15]=1;
 1859              		.loc 2 432 0
 1860 004a C3F84C25 		str	r2, [r3, #1356]
 433:figures.c     **** 	table[11][15]=1;
 1861              		.loc 2 433 0
 1862 004e C3F8E024 		str	r2, [r3, #1248]
 434:figures.c     **** 	table[9][14]=1;
 1863              		.loc 2 434 0
 1864 0052 C3F80424 		str	r2, [r3, #1028]
ARM GAS  C:\Users\lenovo\AppData\Local\Temp\ccfgRfuq.s 			page 67


 435:figures.c     **** 	table[10][15]=1;
 1865              		.loc 2 435 0
 1866 0056 C3F87424 		str	r2, [r3, #1140]
 1867 005a 08BD     		pop	{r3, pc}
 1868              	.L86:
 1869              		.align	2
 1870              	.L85:
 1871 005c 00000000 		.word	.LANCHOR3
 1872 0060 00000000 		.word	.LANCHOR2
 1873              		.cfi_endproc
 1874              	.LFE170:
 1876              		.section	.text.setFountain,"ax",%progbits
 1877              		.align	1
 1878              		.global	setFountain
 1879              		.syntax unified
 1880              		.thumb
 1881              		.thumb_func
 1882              		.fpu fpv5-sp-d16
 1884              	setFountain:
 1885              	.LFB171:
 436:figures.c     ****   }
 437:figures.c     ****   
 438:figures.c     ****   void setFountain(){
 1886              		.loc 2 438 0
 1887              		.cfi_startproc
 1888              		@ args = 0, pretend = 0, frame = 0
 1889              		@ frame_needed = 0, uses_anonymous_args = 0
 1890 0000 08B5     		push	{r3, lr}
 1891              	.LCFI19:
 1892              		.cfi_def_cfa_offset 8
 1893              		.cfi_offset 3, -8
 1894              		.cfi_offset 14, -4
 439:figures.c     **** 	delay = 150;
 1895              		.loc 2 439 0
 1896 0002 9622     		movs	r2, #150
 1897 0004 154B     		ldr	r3, .L89
 1898 0006 1A60     		str	r2, [r3]
 440:figures.c     ****   	clearTable();
 1899              		.loc 2 440 0
 1900 0008 FFF7FEFF 		bl	clearTable
 1901              	.LVL63:
 441:figures.c     **** 	table[9][15]=1;
 1902              		.loc 2 441 0
 1903 000c 144B     		ldr	r3, .L89+4
 1904 000e 0122     		movs	r2, #1
 1905 0010 C3F80824 		str	r2, [r3, #1032]
 442:figures.c     **** 	table[10][16]=1;
 1906              		.loc 2 442 0
 1907 0014 C3F87824 		str	r2, [r3, #1144]
 443:figures.c     **** 	table[11][15]=1;
 1908              		.loc 2 443 0
 1909 0018 C3F8E024 		str	r2, [r3, #1248]
 444:figures.c     **** 	table[11][14]=1;
 1910              		.loc 2 444 0
 1911 001c C3F8DC24 		str	r2, [r3, #1244]
 445:figures.c     **** 	table[12][14]=1;
 1912              		.loc 2 445 0
ARM GAS  C:\Users\lenovo\AppData\Local\Temp\ccfgRfuq.s 			page 68


 1913 0020 C3F84825 		str	r2, [r3, #1352]
 446:figures.c     **** 	table[10][13]=1;
 1914              		.loc 2 446 0
 1915 0024 C3F86C24 		str	r2, [r3, #1132]
 447:figures.c     **** 	table[11][13]=1;
 1916              		.loc 2 447 0
 1917 0028 C3F8D824 		str	r2, [r3, #1240]
 448:figures.c     **** 	table[11][12]=1;
 1918              		.loc 2 448 0
 1919 002c C3F8D424 		str	r2, [r3, #1236]
 449:figures.c     **** 	table[12][12]=1;
 1920              		.loc 2 449 0
 1921 0030 C3F84025 		str	r2, [r3, #1344]
 450:figures.c     **** 	table[14][12]=1;
 1922              		.loc 2 450 0
 1923 0034 C3F81826 		str	r2, [r3, #1560]
 451:figures.c     **** 	table[15][12]=1;
 1924              		.loc 2 451 0
 1925 0038 C3F88426 		str	r2, [r3, #1668]
 452:figures.c     **** 	table[15][13]=1;
 1926              		.loc 2 452 0
 1927 003c C3F88826 		str	r2, [r3, #1672]
 453:figures.c     **** 	table[16][13]=1;
 1928              		.loc 2 453 0
 1929 0040 C3F8F426 		str	r2, [r3, #1780]
 454:figures.c     **** 	table[14][14]=1;
 1930              		.loc 2 454 0
 1931 0044 C3F82026 		str	r2, [r3, #1568]
 455:figures.c     **** 	table[15][14]=1;
 1932              		.loc 2 455 0
 1933 0048 C3F88C26 		str	r2, [r3, #1676]
 456:figures.c     **** 	table[15][15]=1;
 1934              		.loc 2 456 0
 1935 004c C3F89026 		str	r2, [r3, #1680]
 457:figures.c     **** 	table[17][15]=1;
 1936              		.loc 2 457 0
 1937 0050 C3F86827 		str	r2, [r3, #1896]
 458:figures.c     **** 	table[16][16]=1;
 1938              		.loc 2 458 0
 1939 0054 C3F80027 		str	r2, [r3, #1792]
 1940 0058 08BD     		pop	{r3, pc}
 1941              	.L90:
 1942 005a 00BF     		.align	2
 1943              	.L89:
 1944 005c 00000000 		.word	.LANCHOR3
 1945 0060 00000000 		.word	.LANCHOR2
 1946              		.cfi_endproc
 1947              	.LFE171:
 1949              		.section	.text.StartDefaultTask,"ax",%progbits
 1950              		.align	1
 1951              		.global	StartDefaultTask
 1952              		.syntax unified
 1953              		.thumb
 1954              		.thumb_func
 1955              		.fpu fpv5-sp-d16
 1957              	StartDefaultTask:
 1958              	.LFB214:
ARM GAS  C:\Users\lenovo\AppData\Local\Temp\ccfgRfuq.s 			page 69


1477:main.c        **** 
1478:main.c        **** /* USER CODE BEGIN 4 */
1479:main.c        **** #if ENABLE_NETWORK
1480:main.c        **** 
1481:main.c        **** static char response[500];
1482:main.c        **** 
1483:main.c        **** //based on available code examples
1484:main.c        **** static void http_server_serve(struct netconn *conn) 
1485:main.c        **** {
1486:main.c        ****   struct netbuf *inbuf;
1487:main.c        ****   err_t recv_err;
1488:main.c        ****   char* buf;
1489:main.c        ****   u16_t buflen;
1490:main.c        ****   
1491:main.c        ****   /* Read the data from the port, blocking if nothing yet there. 
1492:main.c        ****    We assume the request (the part we care about) is in one netbuf */
1493:main.c        ****   recv_err = netconn_recv(conn, &inbuf);
1494:main.c        ****   
1495:main.c        ****   if (recv_err == ERR_OK)
1496:main.c        ****   {
1497:main.c        ****     if (netconn_err(conn) == ERR_OK) 
1498:main.c        ****     {
1499:main.c        ****       netbuf_data(inbuf, (void**)&buf, &buflen);
1500:main.c        ****     
1501:main.c        ****       /* Is this an HTTP GET command? (only check the first 5 chars, since
1502:main.c        ****       there are other formats for GET, and we're keeping it very simple )*/
1503:main.c        ****       if ((buflen >=5) && (strncmp(buf, "GET /", 5) == 0))
1504:main.c        ****       {
1505:main.c        ****       response[0] = 0;
1506:main.c        **** 
1507:main.c        ****       strcpy(response, "HTTP/1.1 200 OK\r\n\
1508:main.c        ****         Content-Type: text/html\r\n\
1509:main.c        ****         Connnection: close\r\n\r\n\
1510:main.c        ****         <!DOCTYPE HTML>\r\n");
1511:main.c        **** 
1512:main.c        ****       #if 0
1513:main.c        ****       strcat(response,"<html>\r\n\
1514:main.c        ****       <meta http-equiv=\"refresh\" content=\"10\">");
1515:main.c        ****       #endif
1516:main.c        **** 
1517:main.c        ****       strcat(response,"<title>Prosta strona WWW</title>");
1518:main.c        ****       strcat(response,"<h1>H1 Header</h1>");
1519:main.c        **** 
1520:main.c        ****       strcat(response,"A to jest tekst na stronie");
1521:main.c        ****           netconn_write(conn, response, sizeof(response), NETCONN_NOCOPY);
1522:main.c        ****       }
1523:main.c        ****     }
1524:main.c        ****   }
1525:main.c        ****   /* Close the connection (server closes in HTTP) */
1526:main.c        ****   netconn_close(conn);
1527:main.c        ****   
1528:main.c        ****   /* Delete the buffer (netconn_recv gives us ownership,
1529:main.c        ****    so we have to make sure to deallocate the buffer) */
1530:main.c        ****   netbuf_delete(inbuf);
1531:main.c        **** }
1532:main.c        **** 
1533:main.c        **** 
ARM GAS  C:\Users\lenovo\AppData\Local\Temp\ccfgRfuq.s 			page 70


1534:main.c        **** //based on available code examples
1535:main.c        **** static void http_server_netconn_thread(void const *arg)
1536:main.c        **** { 
1537:main.c        ****   struct netconn *conn, *newconn;
1538:main.c        ****   err_t err, accept_err;
1539:main.c        ****   
1540:main.c        ****   xprintf("http_server_netconn_thread\n");
1541:main.c        ****   
1542:main.c        ****   /* Create a new TCP connection handle */
1543:main.c        ****   conn = netconn_new(NETCONN_TCP);
1544:main.c        ****   
1545:main.c        ****   if (conn!= NULL)
1546:main.c        ****   {
1547:main.c        ****     /* Bind to port 80 (HTTP) with default IP address */
1548:main.c        ****     err = netconn_bind(conn, NULL, 80);
1549:main.c        ****     
1550:main.c        ****     if (err == ERR_OK)
1551:main.c        ****     {
1552:main.c        ****       /* Put the connection into LISTEN state */
1553:main.c        ****       netconn_listen(conn);
1554:main.c        ****   
1555:main.c        ****       while(1) 
1556:main.c        ****       {
1557:main.c        ****         /* accept any icoming connection */
1558:main.c        ****         accept_err = netconn_accept(conn, &newconn);
1559:main.c        ****         if(accept_err == ERR_OK)
1560:main.c        ****         {
1561:main.c        ****           /* serve connection */
1562:main.c        ****           http_server_serve(newconn);
1563:main.c        **** 
1564:main.c        ****           /* delete connection */
1565:main.c        ****           netconn_delete(newconn);
1566:main.c        ****         }
1567:main.c        ****       }
1568:main.c        ****     }
1569:main.c        ****   }
1570:main.c        **** }
1571:main.c        **** 
1572:main.c        **** #endif //ENABLE_NETWORK
1573:main.c        **** 
1574:main.c        **** #define AUDIO_OUT_BUFFER_SIZE                      8192
1575:main.c        **** enum {
1576:main.c        ****   BUFFER_OFFSET_NONE = 0,  
1577:main.c        ****   BUFFER_OFFSET_HALF,  
1578:main.c        ****   BUFFER_OFFSET_FULL,     
1579:main.c        **** };
1580:main.c        **** 
1581:main.c        **** uint8_t buff[AUDIO_OUT_BUFFER_SIZE];
1582:main.c        **** extern ApplicationTypeDef Appli_state;
1583:main.c        **** static uint8_t buf_offs = BUFFER_OFFSET_NONE;
1584:main.c        **** 
1585:main.c        **** 
1586:main.c        **** void BSP_AUDIO_OUT_TransferComplete_CallBack(void)
1587:main.c        **** {
1588:main.c        ****     buf_offs = BUFFER_OFFSET_FULL;
1589:main.c        **** }
1590:main.c        **** 
ARM GAS  C:\Users\lenovo\AppData\Local\Temp\ccfgRfuq.s 			page 71


1591:main.c        **** void BSP_AUDIO_OUT_HalfTransfer_CallBack(void)
1592:main.c        **** { 
1593:main.c        ****     buf_offs = BUFFER_OFFSET_HALF;
1594:main.c        **** }
1595:main.c        **** 
1596:main.c        **** 
1597:main.c        **** 
1598:main.c        **** 
1599:main.c        **** /* USER CODE END 4 */
1600:main.c        **** void StartTableTask(){
1601:main.c        ****   lcd_start();
1602:main.c        ****   init_background();
1603:main.c        ****   for(;;)
1604:main.c        ****   {
1605:main.c        **** 	if(drawing_state == -1){
1606:main.c        **** 		init_drawingbackground();
1607:main.c        **** 		while(drawing_state == 1){
1608:main.c        **** 			draw_drawingbackground();
1609:main.c        **** 			vTaskDelay(100);
1610:main.c        **** 		}
1611:main.c        **** 		init_background();
1612:main.c        **** 	}
1613:main.c        **** 	else{
1614:main.c        **** 		if(state_changed){
1615:main.c        **** 			init_background();
1616:main.c        **** 			state_changed = 0;
1617:main.c        **** 		}
1618:main.c        **** 		draw_background();
1619:main.c        **** 		vTaskDelay(delay);
1620:main.c        **** 	}
1621:main.c        ****    }
1622:main.c        **** }
1623:main.c        **** 
1624:main.c        **** /* USER CODE BEGIN Header_StartDefaultTask */
1625:main.c        **** /**
1626:main.c        ****   * @brief  Function implementing the defaultTask thread.
1627:main.c        ****   * @param  argument: Not used 
1628:main.c        ****   * @retval None
1629:main.c        ****   */
1630:main.c        **** /* USER CODE END Header_StartDefaultTask */
1631:main.c        **** void StartDefaultTask(void const * argument)
1632:main.c        **** {
 1959              		.loc 1 1632 0
 1960              		.cfi_startproc
 1961              		@ args = 0, pretend = 0, frame = 24
 1962              		@ frame_needed = 0, uses_anonymous_args = 0
 1963              	.LVL64:
 1964 0000 70B5     		push	{r4, r5, r6, lr}
 1965              	.LCFI20:
 1966              		.cfi_def_cfa_offset 16
 1967              		.cfi_offset 4, -16
 1968              		.cfi_offset 5, -12
 1969              		.cfi_offset 6, -8
 1970              		.cfi_offset 14, -4
 1971 0002 86B0     		sub	sp, sp, #24
 1972              	.LCFI21:
 1973              		.cfi_def_cfa_offset 40
ARM GAS  C:\Users\lenovo\AppData\Local\Temp\ccfgRfuq.s 			page 72


1633:main.c        ****   /* init code for FATFS */
1634:main.c        ****   MX_FATFS_Init();
 1974              		.loc 1 1634 0
 1975 0004 FFF7FEFF 		bl	MX_FATFS_Init
 1976              	.LVL65:
1635:main.c        **** 
1636:main.c        ****   /* init code for USB_HOST */
1637:main.c        ****   MX_USB_HOST_Init();
 1977              		.loc 1 1637 0
 1978 0008 FFF7FEFF 		bl	MX_USB_HOST_Init
 1979              	.LVL66:
1638:main.c        **** 
1639:main.c        ****   /* init code for LWIP */
1640:main.c        ****   #if ENABLE_NETWORK
1641:main.c        ****     MX_LWIP_Init();
1642:main.c        ****   #endif
1643:main.c        ****   /* USER CODE BEGIN 5 */
1644:main.c        ****   #if ENABLE_NETWORK
1645:main.c        ****     osThreadDef(netconn_thread, http_server_netconn_thread, osPriorityNormal, 0, 1024);
1646:main.c        ****     netconn_thread_handle = osThreadCreate(osThread(netconn_thread), NULL);
1647:main.c        ****   #endif
1648:main.c        ****   setGameOfLife();
 1980              		.loc 1 1648 0
 1981 000c FFF7FEFF 		bl	setGameOfLife
 1982              	.LVL67:
1649:main.c        ****   vTaskDelay(1000);
 1983              		.loc 1 1649 0
 1984 0010 4FF47A70 		mov	r0, #1000
 1985 0014 FFF7FEFF 		bl	vTaskDelay
 1986              	.LVL68:
1650:main.c        ****   osThreadDef(tableTask, StartTableTask, osPriorityNormal, 0, 1024);
 1987              		.loc 1 1650 0
 1988 0018 01AC     		add	r4, sp, #4
 1989 001a B94D     		ldr	r5, .L136
 1990 001c 0FCD     		ldmia	r5!, {r0, r1, r2, r3}
 1991 001e 0FC4     		stmia	r4!, {r0, r1, r2, r3}
 1992 0020 2B68     		ldr	r3, [r5]
 1993 0022 2360     		str	r3, [r4]
1651:main.c        ****   tableTaskHandle = osThreadCreate(osThread(tableTask), NULL);
 1994              		.loc 1 1651 0
 1995 0024 0021     		movs	r1, #0
 1996 0026 01A8     		add	r0, sp, #4
 1997 0028 FFF7FEFF 		bl	osThreadCreate
 1998              	.LVL69:
 1999 002c B54B     		ldr	r3, .L136+4
 2000 002e 1860     		str	r0, [r3]
 2001 0030 45E0     		b	.L93
 2002              	.LVL70:
 2003              	.L96:
1652:main.c        ****   int x, y;
1653:main.c        ****   for(;;)
1654:main.c        ****   {
1655:main.c        **** 	vTaskDelay(100);
1656:main.c        **** 	BSP_TS_GetState(&TS_State);
1657:main.c        **** 	if(TS_State.touchDetected)
1658:main.c        **** 	{
1659:main.c        **** 	    x = TS_State.touchX[0];
ARM GAS  C:\Users\lenovo\AppData\Local\Temp\ccfgRfuq.s 			page 73


1660:main.c        **** 		y = TS_State.touchY[0];
1661:main.c        **** 		if(drawing_state != -1){
1662:main.c        **** 			if(x > 365 && x < 395 && y > 0 && y < 21){
1663:main.c        **** 				if(delay < 5000){
1664:main.c        **** 					delay*=5;
1665:main.c        **** 					delay/=4;
 2004              		.loc 1 1665 0
 2005 0032 8910     		asrs	r1, r1, #2
 2006 0034 B44A     		ldr	r2, .L136+8
 2007 0036 1160     		str	r1, [r2]
 2008              	.L95:
1666:main.c        **** 				}
1667:main.c        **** 			}
1668:main.c        **** 			if(x > 440 && x < 480 && y > 0 && y < 21){
 2009              		.loc 1 1668 0
 2010 0038 A4F2B912 		subw	r2, r4, #441
 2011 003c 262A     		cmp	r2, #38
 2012 003e 0FD8     		bhi	.L97
 2013              		.loc 1 1668 0 is_stmt 0 discriminator 1
 2014 0040 6A1E     		subs	r2, r5, #1
 2015 0042 132A     		cmp	r2, #19
 2016 0044 0CD8     		bhi	.L97
1669:main.c        **** 				if(delay > 30){
 2017              		.loc 1 1669 0 is_stmt 1
 2018 0046 B04A     		ldr	r2, .L136+8
 2019 0048 1268     		ldr	r2, [r2]
 2020 004a 1E2A     		cmp	r2, #30
 2021 004c 08DD     		ble	.L97
1670:main.c        **** 					delay*=4;
 2022              		.loc 1 1670 0
 2023 004e 9200     		lsls	r2, r2, #2
1671:main.c        **** 					delay/=5;
 2024              		.loc 1 1671 0
 2025 0050 AE49     		ldr	r1, .L136+12
 2026 0052 81FB0201 		smull	r0, r1, r1, r2
 2027 0056 D217     		asrs	r2, r2, #31
 2028 0058 C2EB6102 		rsb	r2, r2, r1, asr #1
 2029 005c AA49     		ldr	r1, .L136+8
 2030 005e 0A60     		str	r2, [r1]
 2031              	.L97:
1672:main.c        **** 				}
1673:main.c        **** 			}
1674:main.c        **** 			if(x > 395 && x < 440 && y > 0 && y < 21){
 2032              		.loc 1 1674 0
 2033 0060 A4F5C672 		sub	r2, r4, #396
 2034 0064 2B2A     		cmp	r2, #43
 2035 0066 09D8     		bhi	.L94
 2036              		.loc 1 1674 0 is_stmt 0 discriminator 1
 2037 0068 6A1E     		subs	r2, r5, #1
 2038 006a 132A     		cmp	r2, #19
 2039 006c 06D8     		bhi	.L94
1675:main.c        **** 				if(stopped) stopped = 0;
 2040              		.loc 1 1675 0 is_stmt 1
 2041 006e A84A     		ldr	r2, .L136+16
 2042 0070 1268     		ldr	r2, [r2]
 2043 0072 002A     		cmp	r2, #0
 2044 0074 49D0     		beq	.L98
ARM GAS  C:\Users\lenovo\AppData\Local\Temp\ccfgRfuq.s 			page 74


 2045              		.loc 1 1675 0 is_stmt 0 discriminator 1
 2046 0076 0021     		movs	r1, #0
 2047 0078 A54A     		ldr	r2, .L136+16
 2048 007a 1160     		str	r1, [r2]
 2049              	.L94:
1676:main.c        **** 				else stopped = 1;
1677:main.c        **** 			}
1678:main.c        **** 		}
1679:main.c        **** 		if(drawing_state == 0){
 2050              		.loc 1 1679 0 is_stmt 1
 2051 007c 002B     		cmp	r3, #0
 2052 007e 40F00581 		bne	.L99
1680:main.c        **** 			if(x > 400 && x < 480 && y > 240 && y < 260){
 2053              		.loc 1 1680 0
 2054 0082 A4F29113 		subw	r3, r4, #401
 2055 0086 4E2B     		cmp	r3, #78
 2056 0088 07D8     		bhi	.L100
 2057              		.loc 1 1680 0 is_stmt 0 discriminator 1
 2058 008a A5F1F103 		sub	r3, r5, #241
 2059 008e 122B     		cmp	r3, #18
 2060 0090 03D8     		bhi	.L100
1681:main.c        **** 				drawing_state = -1;
 2061              		.loc 1 1681 0 is_stmt 1
 2062 0092 4FF0FF32 		mov	r2, #-1
 2063 0096 9F4B     		ldr	r3, .L136+20
 2064 0098 1A60     		str	r2, [r3]
 2065              	.L100:
1682:main.c        **** 			}
1683:main.c        **** 			switch(state){
 2066              		.loc 1 1683 0
 2067 009a 9F4B     		ldr	r3, .L136+24
 2068 009c 1B68     		ldr	r3, [r3]
 2069 009e 012B     		cmp	r3, #1
 2070 00a0 6FD0     		beq	.L102
 2071 00a2 022B     		cmp	r3, #2
 2072 00a4 00F0B480 		beq	.L103
 2073 00a8 002B     		cmp	r3, #0
 2074 00aa 32D0     		beq	.L122
 2075              	.LVL71:
 2076              	.L101:
1684:main.c        **** 				case 0:
1685:main.c        **** 					if(x > 360 && x < 475 && y > 50 && y < 70){
1686:main.c        **** 						setPulsar();
1687:main.c        **** 					}
1688:main.c        **** 					if(x > 315 && x < 475 && y > 100 && y < 120){
1689:main.c        **** 						setEvolution();
1690:main.c        **** 					}
1691:main.c        **** 					if(x > 325 && x < 475 && y > 150 && y < 180){
1692:main.c        **** 						setFountain();
1693:main.c        **** 					}
1694:main.c        **** 					if(x > 315 && x < 475 && y > 190 && y < 210){
1695:main.c        **** 						setCrocodile();
1696:main.c        **** 					}
1697:main.c        **** 					if(x > 280 && x < 340 && y >= 0 && y < 15){
1698:main.c        **** 						state++;
1699:main.c        **** 						state_changed = 1;
1700:main.c        **** 					}
ARM GAS  C:\Users\lenovo\AppData\Local\Temp\ccfgRfuq.s 			page 75


1701:main.c        **** 					break;
1702:main.c        **** 				case 1:
1703:main.c        **** 					if(x > 380 && x < 475 && y > 50 && y < 70){
1704:main.c        **** 						setHertzOscillator();
1705:main.c        **** 					}
1706:main.c        **** 					if(x > 290 && x < 475 && y > 100 && y < 120){
1707:main.c        **** 						setCopperhead();
1708:main.c        **** 					}
1709:main.c        **** 					if(x > 325 && x < 475 && y > 140 && y < 160){
1710:main.c        **** 						setFigureEigth();				
1711:main.c        **** 					}
1712:main.c        **** 					if(x > 380 && x < 475 && y > 190 && y < 220){
1713:main.c        **** 						setQueenBee();
1714:main.c        **** 					}
1715:main.c        **** 					if(x > 280 && x < 340 && y >= 0 && y < 15){
1716:main.c        **** 						state++;
1717:main.c        **** 						state_changed = 1;
1718:main.c        **** 					}
1719:main.c        **** 					if(x > 280 && x < 340 && y > 240 && y < 272){
1720:main.c        **** 						state--;
1721:main.c        **** 						state_changed = 1;
1722:main.c        **** 					}
1723:main.c        **** 					break;
1724:main.c        **** 				case 2:
1725:main.c        **** 					if(x > 385 && x < 475 && y > 55 && y < 80){
1726:main.c        **** 						setLWSS();
1727:main.c        **** 					}
1728:main.c        **** 					if(x > 285 && x < 475 && y > 100 && y < 120){
1729:main.c        **** 						setCloverleaf();
1730:main.c        **** 					}
1731:main.c        **** 					if(x > 350 && x < 475 && y > 150 && y < 170){
1732:main.c        **** 						setBeacon();				
1733:main.c        **** 					}
1734:main.c        **** 					if(x > 300 && x < 475 && y > 190 && y < 210){
1735:main.c        **** 						setGameOfLife();				
1736:main.c        **** 					}
1737:main.c        **** 					if(x > 280 && x < 340 && y > 240 && y < 272){
1738:main.c        **** 						state--;
1739:main.c        **** 						state_changed = 1;
1740:main.c        **** 					}
1741:main.c        **** 					break;
1742:main.c        **** 				
1743:main.c        **** 			}
1744:main.c        **** 			xprintf("%u ",TS_State.touchX[0]);
 2077              		.loc 1 1744 0
 2078 00ac 9B4C     		ldr	r4, .L136+28
 2079 00ae 6188     		ldrh	r1, [r4, #2]
 2080 00b0 9B48     		ldr	r0, .L136+32
 2081 00b2 FFF7FEFF 		bl	xprintf
 2082              	.LVL72:
1745:main.c        **** 			xprintf("%u\n",TS_State.touchY[0]);
 2083              		.loc 1 1745 0
 2084 00b6 A189     		ldrh	r1, [r4, #12]
 2085 00b8 9A48     		ldr	r0, .L136+36
 2086 00ba FFF7FEFF 		bl	xprintf
 2087              	.LVL73:
 2088              	.L93:
ARM GAS  C:\Users\lenovo\AppData\Local\Temp\ccfgRfuq.s 			page 76


1655:main.c        **** 	BSP_TS_GetState(&TS_State);
 2089              		.loc 1 1655 0
 2090 00be 6420     		movs	r0, #100
 2091 00c0 FFF7FEFF 		bl	vTaskDelay
 2092              	.LVL74:
1656:main.c        **** 	if(TS_State.touchDetected)
 2093              		.loc 1 1656 0
 2094 00c4 954C     		ldr	r4, .L136+28
 2095 00c6 2046     		mov	r0, r4
 2096 00c8 FFF7FEFF 		bl	BSP_TS_GetState
 2097              	.LVL75:
1657:main.c        **** 	{
 2098              		.loc 1 1657 0
 2099 00cc 2378     		ldrb	r3, [r4]	@ zero_extendqisi2
 2100 00ce 002B     		cmp	r3, #0
 2101 00d0 F5D0     		beq	.L93
1659:main.c        **** 		y = TS_State.touchY[0];
 2102              		.loc 1 1659 0
 2103 00d2 2346     		mov	r3, r4
 2104 00d4 6488     		ldrh	r4, [r4, #2]
 2105              	.LVL76:
1660:main.c        **** 		if(drawing_state != -1){
 2106              		.loc 1 1660 0
 2107 00d6 9D89     		ldrh	r5, [r3, #12]
 2108              	.LVL77:
1661:main.c        **** 			if(x > 365 && x < 395 && y > 0 && y < 21){
 2109              		.loc 1 1661 0
 2110 00d8 8E4B     		ldr	r3, .L136+20
 2111 00da 1B68     		ldr	r3, [r3]
 2112 00dc B3F1FF3F 		cmp	r3, #-1
 2113 00e0 CCD0     		beq	.L94
1662:main.c        **** 				if(delay < 5000){
 2114              		.loc 1 1662 0
 2115 00e2 A4F5B772 		sub	r2, r4, #366
 2116 00e6 1C2A     		cmp	r2, #28
 2117 00e8 A6D8     		bhi	.L95
1662:main.c        **** 				if(delay < 5000){
 2118              		.loc 1 1662 0 is_stmt 0 discriminator 1
 2119 00ea 6A1E     		subs	r2, r5, #1
 2120 00ec 132A     		cmp	r2, #19
 2121 00ee A3D8     		bhi	.L95
1663:main.c        **** 					delay*=5;
 2122              		.loc 1 1663 0 is_stmt 1
 2123 00f0 854A     		ldr	r2, .L136+8
 2124 00f2 1268     		ldr	r2, [r2]
 2125 00f4 41F28731 		movw	r1, #4999
 2126 00f8 8A42     		cmp	r2, r1
 2127 00fa 9DDC     		bgt	.L95
1664:main.c        **** 					delay/=4;
 2128              		.loc 1 1664 0
 2129 00fc 02EB8202 		add	r2, r2, r2, lsl #2
1665:main.c        **** 				}
 2130              		.loc 1 1665 0
 2131 0100 1146     		mov	r1, r2
 2132 0102 002A     		cmp	r2, #0
 2133 0104 95DA     		bge	.L96
 2134 0106 D11C     		adds	r1, r2, #3
ARM GAS  C:\Users\lenovo\AppData\Local\Temp\ccfgRfuq.s 			page 77


 2135 0108 93E7     		b	.L96
 2136              	.L98:
1676:main.c        **** 			}
 2137              		.loc 1 1676 0
 2138 010a 0121     		movs	r1, #1
 2139 010c 804A     		ldr	r2, .L136+16
 2140 010e 1160     		str	r1, [r2]
 2141 0110 B4E7     		b	.L94
 2142              	.L122:
1685:main.c        **** 						setPulsar();
 2143              		.loc 1 1685 0
 2144 0112 A4F26913 		subw	r3, r4, #361
 2145 0116 712B     		cmp	r3, #113
 2146 0118 03D8     		bhi	.L105
1685:main.c        **** 						setPulsar();
 2147              		.loc 1 1685 0 is_stmt 0 discriminator 1
 2148 011a A5F13303 		sub	r3, r5, #51
 2149 011e 122B     		cmp	r3, #18
 2150 0120 23D9     		bls	.L123
 2151              	.L105:
1688:main.c        **** 						setEvolution();
 2152              		.loc 1 1688 0 is_stmt 1
 2153 0122 A4F59E76 		sub	r6, r4, #316
 2154 0126 9E2E     		cmp	r6, #158
 2155 0128 03D8     		bhi	.L106
1688:main.c        **** 						setEvolution();
 2156              		.loc 1 1688 0 is_stmt 0 discriminator 1
 2157 012a A5F16503 		sub	r3, r5, #101
 2158 012e 122B     		cmp	r3, #18
 2159 0130 1ED9     		bls	.L124
 2160              	.L106:
1691:main.c        **** 						setFountain();
 2161              		.loc 1 1691 0 is_stmt 1
 2162 0132 A4F5A373 		sub	r3, r4, #326
 2163 0136 942B     		cmp	r3, #148
 2164 0138 03D8     		bhi	.L107
1691:main.c        **** 						setFountain();
 2165              		.loc 1 1691 0 is_stmt 0 discriminator 1
 2166 013a A5F19703 		sub	r3, r5, #151
 2167 013e 1C2B     		cmp	r3, #28
 2168 0140 19D9     		bls	.L125
 2169              	.L107:
1694:main.c        **** 						setCrocodile();
 2170              		.loc 1 1694 0 is_stmt 1
 2171 0142 9E2E     		cmp	r6, #158
 2172 0144 03D8     		bhi	.L108
1694:main.c        **** 						setCrocodile();
 2173              		.loc 1 1694 0 is_stmt 0 discriminator 1
 2174 0146 A5F1BF03 		sub	r3, r5, #191
 2175 014a 122B     		cmp	r3, #18
 2176 014c 16D9     		bls	.L126
 2177              	.L108:
1697:main.c        **** 						state++;
 2178              		.loc 1 1697 0 is_stmt 1
 2179 014e A4F21914 		subw	r4, r4, #281
 2180              	.LVL78:
 2181 0152 3A2C     		cmp	r4, #58
ARM GAS  C:\Users\lenovo\AppData\Local\Temp\ccfgRfuq.s 			page 78


 2182 0154 AAD8     		bhi	.L101
1697:main.c        **** 						state++;
 2183              		.loc 1 1697 0 is_stmt 0 discriminator 1
 2184 0156 0E2D     		cmp	r5, #14
 2185 0158 A8D8     		bhi	.L101
1698:main.c        **** 						state_changed = 1;
 2186              		.loc 1 1698 0 is_stmt 1
 2187 015a 6F4A     		ldr	r2, .L136+24
 2188 015c 1368     		ldr	r3, [r2]
 2189 015e 0133     		adds	r3, r3, #1
 2190 0160 1360     		str	r3, [r2]
1699:main.c        **** 					}
 2191              		.loc 1 1699 0
 2192 0162 0122     		movs	r2, #1
 2193 0164 704B     		ldr	r3, .L136+40
 2194 0166 1A60     		str	r2, [r3]
 2195 0168 A0E7     		b	.L101
 2196              	.LVL79:
 2197              	.L123:
1686:main.c        **** 					}
 2198              		.loc 1 1686 0
 2199 016a FFF7FEFF 		bl	setPulsar
 2200              	.LVL80:
 2201 016e D8E7     		b	.L105
 2202              	.L124:
1689:main.c        **** 					}
 2203              		.loc 1 1689 0
 2204 0170 FFF7FEFF 		bl	setEvolution
 2205              	.LVL81:
 2206 0174 DDE7     		b	.L106
 2207              	.L125:
1692:main.c        **** 					}
 2208              		.loc 1 1692 0
 2209 0176 FFF7FEFF 		bl	setFountain
 2210              	.LVL82:
 2211 017a E2E7     		b	.L107
 2212              	.L126:
1695:main.c        **** 					}
 2213              		.loc 1 1695 0
 2214 017c FFF7FEFF 		bl	setCrocodile
 2215              	.LVL83:
 2216 0180 E5E7     		b	.L108
 2217              	.L102:
1703:main.c        **** 						setHertzOscillator();
 2218              		.loc 1 1703 0
 2219 0182 A4F27D16 		subw	r6, r4, #381
 2220 0186 5D2E     		cmp	r6, #93
 2221 0188 03D8     		bhi	.L109
1703:main.c        **** 						setHertzOscillator();
 2222              		.loc 1 1703 0 is_stmt 0 discriminator 1
 2223 018a A5F13303 		sub	r3, r5, #51
 2224 018e 122B     		cmp	r3, #18
 2225 0190 32D9     		bls	.L127
 2226              	.L109:
1706:main.c        **** 						setCopperhead();
 2227              		.loc 1 1706 0 is_stmt 1
 2228 0192 A4F22313 		subw	r3, r4, #291
ARM GAS  C:\Users\lenovo\AppData\Local\Temp\ccfgRfuq.s 			page 79


 2229 0196 B72B     		cmp	r3, #183
 2230 0198 03D8     		bhi	.L110
1706:main.c        **** 						setCopperhead();
 2231              		.loc 1 1706 0 is_stmt 0 discriminator 1
 2232 019a A5F16503 		sub	r3, r5, #101
 2233 019e 122B     		cmp	r3, #18
 2234 01a0 2DD9     		bls	.L128
 2235              	.L110:
1709:main.c        **** 						setFigureEigth();				
 2236              		.loc 1 1709 0 is_stmt 1
 2237 01a2 A4F5A373 		sub	r3, r4, #326
 2238 01a6 942B     		cmp	r3, #148
 2239 01a8 03D8     		bhi	.L111
1709:main.c        **** 						setFigureEigth();				
 2240              		.loc 1 1709 0 is_stmt 0 discriminator 1
 2241 01aa A5F18D03 		sub	r3, r5, #141
 2242 01ae 122B     		cmp	r3, #18
 2243 01b0 28D9     		bls	.L129
 2244              	.L111:
1712:main.c        **** 						setQueenBee();
 2245              		.loc 1 1712 0 is_stmt 1
 2246 01b2 5D2E     		cmp	r6, #93
 2247 01b4 03D8     		bhi	.L112
1712:main.c        **** 						setQueenBee();
 2248              		.loc 1 1712 0 is_stmt 0 discriminator 1
 2249 01b6 A5F1BF03 		sub	r3, r5, #191
 2250 01ba 1C2B     		cmp	r3, #28
 2251 01bc 25D9     		bls	.L130
 2252              	.L112:
1715:main.c        **** 						state++;
 2253              		.loc 1 1715 0 is_stmt 1
 2254 01be A4F21914 		subw	r4, r4, #281
 2255              	.LVL84:
 2256 01c2 3A2C     		cmp	r4, #58
 2257 01c4 08D8     		bhi	.L113
1715:main.c        **** 						state++;
 2258              		.loc 1 1715 0 is_stmt 0 discriminator 1
 2259 01c6 0E2D     		cmp	r5, #14
 2260 01c8 06D8     		bhi	.L113
1716:main.c        **** 						state_changed = 1;
 2261              		.loc 1 1716 0 is_stmt 1
 2262 01ca 534A     		ldr	r2, .L136+24
 2263 01cc 1368     		ldr	r3, [r2]
 2264 01ce 0133     		adds	r3, r3, #1
 2265 01d0 1360     		str	r3, [r2]
1717:main.c        **** 					}
 2266              		.loc 1 1717 0
 2267 01d2 0122     		movs	r2, #1
 2268 01d4 544B     		ldr	r3, .L136+40
 2269 01d6 1A60     		str	r2, [r3]
 2270              	.L113:
1719:main.c        **** 						state--;
 2271              		.loc 1 1719 0
 2272 01d8 3A2C     		cmp	r4, #58
 2273 01da 3FF667AF 		bhi	.L101
1719:main.c        **** 						state--;
 2274              		.loc 1 1719 0 is_stmt 0 discriminator 1
ARM GAS  C:\Users\lenovo\AppData\Local\Temp\ccfgRfuq.s 			page 80


 2275 01de A5F1F103 		sub	r3, r5, #241
 2276 01e2 1E2B     		cmp	r3, #30
 2277 01e4 3FF662AF 		bhi	.L101
1720:main.c        **** 						state_changed = 1;
 2278              		.loc 1 1720 0 is_stmt 1
 2279 01e8 4B4A     		ldr	r2, .L136+24
 2280 01ea 1368     		ldr	r3, [r2]
 2281 01ec 013B     		subs	r3, r3, #1
 2282 01ee 1360     		str	r3, [r2]
1721:main.c        **** 					}
 2283              		.loc 1 1721 0
 2284 01f0 0122     		movs	r2, #1
 2285 01f2 4D4B     		ldr	r3, .L136+40
 2286 01f4 1A60     		str	r2, [r3]
 2287 01f6 59E7     		b	.L101
 2288              	.LVL85:
 2289              	.L127:
1704:main.c        **** 					}
 2290              		.loc 1 1704 0
 2291 01f8 FFF7FEFF 		bl	setHertzOscillator
 2292              	.LVL86:
 2293 01fc C9E7     		b	.L109
 2294              	.L128:
1707:main.c        **** 					}
 2295              		.loc 1 1707 0
 2296 01fe FFF7FEFF 		bl	setCopperhead
 2297              	.LVL87:
 2298 0202 CEE7     		b	.L110
 2299              	.L129:
1710:main.c        **** 					}
 2300              		.loc 1 1710 0
 2301 0204 FFF7FEFF 		bl	setFigureEigth
 2302              	.LVL88:
 2303 0208 D3E7     		b	.L111
 2304              	.L130:
1713:main.c        **** 					}
 2305              		.loc 1 1713 0
 2306 020a FFF7FEFF 		bl	setQueenBee
 2307              	.LVL89:
 2308 020e D6E7     		b	.L112
 2309              	.L103:
1725:main.c        **** 						setLWSS();
 2310              		.loc 1 1725 0
 2311 0210 A4F5C173 		sub	r3, r4, #386
 2312 0214 582B     		cmp	r3, #88
 2313 0216 03D8     		bhi	.L114
1725:main.c        **** 						setLWSS();
 2314              		.loc 1 1725 0 is_stmt 0 discriminator 1
 2315 0218 A5F13803 		sub	r3, r5, #56
 2316 021c 172B     		cmp	r3, #23
 2317 021e 29D9     		bls	.L131
 2318              	.L114:
1728:main.c        **** 						setCloverleaf();
 2319              		.loc 1 1728 0 is_stmt 1
 2320 0220 A4F58F73 		sub	r3, r4, #286
 2321 0224 BC2B     		cmp	r3, #188
 2322 0226 03D8     		bhi	.L115
ARM GAS  C:\Users\lenovo\AppData\Local\Temp\ccfgRfuq.s 			page 81


1728:main.c        **** 						setCloverleaf();
 2323              		.loc 1 1728 0 is_stmt 0 discriminator 1
 2324 0228 A5F16503 		sub	r3, r5, #101
 2325 022c 122B     		cmp	r3, #18
 2326 022e 24D9     		bls	.L132
 2327              	.L115:
1731:main.c        **** 						setBeacon();				
 2328              		.loc 1 1731 0 is_stmt 1
 2329 0230 A4F25F13 		subw	r3, r4, #351
 2330 0234 7B2B     		cmp	r3, #123
 2331 0236 03D8     		bhi	.L116
1731:main.c        **** 						setBeacon();				
 2332              		.loc 1 1731 0 is_stmt 0 discriminator 1
 2333 0238 A5F19703 		sub	r3, r5, #151
 2334 023c 122B     		cmp	r3, #18
 2335 023e 1FD9     		bls	.L133
 2336              	.L116:
1734:main.c        **** 						setGameOfLife();				
 2337              		.loc 1 1734 0 is_stmt 1
 2338 0240 A4F22D13 		subw	r3, r4, #301
 2339 0244 AD2B     		cmp	r3, #173
 2340 0246 03D8     		bhi	.L117
1734:main.c        **** 						setGameOfLife();				
 2341              		.loc 1 1734 0 is_stmt 0 discriminator 1
 2342 0248 A5F1BF03 		sub	r3, r5, #191
 2343 024c 122B     		cmp	r3, #18
 2344 024e 1AD9     		bls	.L134
 2345              	.L117:
1737:main.c        **** 						state--;
 2346              		.loc 1 1737 0 is_stmt 1
 2347 0250 A4F21914 		subw	r4, r4, #281
 2348              	.LVL90:
 2349 0254 3A2C     		cmp	r4, #58
 2350 0256 3FF629AF 		bhi	.L101
1737:main.c        **** 						state--;
 2351              		.loc 1 1737 0 is_stmt 0 discriminator 1
 2352 025a A5F1F103 		sub	r3, r5, #241
 2353 025e 1E2B     		cmp	r3, #30
 2354 0260 3FF624AF 		bhi	.L101
1738:main.c        **** 						state_changed = 1;
 2355              		.loc 1 1738 0 is_stmt 1
 2356 0264 2C4A     		ldr	r2, .L136+24
 2357 0266 1368     		ldr	r3, [r2]
 2358 0268 013B     		subs	r3, r3, #1
 2359 026a 1360     		str	r3, [r2]
1739:main.c        **** 					}
 2360              		.loc 1 1739 0
 2361 026c 0122     		movs	r2, #1
 2362 026e 2E4B     		ldr	r3, .L136+40
 2363 0270 1A60     		str	r2, [r3]
 2364 0272 1BE7     		b	.L101
 2365              	.LVL91:
 2366              	.L131:
1726:main.c        **** 					}
 2367              		.loc 1 1726 0
 2368 0274 FFF7FEFF 		bl	setLWSS
 2369              	.LVL92:
ARM GAS  C:\Users\lenovo\AppData\Local\Temp\ccfgRfuq.s 			page 82


 2370 0278 D2E7     		b	.L114
 2371              	.L132:
1729:main.c        **** 					}
 2372              		.loc 1 1729 0
 2373 027a FFF7FEFF 		bl	setCloverleaf
 2374              	.LVL93:
 2375 027e D7E7     		b	.L115
 2376              	.L133:
1732:main.c        **** 					}
 2377              		.loc 1 1732 0
 2378 0280 FFF7FEFF 		bl	setBeacon
 2379              	.LVL94:
 2380 0284 DCE7     		b	.L116
 2381              	.L134:
1735:main.c        **** 					}
 2382              		.loc 1 1735 0
 2383 0286 FFF7FEFF 		bl	setGameOfLife
 2384              	.LVL95:
 2385 028a E1E7     		b	.L117
 2386              	.L99:
 2387              	.LBB20:
1746:main.c        **** 		}
1747:main.c        **** 	else{
1748:main.c        **** 		if(x > 400 && x < 480 && y > 240 && y < 260){
 2388              		.loc 1 1748 0
 2389 028c A4F29113 		subw	r3, r4, #401
 2390 0290 4E2B     		cmp	r3, #78
 2391 0292 06D8     		bhi	.L119
 2392              		.loc 1 1748 0 is_stmt 0 discriminator 1
 2393 0294 A5F1F103 		sub	r3, r5, #241
 2394 0298 122B     		cmp	r3, #18
 2395 029a 02D8     		bhi	.L119
1749:main.c        **** 			drawing_state = 0;		
 2396              		.loc 1 1749 0 is_stmt 1
 2397 029c 0022     		movs	r2, #0
 2398 029e 1D4B     		ldr	r3, .L136+20
 2399 02a0 1A60     		str	r2, [r3]
 2400              	.L119:
1750:main.c        **** 		}
1751:main.c        **** 		int i = x/30;
 2401              		.loc 1 1751 0
 2402 02a2 224A     		ldr	r2, .L136+44
 2403 02a4 82FB0413 		smull	r1, r3, r2, r4
 2404 02a8 1C44     		add	r4, r4, r3
 2405              	.LVL96:
 2406 02aa 2411     		asrs	r4, r4, #4
 2407              	.LVL97:
1752:main.c        **** 		int j = y/30;
 2408              		.loc 1 1752 0
 2409 02ac 82FB0523 		smull	r2, r3, r2, r5
 2410 02b0 2B44     		add	r3, r3, r5
 2411 02b2 1B11     		asrs	r3, r3, #4
 2412              	.LVL98:
1753:main.c        **** 		if(i<9 && j<9){
 2413              		.loc 1 1753 0
 2414 02b4 082C     		cmp	r4, #8
 2415 02b6 D8BF     		it	le
ARM GAS  C:\Users\lenovo\AppData\Local\Temp\ccfgRfuq.s 			page 83


 2416 02b8 082B     		cmple	r3, #8
 2417 02ba 3FF700AF 		bgt	.L93
1754:main.c        **** 			if(table[9+i][9+j] == 1){
 2418              		.loc 1 1754 0
 2419 02be 0934     		adds	r4, r4, #9
 2420              	.LVL99:
 2421 02c0 0933     		adds	r3, r3, #9
 2422              	.LVL100:
 2423 02c2 04EB4402 		add	r2, r4, r4, lsl #1
 2424 02c6 02EBC202 		add	r2, r2, r2, lsl #3
 2425 02ca 1A44     		add	r2, r2, r3
 2426 02cc 1849     		ldr	r1, .L136+48
 2427 02ce 51F82220 		ldr	r2, [r1, r2, lsl #2]
 2428 02d2 012A     		cmp	r2, #1
 2429 02d4 09D0     		beq	.L135
1755:main.c        **** 				table[9+i][9+j] = 0;
1756:main.c        **** 			}
1757:main.c        **** 			else{
1758:main.c        **** 				table[9+i][9+j] = 1;
 2430              		.loc 1 1758 0
 2431 02d6 04EB4404 		add	r4, r4, r4, lsl #1
 2432              	.LVL101:
 2433 02da 04EBC404 		add	r4, r4, r4, lsl #3
 2434 02de 1C44     		add	r4, r4, r3
 2435 02e0 0122     		movs	r2, #1
 2436 02e2 134B     		ldr	r3, .L136+48
 2437              	.LVL102:
 2438 02e4 43F82420 		str	r2, [r3, r4, lsl #2]
 2439 02e8 E9E6     		b	.L93
 2440              	.L135:
1755:main.c        **** 				table[9+i][9+j] = 0;
 2441              		.loc 1 1755 0
 2442 02ea 04EB4404 		add	r4, r4, r4, lsl #1
 2443 02ee 04EBC404 		add	r4, r4, r4, lsl #3
 2444 02f2 2344     		add	r3, r3, r4
 2445 02f4 0021     		movs	r1, #0
 2446 02f6 0E4A     		ldr	r2, .L136+48
 2447 02f8 42F82310 		str	r1, [r2, r3, lsl #2]
 2448 02fc DFE6     		b	.L93
 2449              	.L137:
 2450 02fe 00BF     		.align	2
 2451              	.L136:
 2452 0300 00000000 		.word	.LANCHOR4
 2453 0304 00000000 		.word	tableTaskHandle
 2454 0308 00000000 		.word	.LANCHOR3
 2455 030c 67666666 		.word	1717986919
 2456 0310 00000000 		.word	.LANCHOR7
 2457 0314 00000000 		.word	.LANCHOR6
 2458 0318 00000000 		.word	.LANCHOR8
 2459 031c 00000000 		.word	.LANCHOR5
 2460 0320 00000000 		.word	.LC6
 2461 0324 04000000 		.word	.LC7
 2462 0328 00000000 		.word	.LANCHOR9
 2463 032c 89888888 		.word	-2004318071
 2464 0330 00000000 		.word	.LANCHOR2
 2465              	.LBE20:
 2466              		.cfi_endproc
ARM GAS  C:\Users\lenovo\AppData\Local\Temp\ccfgRfuq.s 			page 84


 2467              	.LFE214:
 2469              		.section	.text.setGun,"ax",%progbits
 2470              		.align	1
 2471              		.global	setGun
 2472              		.syntax unified
 2473              		.thumb
 2474              		.thumb_func
 2475              		.fpu fpv5-sp-d16
 2477              	setGun:
 2478              	.LFB172:
 459:figures.c     ****   }
 460:figures.c     ****   
 461:figures.c     ****   void setGun(){
 2479              		.loc 2 461 0
 2480              		.cfi_startproc
 2481              		@ args = 0, pretend = 0, frame = 0
 2482              		@ frame_needed = 0, uses_anonymous_args = 0
 2483 0000 08B5     		push	{r3, lr}
 2484              	.LCFI22:
 2485              		.cfi_def_cfa_offset 8
 2486              		.cfi_offset 3, -8
 2487              		.cfi_offset 14, -4
 462:figures.c     ****   	clearTable();
 2488              		.loc 2 462 0
 2489 0002 FFF7FEFF 		bl	clearTable
 2490              	.LVL103:
 463:figures.c     **** 
 464:figures.c     **** 	table[2][12]=1;
 2491              		.loc 2 464 0
 2492 0006 254B     		ldr	r3, .L140
 2493 0008 0122     		movs	r2, #1
 2494 000a C3F80821 		str	r2, [r3, #264]
 465:figures.c     **** 	table[2][13]=1;
 2495              		.loc 2 465 0
 2496 000e C3F80C21 		str	r2, [r3, #268]
 466:figures.c     **** 	table[3][12]=1;
 2497              		.loc 2 466 0
 2498 0012 C3F87421 		str	r2, [r3, #372]
 467:figures.c     **** 	table[3][13]=1;
 2499              		.loc 2 467 0
 2500 0016 C3F87821 		str	r2, [r3, #376]
 468:figures.c     **** 
 469:figures.c     **** 	table[12][12]=1;
 2501              		.loc 2 469 0
 2502 001a C3F84025 		str	r2, [r3, #1344]
 470:figures.c     **** 	table[12][13]=1;
 2503              		.loc 2 470 0
 2504 001e C3F84425 		str	r2, [r3, #1348]
 471:figures.c     **** 	table[12][14]=1;
 2505              		.loc 2 471 0
 2506 0022 C3F84825 		str	r2, [r3, #1352]
 472:figures.c     **** 	table[13][11]=1;
 2507              		.loc 2 472 0
 2508 0026 C3F8A825 		str	r2, [r3, #1448]
 473:figures.c     **** 	table[13][15]=1;
 2509              		.loc 2 473 0
 2510 002a C3F8B825 		str	r2, [r3, #1464]
ARM GAS  C:\Users\lenovo\AppData\Local\Temp\ccfgRfuq.s 			page 85


 474:figures.c     **** 	table[14][16]=1;
 2511              		.loc 2 474 0
 2512 002e C3F82826 		str	r2, [r3, #1576]
 475:figures.c     **** 	table[15][16]=1;
 2513              		.loc 2 475 0
 2514 0032 C3F89426 		str	r2, [r3, #1684]
 476:figures.c     **** 	table[14][10]=1;
 2515              		.loc 2 476 0
 2516 0036 C3F81026 		str	r2, [r3, #1552]
 477:figures.c     **** 	table[15][10]=1;
 2517              		.loc 2 477 0
 2518 003a C3F87C26 		str	r2, [r3, #1660]
 478:figures.c     **** 	table[16][13]=1; 
 2519              		.loc 2 478 0
 2520 003e C3F8F426 		str	r2, [r3, #1780]
 479:figures.c     **** 	table[17][11]=1;
 2521              		.loc 2 479 0
 2522 0042 C3F85827 		str	r2, [r3, #1880]
 480:figures.c     **** 	table[18][12]=1;
 2523              		.loc 2 480 0
 2524 0046 C3F8C827 		str	r2, [r3, #1992]
 481:figures.c     **** 	table[18][13]=1;
 2525              		.loc 2 481 0
 2526 004a C3F8CC27 		str	r2, [r3, #1996]
 482:figures.c     **** 	table[18][14]=1;
 2527              		.loc 2 482 0
 2528 004e C3F8D027 		str	r2, [r3, #2000]
 483:figures.c     **** 	table[19][13]=1;
 2529              		.loc 2 483 0
 2530 0052 C3F83828 		str	r2, [r3, #2104]
 484:figures.c     **** 	table[17][15]=1;
 2531              		.loc 2 484 0
 2532 0056 C3F86827 		str	r2, [r3, #1896]
 485:figures.c     **** 
 486:figures.c     **** 	table[22][10]=1;
 2533              		.loc 2 486 0
 2534 005a C3F87029 		str	r2, [r3, #2416]
 487:figures.c     **** 	table[22][11]=1;
 2535              		.loc 2 487 0
 2536 005e C3F87429 		str	r2, [r3, #2420]
 488:figures.c     **** 	table[22][12]=1;
 2537              		.loc 2 488 0
 2538 0062 C3F87829 		str	r2, [r3, #2424]
 489:figures.c     **** 	table[23][10]=1;
 2539              		.loc 2 489 0
 2540 0066 C3F8DC29 		str	r2, [r3, #2524]
 490:figures.c     **** 	table[23][11]=1;
 2541              		.loc 2 490 0
 2542 006a C3F8E029 		str	r2, [r3, #2528]
 491:figures.c     **** 	table[23][12]=1;
 2543              		.loc 2 491 0
 2544 006e C3F8E429 		str	r2, [r3, #2532]
 492:figures.c     **** 	table[24][9]=1;
 2545              		.loc 2 492 0
 2546 0072 C3F8442A 		str	r2, [r3, #2628]
 493:figures.c     **** 	table[24][13]=1;
 2547              		.loc 2 493 0
ARM GAS  C:\Users\lenovo\AppData\Local\Temp\ccfgRfuq.s 			page 86


 2548 0076 C3F8542A 		str	r2, [r3, #2644]
 494:figures.c     **** 	table[26][8]=1;
 2549              		.loc 2 494 0
 2550 007a C3F8182B 		str	r2, [r3, #2840]
 495:figures.c     **** 	table[26][9]=1;
 2551              		.loc 2 495 0
 2552 007e C3F81C2B 		str	r2, [r3, #2844]
 496:figures.c     **** 	table[26][13]=1;
 2553              		.loc 2 496 0
 2554 0082 C3F82C2B 		str	r2, [r3, #2860]
 497:figures.c     **** 	table[26][14]=1;
 2555              		.loc 2 497 0
 2556 0086 C3F8302B 		str	r2, [r3, #2864]
 498:figures.c     **** 
 499:figures.c     **** 	table[36][10]=1;
 2557              		.loc 2 499 0
 2558 008a C3F8582F 		str	r2, [r3, #3928]
 500:figures.c     **** 	table[36][11]=1;
 2559              		.loc 2 500 0
 2560 008e C3F85C2F 		str	r2, [r3, #3932]
 501:figures.c     **** 	table[37][10]=1;
 2561              		.loc 2 501 0
 2562 0092 C3F8C42F 		str	r2, [r3, #4036]
 502:figures.c     **** 	table[37][11]=1;
 2563              		.loc 2 502 0
 2564 0096 C3F8C82F 		str	r2, [r3, #4040]
 2565 009a 08BD     		pop	{r3, pc}
 2566              	.L141:
 2567              		.align	2
 2568              	.L140:
 2569 009c 00000000 		.word	.LANCHOR2
 2570              		.cfi_endproc
 2571              	.LFE172:
 2573              		.section	.text.count_neighbours,"ax",%progbits
 2574              		.align	1
 2575              		.global	count_neighbours
 2576              		.syntax unified
 2577              		.thumb
 2578              		.thumb_func
 2579              		.fpu fpv5-sp-d16
 2581              	count_neighbours:
 2582              	.LFB173:
 2583              		.file 3 "gameOfLife.c"
   1:gameOfLife.c  **** #include "figures.c"
   2:gameOfLife.c  **** 
   3:gameOfLife.c  **** int count_neighbours(int x, int y){
 2584              		.loc 3 3 0
 2585              		.cfi_startproc
 2586              		@ args = 0, pretend = 0, frame = 0
 2587              		@ frame_needed = 0, uses_anonymous_args = 0
 2588              	.LVL104:
 2589 0000 F0B5     		push	{r4, r5, r6, r7, lr}
 2590              	.LCFI23:
 2591              		.cfi_def_cfa_offset 20
 2592              		.cfi_offset 4, -20
 2593              		.cfi_offset 5, -16
 2594              		.cfi_offset 6, -12
ARM GAS  C:\Users\lenovo\AppData\Local\Temp\ccfgRfuq.s 			page 87


 2595              		.cfi_offset 7, -8
 2596              		.cfi_offset 14, -4
 2597              	.LVL105:
 2598              	.LBB21:
   4:gameOfLife.c  **** 	int sum = 0;
   5:gameOfLife.c  **** 	int a = x - 1;
   6:gameOfLife.c  **** 	int b = y - 1;
   7:gameOfLife.c  **** 	for(int i = 0; i < 3; i++){
 2599              		.loc 3 7 0
 2600 0002 0026     		movs	r6, #0
 2601              	.LBE21:
   4:gameOfLife.c  **** 	int sum = 0;
 2602              		.loc 3 4 0
 2603 0004 3746     		mov	r7, r6
 2604              	.LBB23:
 2605              		.loc 3 7 0
 2606 0006 27E0     		b	.L143
 2607              	.LVL106:
 2608              	.L144:
 2609              	.LBB22:
   8:gameOfLife.c  **** 		for(int j = 0; j < 3; j++){
   9:gameOfLife.c  **** 			sum += table[(X_SIZE+a+i)%X_SIZE][(Y_SIZE+b+j)%Y_SIZE];
 2610              		.loc 3 9 0 discriminator 3
 2611 0008 00F11A04 		add	r4, r0, #26
 2612 000c 3444     		add	r4, r4, r6
 2613 000e 194A     		ldr	r2, .L149
 2614 0010 82FB043E 		smull	r3, lr, r2, r4
 2615 0014 E317     		asrs	r3, r4, #31
 2616 0016 C3EBEE03 		rsb	r3, r3, lr, asr #3
 2617 001a 03EB4303 		add	r3, r3, r3, lsl #1
 2618 001e 03EBC303 		add	r3, r3, r3, lsl #3
 2619 0022 E31A     		subs	r3, r4, r3
 2620 0024 01F11A04 		add	r4, r1, #26
 2621 0028 2C44     		add	r4, r4, r5
 2622 002a 82FB042E 		smull	r2, lr, r2, r4
 2623 002e E217     		asrs	r2, r4, #31
 2624 0030 C2EBEE02 		rsb	r2, r2, lr, asr #3
 2625 0034 02EB4202 		add	r2, r2, r2, lsl #1
 2626 0038 02EBC202 		add	r2, r2, r2, lsl #3
 2627 003c A21A     		subs	r2, r4, r2
 2628 003e 03EB4303 		add	r3, r3, r3, lsl #1
 2629 0042 03EBC303 		add	r3, r3, r3, lsl #3
 2630 0046 1344     		add	r3, r3, r2
 2631 0048 0B4A     		ldr	r2, .L149+4
 2632 004a 52F82330 		ldr	r3, [r2, r3, lsl #2]
 2633 004e 1F44     		add	r7, r7, r3
 2634              	.LVL107:
   8:gameOfLife.c  **** 		for(int j = 0; j < 3; j++){
 2635              		.loc 3 8 0 discriminator 3
 2636 0050 0135     		adds	r5, r5, #1
 2637              	.LVL108:
 2638              	.L145:
   8:gameOfLife.c  **** 		for(int j = 0; j < 3; j++){
 2639              		.loc 3 8 0 is_stmt 0 discriminator 1
 2640 0052 022D     		cmp	r5, #2
 2641 0054 D8DD     		ble	.L144
 2642              	.LBE22:
ARM GAS  C:\Users\lenovo\AppData\Local\Temp\ccfgRfuq.s 			page 88


   7:gameOfLife.c  **** 		for(int j = 0; j < 3; j++){
 2643              		.loc 3 7 0 is_stmt 1 discriminator 2
 2644 0056 0136     		adds	r6, r6, #1
 2645              	.LVL109:
 2646              	.L143:
   7:gameOfLife.c  **** 		for(int j = 0; j < 3; j++){
 2647              		.loc 3 7 0 is_stmt 0 discriminator 1
 2648 0058 022E     		cmp	r6, #2
 2649 005a 01DC     		bgt	.L148
 2650 005c 0025     		movs	r5, #0
 2651 005e F8E7     		b	.L145
 2652              	.L148:
 2653              	.LBE23:
  10:gameOfLife.c  **** 		}
  11:gameOfLife.c  **** 	}
  12:gameOfLife.c  **** 	sum -= table[x][y];
 2654              		.loc 3 12 0 is_stmt 1
 2655 0060 00EB4000 		add	r0, r0, r0, lsl #1
 2656              	.LVL110:
 2657 0064 00EBC000 		add	r0, r0, r0, lsl #3
 2658 0068 0144     		add	r1, r1, r0
 2659              	.LVL111:
 2660 006a 034B     		ldr	r3, .L149+4
 2661 006c 53F82100 		ldr	r0, [r3, r1, lsl #2]
 2662              	.LVL112:
  13:gameOfLife.c  **** 	return sum;
  14:gameOfLife.c  **** }
 2663              		.loc 3 14 0
 2664 0070 381A     		subs	r0, r7, r0
 2665              	.LVL113:
 2666 0072 F0BD     		pop	{r4, r5, r6, r7, pc}
 2667              	.LVL114:
 2668              	.L150:
 2669              		.align	2
 2670              	.L149:
 2671 0074 F712DA4B 		.word	1272582903
 2672 0078 00000000 		.word	.LANCHOR2
 2673              		.cfi_endproc
 2674              	.LFE173:
 2676              		.section	.text.update_table,"ax",%progbits
 2677              		.align	1
 2678              		.global	update_table
 2679              		.syntax unified
 2680              		.thumb
 2681              		.thumb_func
 2682              		.fpu fpv5-sp-d16
 2684              	update_table:
 2685              	.LFB174:
  15:gameOfLife.c  **** 
  16:gameOfLife.c  **** void update_table(){
 2686              		.loc 3 16 0
 2687              		.cfi_startproc
 2688              		@ args = 0, pretend = 0, frame = 2920
 2689              		@ frame_needed = 0, uses_anonymous_args = 0
 2690 0000 30B5     		push	{r4, r5, lr}
 2691              	.LCFI24:
 2692              		.cfi_def_cfa_offset 12
ARM GAS  C:\Users\lenovo\AppData\Local\Temp\ccfgRfuq.s 			page 89


 2693              		.cfi_offset 4, -12
 2694              		.cfi_offset 5, -8
 2695              		.cfi_offset 14, -4
 2696 0002 ADF66C3D 		subw	sp, sp, #2924
 2697              	.LCFI25:
 2698              		.cfi_def_cfa_offset 2936
  17:gameOfLife.c  **** 	int neigh[X_SIZE][Y_SIZE] = {0};
 2699              		.loc 3 17 0
 2700 0006 40F66432 		movw	r2, #2916
 2701 000a 0021     		movs	r1, #0
 2702 000c 01A8     		add	r0, sp, #4
 2703 000e FFF7FEFF 		bl	memset
 2704              	.LVL115:
 2705              	.LBB24:
  18:gameOfLife.c  **** 	for (int i = 0; i < X_SIZE; i++){
 2706              		.loc 3 18 0
 2707 0012 0025     		movs	r5, #0
 2708 0014 0FE0     		b	.L152
 2709              	.LVL116:
 2710              	.L153:
 2711              	.LBB25:
  19:gameOfLife.c  **** 	for (int j = 0; j < Y_SIZE; j++){
  20:gameOfLife.c  **** 		neigh[i][j] = count_neighbours(i,j);
 2712              		.loc 3 20 0 discriminator 3
 2713 0016 2146     		mov	r1, r4
 2714 0018 2846     		mov	r0, r5
 2715 001a FFF7FEFF 		bl	count_neighbours
 2716              	.LVL117:
 2717 001e 05EB4503 		add	r3, r5, r5, lsl #1
 2718 0022 03EBC303 		add	r3, r3, r3, lsl #3
 2719 0026 2344     		add	r3, r3, r4
 2720 0028 01AA     		add	r2, sp, #4
 2721 002a 42F82300 		str	r0, [r2, r3, lsl #2]
  19:gameOfLife.c  **** 	for (int j = 0; j < Y_SIZE; j++){
 2722              		.loc 3 19 0 discriminator 3
 2723 002e 0134     		adds	r4, r4, #1
 2724              	.LVL118:
 2725              	.L154:
  19:gameOfLife.c  **** 	for (int j = 0; j < Y_SIZE; j++){
 2726              		.loc 3 19 0 is_stmt 0 discriminator 1
 2727 0030 1A2C     		cmp	r4, #26
 2728 0032 F0DD     		ble	.L153
 2729              	.LBE25:
  18:gameOfLife.c  **** 	for (int i = 0; i < X_SIZE; i++){
 2730              		.loc 3 18 0 is_stmt 1 discriminator 2
 2731 0034 0135     		adds	r5, r5, #1
 2732              	.LVL119:
 2733              	.L152:
  18:gameOfLife.c  **** 	for (int i = 0; i < X_SIZE; i++){
 2734              		.loc 3 18 0 is_stmt 0 discriminator 1
 2735 0036 1A2D     		cmp	r5, #26
 2736 0038 01DC     		bgt	.L165
 2737 003a 0024     		movs	r4, #0
 2738 003c F8E7     		b	.L154
 2739              	.L165:
 2740 003e 0022     		movs	r2, #0
 2741 0040 49E0     		b	.L155
ARM GAS  C:\Users\lenovo\AppData\Local\Temp\ccfgRfuq.s 			page 90


 2742              	.LVL120:
 2743              	.L167:
 2744              	.LBE24:
 2745              	.LBB26:
 2746              	.LBB27:
  21:gameOfLife.c  **** 		}}
  22:gameOfLife.c  **** 	for (int i = 0; i < X_SIZE; i++){
  23:gameOfLife.c  **** 	for (int j = 0; j < Y_SIZE; j++){
  24:gameOfLife.c  **** 		if (table[i][j] == 1){
  25:gameOfLife.c  **** 			if(neigh[i][j] != 2 && neigh[i][j] != 3){
 2747              		.loc 3 25 0 is_stmt 1
 2748 0042 02EB4203 		add	r3, r2, r2, lsl #1
 2749 0046 03EBC303 		add	r3, r3, r3, lsl #3
 2750 004a 0B44     		add	r3, r3, r1
 2751 004c 01A8     		add	r0, sp, #4
 2752 004e 50F82330 		ldr	r3, [r0, r3, lsl #2]
 2753 0052 023B     		subs	r3, r3, #2
 2754 0054 012B     		cmp	r3, #1
 2755 0056 29D9     		bls	.L157
  26:gameOfLife.c  **** 				table[i][j] = 0;
 2756              		.loc 3 26 0
 2757 0058 02EB4203 		add	r3, r2, r2, lsl #1
 2758 005c 03EBC303 		add	r3, r3, r3, lsl #3
 2759 0060 0B44     		add	r3, r3, r1
 2760 0062 0024     		movs	r4, #0
 2761 0064 1F48     		ldr	r0, .L170
 2762 0066 40F82340 		str	r4, [r0, r3, lsl #2]
 2763              	.L158:
  23:gameOfLife.c  **** 		if (table[i][j] == 1){
 2764              		.loc 3 23 0 discriminator 2
 2765 006a 0131     		adds	r1, r1, #1
 2766              	.LVL121:
 2767              	.L161:
  23:gameOfLife.c  **** 		if (table[i][j] == 1){
 2768              		.loc 3 23 0 is_stmt 0 discriminator 1
 2769 006c 1A29     		cmp	r1, #26
 2770 006e 31DC     		bgt	.L166
  24:gameOfLife.c  **** 			if(neigh[i][j] != 2 && neigh[i][j] != 3){
 2771              		.loc 3 24 0 is_stmt 1
 2772 0070 02EB4203 		add	r3, r2, r2, lsl #1
 2773 0074 03EBC303 		add	r3, r3, r3, lsl #3
 2774 0078 0B44     		add	r3, r3, r1
 2775 007a 1A48     		ldr	r0, .L170
 2776 007c 50F82330 		ldr	r3, [r0, r3, lsl #2]
 2777 0080 012B     		cmp	r3, #1
 2778 0082 DED0     		beq	.L167
  27:gameOfLife.c  **** 			}
  28:gameOfLife.c  **** 	        else{
  29:gameOfLife.c  **** 				table[i][j] = 1;
  30:gameOfLife.c  **** 			}
  31:gameOfLife.c  **** 		}
  32:gameOfLife.c  **** 		else{
  33:gameOfLife.c  **** 			if(neigh[i][j] == 3){
 2779              		.loc 3 33 0
 2780 0084 02EB4203 		add	r3, r2, r2, lsl #1
 2781 0088 03EBC303 		add	r3, r3, r3, lsl #3
 2782 008c 0B44     		add	r3, r3, r1
ARM GAS  C:\Users\lenovo\AppData\Local\Temp\ccfgRfuq.s 			page 91


 2783 008e 01A8     		add	r0, sp, #4
 2784 0090 50F82330 		ldr	r3, [r0, r3, lsl #2]
 2785 0094 032B     		cmp	r3, #3
 2786 0096 13D0     		beq	.L168
  34:gameOfLife.c  **** 				table[i][j] = 1;
  35:gameOfLife.c  **** 			}
  36:gameOfLife.c  **** 			else{
  37:gameOfLife.c  **** 				table[i][j] = 0;
 2787              		.loc 3 37 0
 2788 0098 02EB4203 		add	r3, r2, r2, lsl #1
 2789 009c 03EBC303 		add	r3, r3, r3, lsl #3
 2790 00a0 0B44     		add	r3, r3, r1
 2791 00a2 0024     		movs	r4, #0
 2792 00a4 0F48     		ldr	r0, .L170
 2793 00a6 40F82340 		str	r4, [r0, r3, lsl #2]
 2794 00aa DEE7     		b	.L158
 2795              	.L157:
  29:gameOfLife.c  **** 			}
 2796              		.loc 3 29 0
 2797 00ac 02EB4203 		add	r3, r2, r2, lsl #1
 2798 00b0 03EBC303 		add	r3, r3, r3, lsl #3
 2799 00b4 0B44     		add	r3, r3, r1
 2800 00b6 0124     		movs	r4, #1
 2801 00b8 0A48     		ldr	r0, .L170
 2802 00ba 40F82340 		str	r4, [r0, r3, lsl #2]
 2803 00be D4E7     		b	.L158
 2804              	.L168:
  34:gameOfLife.c  **** 				table[i][j] = 1;
 2805              		.loc 3 34 0
 2806 00c0 02EB4203 		add	r3, r2, r2, lsl #1
 2807 00c4 03EBC303 		add	r3, r3, r3, lsl #3
 2808 00c8 0B44     		add	r3, r3, r1
 2809 00ca 0124     		movs	r4, #1
 2810 00cc 0548     		ldr	r0, .L170
 2811 00ce 40F82340 		str	r4, [r0, r3, lsl #2]
 2812 00d2 CAE7     		b	.L158
 2813              	.L166:
 2814              	.LBE27:
  22:gameOfLife.c  **** 	for (int j = 0; j < Y_SIZE; j++){
 2815              		.loc 3 22 0 discriminator 2
 2816 00d4 0132     		adds	r2, r2, #1
 2817              	.LVL122:
 2818              	.L155:
  22:gameOfLife.c  **** 	for (int j = 0; j < Y_SIZE; j++){
 2819              		.loc 3 22 0 is_stmt 0 discriminator 1
 2820 00d6 1A2A     		cmp	r2, #26
 2821 00d8 01DC     		bgt	.L169
 2822 00da 0021     		movs	r1, #0
 2823 00dc C6E7     		b	.L161
 2824              	.L169:
 2825              	.LBE26:
  38:gameOfLife.c  **** 			}
  39:gameOfLife.c  **** 		}
  40:gameOfLife.c  **** 	}
  41:gameOfLife.c  ****   }
  42:gameOfLife.c  **** } 
 2826              		.loc 3 42 0 is_stmt 1
ARM GAS  C:\Users\lenovo\AppData\Local\Temp\ccfgRfuq.s 			page 92


 2827 00de 0DF66C3D 		addw	sp, sp, #2924
 2828              	.LCFI26:
 2829              		.cfi_def_cfa_offset 12
 2830              		@ sp needed
 2831 00e2 30BD     		pop	{r4, r5, pc}
 2832              	.LVL123:
 2833              	.L171:
 2834              		.align	2
 2835              	.L170:
 2836 00e4 00000000 		.word	.LANCHOR2
 2837              		.cfi_endproc
 2838              	.LFE174:
 2840              		.section	.text.ABS,"ax",%progbits
 2841              		.align	1
 2842              		.global	ABS
 2843              		.syntax unified
 2844              		.thumb
 2845              		.thumb_func
 2846              		.fpu fpv5-sp-d16
 2848              	ABS:
 2849              	.LFB175:
 2850              		.file 4 "graphics.c"
   1:graphics.c    **** #include "gameOfLife.c"
   2:graphics.c    **** #define LCD_X_SIZE      RK043FN48H_WIDTH
   3:graphics.c    **** #define LCD_Y_SIZE      RK043FN48H_HEIGHT
   4:graphics.c    **** 
   5:graphics.c    **** int state = 0;
   6:graphics.c    **** int state_changed = 0;
   7:graphics.c    **** int drawing_state = 0;
   8:graphics.c    **** int stopped = 1;
   9:graphics.c    **** 
  10:graphics.c    **** //[rmv]
  11:graphics.c    **** uint16_t ABS(uint16_t x){
 2851              		.loc 4 11 0
 2852              		.cfi_startproc
 2853              		@ args = 0, pretend = 0, frame = 0
 2854              		@ frame_needed = 0, uses_anonymous_args = 0
 2855              		@ link register save eliminated.
 2856              	.LVL124:
  12:graphics.c    **** 	return x<0?(-1)*x:x;
  13:graphics.c    **** }
 2857              		.loc 4 13 0
 2858 0000 7047     		bx	lr
 2859              		.cfi_endproc
 2860              	.LFE175:
 2862              		.section	.text.FillTriangle,"ax",%progbits
 2863              		.align	1
 2864              		.syntax unified
 2865              		.thumb
 2866              		.thumb_func
 2867              		.fpu fpv5-sp-d16
 2869              	FillTriangle:
 2870              	.LFB176:
  14:graphics.c    **** 
  15:graphics.c    **** static void FillTriangle(uint16_t x1, uint16_t x2, uint16_t x3, uint16_t y1, uint16_t y2, uint16_t 
  16:graphics.c    **** { 
 2871              		.loc 4 16 0
ARM GAS  C:\Users\lenovo\AppData\Local\Temp\ccfgRfuq.s 			page 93


 2872              		.cfi_startproc
 2873              		@ args = 8, pretend = 0, frame = 24
 2874              		@ frame_needed = 0, uses_anonymous_args = 0
 2875              	.LVL125:
 2876 0000 2DE9F04F 		push	{r4, r5, r6, r7, r8, r9, r10, fp, lr}
 2877              	.LCFI27:
 2878              		.cfi_def_cfa_offset 36
 2879              		.cfi_offset 4, -36
 2880              		.cfi_offset 5, -32
 2881              		.cfi_offset 6, -28
 2882              		.cfi_offset 7, -24
 2883              		.cfi_offset 8, -20
 2884              		.cfi_offset 9, -16
 2885              		.cfi_offset 10, -12
 2886              		.cfi_offset 11, -8
 2887              		.cfi_offset 14, -4
 2888 0004 87B0     		sub	sp, sp, #28
 2889              	.LCFI28:
 2890              		.cfi_def_cfa_offset 64
 2891 0006 0646     		mov	r6, r0
 2892 0008 8946     		mov	r9, r1
 2893 000a 0292     		str	r2, [sp, #8]
 2894 000c 1C46     		mov	r4, r3
 2895 000e BDF84080 		ldrh	r8, [sp, #64]
 2896 0012 BDF84430 		ldrh	r3, [sp, #68]
 2897              	.LVL126:
 2898 0016 0393     		str	r3, [sp, #12]
 2899              	.LVL127:
  17:graphics.c    ****   int16_t deltax = 0, deltay = 0, x = 0, y = 0, xinc1 = 0, xinc2 = 0, 
  18:graphics.c    ****   yinc1 = 0, yinc2 = 0, den = 0, num = 0, num_add = 0, num_pixels = 0,
  19:graphics.c    ****   curpixel = 0;
  20:graphics.c    ****   
  21:graphics.c    ****   deltax = ABS(x2 - x1);        /* The difference between the x's */
 2900              		.loc 4 21 0
 2901 0018 081A     		subs	r0, r1, r0
 2902              	.LVL128:
 2903 001a 80B2     		uxth	r0, r0
 2904 001c FFF7FEFF 		bl	ABS
 2905              	.LVL129:
 2906 0020 0FFA80FA 		sxth	r10, r0
 2907              	.LVL130:
  22:graphics.c    ****   deltay = ABS(y2 - y1);        /* The difference between the y's */
 2908              		.loc 4 22 0
 2909 0024 A8EB0400 		sub	r0, r8, r4
 2910 0028 80B2     		uxth	r0, r0
 2911 002a FFF7FEFF 		bl	ABS
 2912              	.LVL131:
 2913 002e 0FFA80FB 		sxth	fp, r0
 2914              	.LVL132:
  23:graphics.c    ****   x = x1;                       /* Start x off at the first pixel */
 2915              		.loc 4 23 0
 2916 0032 35B2     		sxth	r5, r6
 2917              	.LVL133:
  24:graphics.c    ****   y = y1;                       /* Start y off at the first pixel */
 2918              		.loc 4 24 0
 2919 0034 27B2     		sxth	r7, r4
 2920              	.LVL134:
ARM GAS  C:\Users\lenovo\AppData\Local\Temp\ccfgRfuq.s 			page 94


  25:graphics.c    ****   
  26:graphics.c    ****   if (x2 >= x1)                 /* The x-values are increasing */
 2921              		.loc 4 26 0
 2922 0036 B145     		cmp	r9, r6
 2923 0038 15D3     		bcc	.L183
  27:graphics.c    ****   {
  28:graphics.c    ****     xinc1 = 1;
 2924              		.loc 4 28 0
 2925 003a 0123     		movs	r3, #1
 2926 003c 0493     		str	r3, [sp, #16]
 2927              	.L174:
 2928              	.LVL135:
  29:graphics.c    ****     xinc2 = 1;
  30:graphics.c    ****   }
  31:graphics.c    ****   else                          /* The x-values are decreasing */
  32:graphics.c    ****   {
  33:graphics.c    ****     xinc1 = -1;
  34:graphics.c    ****     xinc2 = -1;
  35:graphics.c    ****   }
  36:graphics.c    ****   
  37:graphics.c    ****   if (y2 >= y1)                 /* The y-values are increasing */
 2929              		.loc 4 37 0
 2930 003e A045     		cmp	r8, r4
 2931 0040 15D3     		bcc	.L184
  38:graphics.c    ****   {
  39:graphics.c    ****     yinc1 = 1;
 2932              		.loc 4 39 0
 2933 0042 0123     		movs	r3, #1
 2934 0044 0593     		str	r3, [sp, #20]
 2935              	.L175:
 2936              	.LVL136:
  40:graphics.c    ****     yinc2 = 1;
  41:graphics.c    ****   }
  42:graphics.c    ****   else                          /* The y-values are decreasing */
  43:graphics.c    ****   {
  44:graphics.c    ****     yinc1 = -1;
  45:graphics.c    ****     yinc2 = -1;
  46:graphics.c    ****   }
  47:graphics.c    ****   
  48:graphics.c    ****   if (deltax >= deltay)         /* There is at least one x-value for every y-value */
 2937              		.loc 4 48 0
 2938 0046 DA45     		cmp	r10, fp
 2939 0048 18DB     		blt	.L176
 2940              	.LVL137:
  49:graphics.c    ****   {
  50:graphics.c    ****     xinc1 = 0;                  /* Don't change the x when numerator >= denominator */
  51:graphics.c    ****     yinc2 = 0;                  /* Don't change the y for every iteration */
  52:graphics.c    ****     den = deltax;
  53:graphics.c    ****     num = deltax / 2;
 2941              		.loc 4 53 0
 2942 004a 5446     		mov	r4, r10
 2943 004c BAF1000F 		cmp	r10, #0
 2944 0050 11DB     		blt	.L186
 2945              	.L177:
 2946 0052 44F34F04 		sbfx	r4, r4, #1, #16
 2947              	.LVL138:
 2948 0056 049B     		ldr	r3, [sp, #16]
ARM GAS  C:\Users\lenovo\AppData\Local\Temp\ccfgRfuq.s 			page 95


 2949 0058 0093     		str	r3, [sp]
  51:graphics.c    ****     den = deltax;
 2950              		.loc 4 51 0
 2951 005a 0023     		movs	r3, #0
 2952 005c 0493     		str	r3, [sp, #16]
 2953              	.LVL139:
  50:graphics.c    ****     yinc2 = 0;                  /* Don't change the y for every iteration */
 2954              		.loc 4 50 0
 2955 005e 0193     		str	r3, [sp, #4]
 2956              	.LVL140:
 2957              	.L178:
  54:graphics.c    ****     num_add = deltay;
  55:graphics.c    ****     num_pixels = deltax;         /* There are more x-values than y-values */
  56:graphics.c    ****   }
  57:graphics.c    ****   else                          /* There is at least one y-value for every x-value */
  58:graphics.c    ****   {
  59:graphics.c    ****     xinc2 = 0;                  /* Don't change the x for every iteration */
  60:graphics.c    ****     yinc1 = 0;                  /* Don't change the y when numerator >= denominator */
  61:graphics.c    ****     den = deltay;
  62:graphics.c    ****     num = deltay / 2;
  63:graphics.c    ****     num_add = deltax;
  64:graphics.c    ****     num_pixels = deltay;         /* There are more y-values than x-values */
  65:graphics.c    ****   }
  66:graphics.c    ****   
  67:graphics.c    ****   for (curpixel = 0; curpixel <= num_pixels; curpixel++)
 2958              		.loc 4 67 0
 2959 0060 4FF00009 		mov	r9, #0
 2960 0064 26E0     		b	.L180
 2961              	.LVL141:
 2962              	.L183:
  33:graphics.c    ****     xinc2 = -1;
 2963              		.loc 4 33 0
 2964 0066 4FF0FF33 		mov	r3, #-1
 2965 006a 0493     		str	r3, [sp, #16]
 2966 006c E7E7     		b	.L174
 2967              	.LVL142:
 2968              	.L184:
  44:graphics.c    ****     yinc2 = -1;
 2969              		.loc 4 44 0
 2970 006e 4FF0FF33 		mov	r3, #-1
 2971 0072 0593     		str	r3, [sp, #20]
 2972 0074 E7E7     		b	.L175
 2973              	.LVL143:
 2974              	.L186:
  53:graphics.c    ****     num_add = deltay;
 2975              		.loc 4 53 0
 2976 0076 0AF10104 		add	r4, r10, #1
 2977 007a EAE7     		b	.L177
 2978              	.LVL144:
 2979              	.L176:
  62:graphics.c    ****     num_add = deltax;
 2980              		.loc 4 62 0
 2981 007c 5C46     		mov	r4, fp
 2982 007e BBF1000F 		cmp	fp, #0
 2983 0082 0ADB     		blt	.L187
 2984              	.L179:
 2985 0084 44F34F04 		sbfx	r4, r4, #1, #16
ARM GAS  C:\Users\lenovo\AppData\Local\Temp\ccfgRfuq.s 			page 96


 2986              	.LVL145:
 2987 0088 5346     		mov	r3, r10
  61:graphics.c    ****     num = deltay / 2;
 2988              		.loc 4 61 0
 2989 008a DA46     		mov	r10, fp
 2990              	.LVL146:
  63:graphics.c    ****     num_pixels = deltay;         /* There are more y-values than x-values */
 2991              		.loc 4 63 0
 2992 008c 9B46     		mov	fp, r3
 2993              	.LVL147:
  62:graphics.c    ****     num_add = deltax;
 2994              		.loc 4 62 0
 2995 008e 059B     		ldr	r3, [sp, #20]
 2996              	.LVL148:
 2997 0090 0193     		str	r3, [sp, #4]
  60:graphics.c    ****     den = deltay;
 2998              		.loc 4 60 0
 2999 0092 0023     		movs	r3, #0
 3000 0094 0593     		str	r3, [sp, #20]
 3001              	.LVL149:
  59:graphics.c    ****     yinc1 = 0;                  /* Don't change the y when numerator >= denominator */
 3002              		.loc 4 59 0
 3003 0096 0093     		str	r3, [sp]
 3004 0098 E2E7     		b	.L178
 3005              	.LVL150:
 3006              	.L187:
  62:graphics.c    ****     num_add = deltax;
 3007              		.loc 4 62 0
 3008 009a 0BF10104 		add	r4, fp, #1
 3009 009e F1E7     		b	.L179
 3010              	.LVL151:
 3011              	.L181:
  68:graphics.c    ****   {
  69:graphics.c    ****     BSP_LCD_DrawLine(x, y, x3, y3);
  70:graphics.c    ****     
  71:graphics.c    ****     num += num_add;              /* Increase the numerator by the top of the fraction */
  72:graphics.c    ****     if (num >= den)             /* Check if numerator >= denominator */
  73:graphics.c    ****     {
  74:graphics.c    ****       num -= den;               /* Calculate the new numerator value */
  75:graphics.c    ****       x += xinc1;               /* Change the x as appropriate */
  76:graphics.c    ****       y += yinc1;               /* Change the y as appropriate */
  77:graphics.c    ****     }
  78:graphics.c    ****     x += xinc2;                 /* Change the x as appropriate */
 3012              		.loc 4 78 0 discriminator 2
 3013 00a0 009B     		ldr	r3, [sp]
 3014 00a2 1D44     		add	r5, r5, r3
 3015              	.LVL152:
 3016 00a4 2DB2     		sxth	r5, r5
 3017              	.LVL153:
  79:graphics.c    ****     y += yinc2;                 /* Change the y as appropriate */
 3018              		.loc 4 79 0 discriminator 2
 3019 00a6 019B     		ldr	r3, [sp, #4]
 3020 00a8 1F44     		add	r7, r7, r3
 3021              	.LVL154:
 3022 00aa 3FB2     		sxth	r7, r7
 3023              	.LVL155:
  67:graphics.c    ****   {
ARM GAS  C:\Users\lenovo\AppData\Local\Temp\ccfgRfuq.s 			page 97


 3024              		.loc 4 67 0 discriminator 2
 3025 00ac 09F10109 		add	r9, r9, #1
 3026              	.LVL156:
 3027 00b0 0FFA89F9 		sxth	r9, r9
 3028              	.LVL157:
 3029              	.L180:
  67:graphics.c    ****   {
 3030              		.loc 4 67 0 is_stmt 0 discriminator 1
 3031 00b4 CA45     		cmp	r10, r9
 3032 00b6 18DB     		blt	.L188
  69:graphics.c    ****     
 3033              		.loc 4 69 0 is_stmt 1
 3034 00b8 1FFA85F8 		uxth	r8, r5
 3035 00bc BEB2     		uxth	r6, r7
 3036 00be 039B     		ldr	r3, [sp, #12]
 3037 00c0 029A     		ldr	r2, [sp, #8]
 3038 00c2 3146     		mov	r1, r6
 3039 00c4 4046     		mov	r0, r8
 3040 00c6 FFF7FEFF 		bl	BSP_LCD_DrawLine
 3041              	.LVL158:
  71:graphics.c    ****     if (num >= den)             /* Check if numerator >= denominator */
 3042              		.loc 4 71 0
 3043 00ca 5C44     		add	r4, r4, fp
 3044              	.LVL159:
 3045 00cc A3B2     		uxth	r3, r4
 3046 00ce 1CB2     		sxth	r4, r3
 3047              	.LVL160:
  72:graphics.c    ****     {
 3048              		.loc 4 72 0
 3049 00d0 A245     		cmp	r10, r4
 3050 00d2 E5DC     		bgt	.L181
  74:graphics.c    ****       x += xinc1;               /* Change the x as appropriate */
 3051              		.loc 4 74 0
 3052 00d4 A3EB0A04 		sub	r4, r3, r10
 3053              	.LVL161:
 3054 00d8 24B2     		sxth	r4, r4
 3055              	.LVL162:
  75:graphics.c    ****       y += yinc1;               /* Change the y as appropriate */
 3056              		.loc 4 75 0
 3057 00da 049B     		ldr	r3, [sp, #16]
 3058 00dc 08EB0305 		add	r5, r8, r3
 3059              	.LVL163:
 3060 00e0 2DB2     		sxth	r5, r5
 3061              	.LVL164:
  76:graphics.c    ****     }
 3062              		.loc 4 76 0
 3063 00e2 059B     		ldr	r3, [sp, #20]
 3064 00e4 F718     		adds	r7, r6, r3
 3065              	.LVL165:
 3066 00e6 3FB2     		sxth	r7, r7
 3067              	.LVL166:
 3068 00e8 DAE7     		b	.L181
 3069              	.L188:
  80:graphics.c    ****   } 
  81:graphics.c    **** }
 3070              		.loc 4 81 0
 3071 00ea 07B0     		add	sp, sp, #28
ARM GAS  C:\Users\lenovo\AppData\Local\Temp\ccfgRfuq.s 			page 98


 3072              	.LCFI29:
 3073              		.cfi_def_cfa_offset 36
 3074              	.LVL167:
 3075              		@ sp needed
 3076 00ec BDE8F08F 		pop	{r4, r5, r6, r7, r8, r9, r10, fp, pc}
 3077              		.cfi_endproc
 3078              	.LFE176:
 3080              		.section	.text.initialize_touchscreen,"ax",%progbits
 3081              		.align	1
 3082              		.global	initialize_touchscreen
 3083              		.syntax unified
 3084              		.thumb
 3085              		.thumb_func
 3086              		.fpu fpv5-sp-d16
 3088              	initialize_touchscreen:
 3089              	.LFB177:
  82:graphics.c    **** 
  83:graphics.c    **** int initialize_touchscreen(void)
  84:graphics.c    **** {
 3090              		.loc 4 84 0
 3091              		.cfi_startproc
 3092              		@ args = 0, pretend = 0, frame = 0
 3093              		@ frame_needed = 0, uses_anonymous_args = 0
 3094 0000 10B5     		push	{r4, lr}
 3095              	.LCFI30:
 3096              		.cfi_def_cfa_offset 8
 3097              		.cfi_offset 4, -8
 3098              		.cfi_offset 14, -4
 3099              	.LVL168:
  85:graphics.c    ****   uint8_t  status = 0;
  86:graphics.c    ****   status = BSP_TS_Init(BSP_LCD_GetXSize(), BSP_LCD_GetYSize());
 3100              		.loc 4 86 0
 3101 0002 FFF7FEFF 		bl	BSP_LCD_GetXSize
 3102              	.LVL169:
 3103 0006 84B2     		uxth	r4, r0
 3104 0008 FFF7FEFF 		bl	BSP_LCD_GetYSize
 3105              	.LVL170:
 3106 000c 81B2     		uxth	r1, r0
 3107 000e 2046     		mov	r0, r4
 3108 0010 FFF7FEFF 		bl	BSP_TS_Init
 3109              	.LVL171:
  87:graphics.c    ****   if(status != TS_OK) return -1;
 3110              		.loc 4 87 0
 3111 0014 08B9     		cbnz	r0, .L193
  88:graphics.c    ****   return 0;
 3112              		.loc 4 88 0
 3113 0016 0020     		movs	r0, #0
 3114              	.LVL172:
  89:graphics.c    **** }
 3115              		.loc 4 89 0
 3116 0018 10BD     		pop	{r4, pc}
 3117              	.LVL173:
 3118              	.L193:
  87:graphics.c    ****   if(status != TS_OK) return -1;
 3119              		.loc 4 87 0
 3120 001a 4FF0FF30 		mov	r0, #-1
 3121              	.LVL174:
ARM GAS  C:\Users\lenovo\AppData\Local\Temp\ccfgRfuq.s 			page 99


 3122 001e 10BD     		pop	{r4, pc}
 3123              		.cfi_endproc
 3124              	.LFE177:
 3126              		.section	.text.init_background,"ax",%progbits
 3127              		.align	1
 3128              		.global	init_background
 3129              		.syntax unified
 3130              		.thumb
 3131              		.thumb_func
 3132              		.fpu fpv5-sp-d16
 3134              	init_background:
 3135              	.LFB178:
  90:graphics.c    **** //[rmv]
  91:graphics.c    **** void init_background(){
 3136              		.loc 4 91 0
 3137              		.cfi_startproc
 3138              		@ args = 0, pretend = 0, frame = 0
 3139              		@ frame_needed = 0, uses_anonymous_args = 0
 3140 0000 30B5     		push	{r4, r5, lr}
 3141              	.LCFI31:
 3142              		.cfi_def_cfa_offset 12
 3143              		.cfi_offset 4, -12
 3144              		.cfi_offset 5, -8
 3145              		.cfi_offset 14, -4
 3146 0002 83B0     		sub	sp, sp, #12
 3147              	.LCFI32:
 3148              		.cfi_def_cfa_offset 24
  92:graphics.c    **** 	switch(state){
 3149              		.loc 4 92 0
 3150 0004 864B     		ldr	r3, .L208
 3151 0006 1B68     		ldr	r3, [r3]
 3152 0008 012B     		cmp	r3, #1
 3153 000a 00F08280 		beq	.L196
 3154 000e 022B     		cmp	r3, #2
 3155 0010 00F0B280 		beq	.L197
 3156 0014 002B     		cmp	r3, #0
 3157 0016 4FD0     		beq	.L205
 3158              	.L195:
  93:graphics.c    **** 		case 0:
  94:graphics.c    **** 			BSP_LCD_SelectLayer(0);
  95:graphics.c    **** 			BSP_LCD_Clear(LCD_COLOR_WHITE);
  96:graphics.c    **** 			BSP_LCD_SetTextColor(LCD_COLOR_GREEN);
  97:graphics.c    **** 			BSP_LCD_DisplayStringAt(175,50,"Pulsar",CENTER_MODE);
  98:graphics.c    **** 			BSP_LCD_DisplayStringAt(150,100,"Evolution",CENTER_MODE);
  99:graphics.c    **** 			BSP_LCD_DisplayStringAt(160,150,"Fountain",CENTER_MODE);
 100:graphics.c    **** 			BSP_LCD_DisplayStringAt(150,200,"Crocodile",CENTER_MODE);
 101:graphics.c    **** 			BSP_LCD_SetTextColor(LCD_COLOR_RED);
 102:graphics.c    **** 			BSP_LCD_DisplayStringAt(70,0,"NEXT",CENTER_MODE);
 103:graphics.c    **** 			break;
 104:graphics.c    **** 		case 1:
 105:graphics.c    **** 			BSP_LCD_SelectLayer(0);
 106:graphics.c    **** 			BSP_LCD_Clear(LCD_COLOR_WHITE);
 107:graphics.c    **** 			BSP_LCD_SetTextColor(LCD_COLOR_GREEN);
