ARM GAS  C:\Users\lenovo\AppData\Local\Temp\ccfgRfuq.s 			page 1


   1              		.cpu cortex-m7
   2              		.eabi_attribute 27, 1
   3              		.eabi_attribute 28, 1
   4              		.eabi_attribute 20, 1
   5              		.eabi_attribute 21, 1
   6              		.eabi_attribute 23, 3
   7              		.eabi_attribute 24, 1
   8              		.eabi_attribute 25, 1
   9              		.eabi_attribute 26, 1
  10              		.eabi_attribute 30, 1
  11              		.eabi_attribute 34, 1
  12              		.eabi_attribute 18, 4
  13              		.file	"main.c"
  14              		.text
  15              	.Ltext0:
  16              		.cfi_sections	.debug_frame
  17              		.section	.text.MX_SDMMC1_SD_Init,"ax",%progbits
  18              		.align	1
  19              		.syntax unified
  20              		.thumb
  21              		.thumb_func
  22              		.fpu fpv5-sp-d16
  24              	MX_SDMMC1_SD_Init:
  25              	.LFB197:
  26              		.file 1 "main.c"
   1:main.c        **** 
   2:main.c        **** /**
   3:main.c        ****   ******************************************************************************
   4:main.c        ****   * @file           : main.c
   5:main.c        ****   * @brief          : Main program body
   6:main.c        ****   ******************************************************************************
   7:main.c        ****   * This notice applies to any and all portions of this file
   8:main.c        ****   * that are not between comment pairs USER CODE BEGIN and
   9:main.c        ****   * USER CODE END. Other portions of this file, whether 
  10:main.c        ****   * inserted by the user or by software development tools
  11:main.c        ****   * are owned by their respective copyright owners.
  12:main.c        ****   *
  13:main.c        ****   * Copyright (c) 2018 STMicroelectronics International N.V. 
  14:main.c        ****   * All rights reserved.
  15:main.c        ****   *
  16:main.c        ****   * Redistribution and use in source and binary forms, with or without 
  17:main.c        ****   * modification, are permitted, provided that the following conditions are met:
  18:main.c        ****   *
  19:main.c        ****   * 1. Redistribution of source code must retain the above copyright notice, 
  20:main.c        ****   *    this list of conditions and the following disclaimer.
  21:main.c        ****   * 2. Redistributions in binary form must reproduce the above copyright notice,
  22:main.c        ****   *    this list of conditions and the following disclaimer in the documentation
  23:main.c        ****   *    and/or other materials provided with the distribution.
  24:main.c        ****   * 3. Neither the name of STMicroelectronics nor the names of other 
  25:main.c        ****   *    contributors to this software may be used to endorse or promote products 
  26:main.c        ****   *    derived from this software without specific written permission.
  27:main.c        ****   * 4. This software, including modifications and/or derivative works of this 
  28:main.c        ****   *    software, must execute solely and exclusively on microcontroller or
  29:main.c        ****   *    microprocessor devices manufactured by or for STMicroelectronics.
  30:main.c        ****   * 5. Redistribution and use of this software other than as permitted under 
  31:main.c        ****   *    this license is void and will automatically terminate your rights under 
  32:main.c        ****   *    this license. 
ARM GAS  C:\Users\lenovo\AppData\Local\Temp\ccfgRfuq.s 			page 2


  33:main.c        ****   *
  34:main.c        ****   * THIS SOFTWARE IS PROVIDED BY STMICROELECTRONICS AND CONTRIBUTORS "AS IS" 
  35:main.c        ****   * AND ANY EXPRESS, IMPLIED OR STATUTORY WARRANTIES, INCLUDING, BUT NOT 
  36:main.c        ****   * LIMITED TO, THE IMPLIED WARRANTIES OF MERCHANTABILITY, FITNESS FOR A 
  37:main.c        ****   * PARTICULAR PURPOSE AND NON-INFRINGEMENT OF THIRD PARTY INTELLECTUAL PROPERTY
  38:main.c        ****   * RIGHTS ARE DISCLAIMED TO THE FULLEST EXTENT PERMITTED BY LAW. IN NO EVENT 
  39:main.c        ****   * SHALL STMICROELECTRONICS OR CONTRIBUTORS BE LIABLE FOR ANY DIRECT, INDIRECT,
  40:main.c        ****   * INCIDENTAL, SPECIAL, EXEMPLARY, OR CONSEQUENTIAL DAMAGES (INCLUDING, BUT NOT
  41:main.c        ****   * LIMITED TO, PROCUREMENT OF SUBSTITUTE GOODS OR SERVICES; LOSS OF USE, DATA, 
  42:main.c        ****   * OR PROFITS; OR BUSINESS INTERRUPTION) HOWEVER CAUSED AND ON ANY THEORY OF 
  43:main.c        ****   * LIABILITY, WHETHER IN CONTRACT, STRICT LIABILITY, OR TORT (INCLUDING 
  44:main.c        ****   * NEGLIGENCE OR OTHERWISE) ARISING IN ANY WAY OUT OF THE USE OF THIS SOFTWARE,
  45:main.c        ****   * EVEN IF ADVISED OF THE POSSIBILITY OF SUCH DAMAGE.
  46:main.c        ****   *
  47:main.c        ****   ******************************************************************************
  48:main.c        ****   */
  49:main.c        **** /* Includes ------------------------------------------------------------------*/
  50:main.c        **** #include "main.h"
  51:main.c        **** #include "stm32f7xx_hal.h"
  52:main.c        **** #include "cmsis_os.h"
  53:main.c        **** #include "fatfs.h"
  54:main.c        **** #include "lwip.h"
  55:main.c        **** #include "usb_host.h"
  56:main.c        **** 
  57:main.c        **** /* USER CODE BEGIN Includes */
  58:main.c        **** #include  <errno.h>
  59:main.c        **** #include  <sys/unistd.h>
  60:main.c        **** 
  61:main.c        **** #include "stm32746g_discovery_lcd.h"
  62:main.c        **** #include "Utilities/Fonts/fonts.h"
  63:main.c        **** #include "stm32746g_discovery_ts.h"
  64:main.c        **** #include "stm32746g_discovery_audio.h"
  65:main.c        **** #include "term_io.h"
  66:main.c        **** #include "dbgu.h"
  67:main.c        **** #include "ansi.h"
  68:main.c        **** 
  69:main.c        **** #include "FreeRTOS.h"
  70:main.c        **** #include "task.h"
  71:main.c        **** #include "queue.h"
  72:main.c        **** 
  73:main.c        **** #include "lwip/opt.h"
  74:main.c        **** #include "lwip/api.h"
  75:main.c        **** #include "lwip/apps/fs.h"
  76:main.c        **** #include "lwip/dhcp.h"
  77:main.c        **** #include "lwip/tcpip.h"
  78:main.c        **** #include "lwip/netdb.h"
  79:main.c        **** #include "lwip/sockets.h"
  80:main.c        **** 
  81:main.c        **** #include "lwip.h"
  82:main.c        **** 
  83:main.c        **** #include "wm8994/wm8994.h"
  84:main.c        **** 
  85:main.c        **** 
  86:main.c        **** #include "graphics.c"
  87:main.c        **** 
  88:main.c        **** /* USER CODE END Includes */
  89:main.c        **** 
ARM GAS  C:\Users\lenovo\AppData\Local\Temp\ccfgRfuq.s 			page 3


  90:main.c        **** /* Private variables ---------------------------------------------------------*/
  91:main.c        **** ADC_HandleTypeDef hadc3;
  92:main.c        **** 
  93:main.c        **** CRC_HandleTypeDef hcrc;
  94:main.c        **** 
  95:main.c        **** DCMI_HandleTypeDef hdcmi;
  96:main.c        **** 
  97:main.c        **** DMA2D_HandleTypeDef hdma2d;
  98:main.c        **** 
  99:main.c        **** I2C_HandleTypeDef hi2c1;
 100:main.c        **** I2C_HandleTypeDef hi2c3;
 101:main.c        **** 
 102:main.c        **** LTDC_HandleTypeDef hltdc;
 103:main.c        **** 
 104:main.c        **** QSPI_HandleTypeDef hqspi;
 105:main.c        **** 
 106:main.c        **** RTC_HandleTypeDef hrtc;
 107:main.c        **** 
 108:main.c        **** SAI_HandleTypeDef hsai_BlockA2;
 109:main.c        **** SAI_HandleTypeDef hsai_BlockB2;
 110:main.c        **** 
 111:main.c        **** SD_HandleTypeDef hsd1;
 112:main.c        **** 
 113:main.c        **** SPDIFRX_HandleTypeDef hspdif;
 114:main.c        **** 
 115:main.c        **** SPI_HandleTypeDef hspi2;
 116:main.c        **** 
 117:main.c        **** TIM_HandleTypeDef htim1;
 118:main.c        **** TIM_HandleTypeDef htim2;
 119:main.c        **** TIM_HandleTypeDef htim3;
 120:main.c        **** TIM_HandleTypeDef htim5;
 121:main.c        **** TIM_HandleTypeDef htim7;
 122:main.c        **** TIM_HandleTypeDef htim8;
 123:main.c        **** TIM_HandleTypeDef htim12;
 124:main.c        **** 
 125:main.c        **** UART_HandleTypeDef huart1;
 126:main.c        **** UART_HandleTypeDef huart6;
 127:main.c        **** 
 128:main.c        **** SDRAM_HandleTypeDef hsdram1;
 129:main.c        **** 
 130:main.c        **** osThreadId defaultTaskHandle;
 131:main.c        **** osThreadId tableTaskHandle;
 132:main.c        **** 
 133:main.c        **** /* USER CODE BEGIN PV */
 134:main.c        **** /* Private variables ---------------------------------------------------------*/
 135:main.c        **** 
 136:main.c        **** /* USER CODE END PV */
 137:main.c        **** 
 138:main.c        **** /* Private function prototypes -----------------------------------------------*/
 139:main.c        **** void SystemClock_Config(void);
 140:main.c        **** static void MX_GPIO_Init(void);
 141:main.c        **** static void MX_ADC3_Init(void);
 142:main.c        **** static void MX_CRC_Init(void);
 143:main.c        **** static void MX_DCMI_Init(void);
 144:main.c        **** static void MX_DMA2D_Init(void);
 145:main.c        **** static void MX_FMC_Init(void);
 146:main.c        **** static void MX_I2C1_Init(void);
ARM GAS  C:\Users\lenovo\AppData\Local\Temp\ccfgRfuq.s 			page 4


 147:main.c        **** static void MX_I2C3_Init(void);
 148:main.c        **** static void MX_LTDC_Init(void);
 149:main.c        **** static void MX_QUADSPI_Init(void);
 150:main.c        **** static void MX_RTC_Init(void);
 151:main.c        **** static void MX_SAI2_Init(void);
 152:main.c        **** static void MX_SDMMC1_SD_Init(void);
 153:main.c        **** static void MX_SPDIFRX_Init(void);
 154:main.c        **** static void MX_SPI2_Init(void);
 155:main.c        **** static void MX_TIM1_Init(void);
 156:main.c        **** static void MX_TIM2_Init(void);
 157:main.c        **** static void MX_TIM3_Init(void);
 158:main.c        **** static void MX_TIM5_Init(void);
 159:main.c        **** static void MX_TIM8_Init(void);
 160:main.c        **** static void MX_TIM12_Init(void);
 161:main.c        **** static void MX_USART1_UART_Init(void);
 162:main.c        **** static void MX_USART6_UART_Init(void);
 163:main.c        **** static void MX_TIM7_Init(void);
 164:main.c        **** void StartDefaultTask(void const * argument);
 165:main.c        **** void StartTableTask();
 166:main.c        **** 
 167:main.c        **** void HAL_TIM_MspPostInit(TIM_HandleTypeDef *htim);
 168:main.c        ****                                 
 169:main.c        ****                                 
 170:main.c        ****                                 
 171:main.c        ****                                 
 172:main.c        **** 
 173:main.c        **** /* USER CODE BEGIN PFP */
 174:main.c        **** /* Private function prototypes -----------------------------------------------*/
 175:main.c        **** 
 176:main.c        **** /* USER CODE END PFP */
 177:main.c        **** 
 178:main.c        **** /* USER CODE BEGIN 0 */
 179:main.c        **** void mainTask(void* p);
 180:main.c        **** 
 181:main.c        **** osThreadId netconn_thread_handle;
 182:main.c        **** 
 183:main.c        **** static uint32_t lcd_image_fg[LCD_Y_SIZE][LCD_X_SIZE] __attribute__((section(".sdram"))) __attribute
 184:main.c        **** static uint32_t lcd_image_bg[LCD_Y_SIZE][LCD_X_SIZE] __attribute__((section(".sdram"))) __attribute
 185:main.c        **** 
 186:main.c        **** #define MASS_STORAGE_BUF_SIZE		( 1024 * 1024 )
 187:main.c        **** static uint32_t mass_storage_buf[MASS_STORAGE_BUF_SIZE] __attribute__((section(".sdram"))) __attrib
 188:main.c        **** 
 189:main.c        **** #define PRINTF_USES_HAL_TX    0
 190:main.c        **** #define ENABLE_NETWORK        0
 191:main.c        **** 
 192:main.c        **** int __io_putchar(int ch)
 193:main.c        **** {
 194:main.c        ****   uint8_t data = ch;
 195:main.c        ****   #if PRINTF_USES_HAL_TX
 196:main.c        ****     HAL_StatusTypeDef status = HAL_UART_Transmit(&huart1, (uint8_t*)&data, len, 100); 
 197:main.c        ****   #else
 198:main.c        ****     while(__HAL_UART_GET_FLAG(&huart1, UART_FLAG_TXE) == RESET) { ; }
 199:main.c        ****     huart1.Instance->TDR = (uint16_t)data;
 200:main.c        ****   #endif
 201:main.c        ****   return 0;
 202:main.c        **** }
 203:main.c        **** 
ARM GAS  C:\Users\lenovo\AppData\Local\Temp\ccfgRfuq.s 			page 5


 204:main.c        **** char inkey(void)
 205:main.c        **** {
 206:main.c        ****   uint32_t flags = huart1.Instance->ISR;
 207:main.c        ****   
 208:main.c        ****   if((flags & UART_FLAG_RXNE) || (flags & UART_FLAG_ORE))
 209:main.c        ****   {
 210:main.c        ****     __HAL_UART_CLEAR_OREFLAG(&huart1);
 211:main.c        ****     return (huart1.Instance->RDR);
 212:main.c        ****   }
 213:main.c        ****   else
 214:main.c        ****     return 0;
 215:main.c        **** }
 216:main.c        **** 
 217:main.c        **** //partially based on available code examples
 218:main.c        **** static void lcd_start(void)
 219:main.c        **** {
 220:main.c        ****   /* LCD Initialization */ 
 221:main.c        ****   BSP_LCD_Init();
 222:main.c        **** 
 223:main.c        ****   /* LCD Initialization */ 
 224:main.c        ****   BSP_LCD_LayerDefaultInit(0, (unsigned int)lcd_image_bg);
 225:main.c        ****   //BSP_LCD_LayerDefaultInit(1, (unsigned int)lcd_image_bg+(LCD_X_SIZE*LCD_Y_SIZE*4));
 226:main.c        ****   BSP_LCD_LayerDefaultInit(1, (unsigned int)lcd_image_fg);
 227:main.c        **** 
 228:main.c        ****   /* Enable the LCD */ 
 229:main.c        ****   BSP_LCD_DisplayOn(); 
 230:main.c        ****   
 231:main.c        ****   /* Select the LCD Background Layer  */
 232:main.c        ****   BSP_LCD_SelectLayer(0);
 233:main.c        **** 
 234:main.c        ****   /* Clear the Background Layer */ 
 235:main.c        ****   BSP_LCD_Clear(LCD_COLOR_WHITE);
 236:main.c        ****   BSP_LCD_SetBackColor(LCD_COLOR_WHITE);
 237:main.c        ****   
 238:main.c        ****   BSP_LCD_SetColorKeying(1,LCD_COLOR_WHITE);
 239:main.c        ****   
 240:main.c        ****   /* Select the LCD Foreground Layer  */
 241:main.c        ****   BSP_LCD_SelectLayer(1);
 242:main.c        **** 
 243:main.c        ****   /* Clear the Foreground Layer */ 
 244:main.c        ****   BSP_LCD_Clear(LCD_COLOR_WHITE);
 245:main.c        ****   BSP_LCD_SetBackColor(LCD_COLOR_WHITE);
 246:main.c        ****   
 247:main.c        ****   /* Configure the transparency for foreground and background :
 248:main.c        ****      Increase the transparency */
 249:main.c        ****   BSP_LCD_SetTransparency(0, 255);
 250:main.c        ****   BSP_LCD_SetTransparency(1, 255);
 251:main.c        **** }
 252:main.c        **** 
 253:main.c        **** 
 254:main.c        **** static TS_StateTypeDef  TS_State;
 255:main.c        **** 
 256:main.c        **** /* USER CODE END 0 */
 257:main.c        **** 
 258:main.c        **** /**
 259:main.c        ****   * @brief  The application entry point.
 260:main.c        ****   *
ARM GAS  C:\Users\lenovo\AppData\Local\Temp\ccfgRfuq.s 			page 6


 261:main.c        ****   * @retval None
 262:main.c        ****   */
 263:main.c        **** int main(void)
 264:main.c        **** {
 265:main.c        ****   /* USER CODE BEGIN 1 */
 266:main.c        **** 
 267:main.c        ****   /* USER CODE END 1 */
 268:main.c        **** 
 269:main.c        ****   /* MCU Configuration----------------------------------------------------------*/
 270:main.c        **** 
 271:main.c        ****   /* Reset of all peripherals, Initializes the Flash interface and the Systick. */
 272:main.c        ****   HAL_Init();
 273:main.c        **** 
 274:main.c        ****   /* USER CODE BEGIN Init */
 275:main.c        **** 
 276:main.c        ****   /* USER CODE END Init */
 277:main.c        **** 
 278:main.c        ****   /* Configure the system clock */
 279:main.c        ****   SystemClock_Config();
 280:main.c        **** 
 281:main.c        ****   /* USER CODE BEGIN SysInit */
 282:main.c        **** 
 283:main.c        ****   /* USER CODE END SysInit */
 284:main.c        **** 
 285:main.c        ****   /* Initialize all configured peripherals */
 286:main.c        ****   MX_GPIO_Init();
 287:main.c        ****   MX_ADC3_Init();
 288:main.c        ****   MX_CRC_Init();
 289:main.c        ****   MX_DCMI_Init();
 290:main.c        ****   MX_DMA2D_Init();
 291:main.c        ****   MX_FMC_Init();
 292:main.c        ****   MX_I2C1_Init();
 293:main.c        ****   MX_I2C3_Init();
 294:main.c        ****   MX_LTDC_Init();
 295:main.c        ****   MX_QUADSPI_Init();
 296:main.c        ****   MX_RTC_Init();
 297:main.c        ****   MX_SAI2_Init();
 298:main.c        ****   MX_SDMMC1_SD_Init();
 299:main.c        ****   MX_SPDIFRX_Init();
 300:main.c        ****   MX_SPI2_Init();
 301:main.c        ****   MX_TIM1_Init();
 302:main.c        ****   MX_TIM2_Init();
 303:main.c        ****   MX_TIM3_Init();
 304:main.c        ****   MX_TIM5_Init();
 305:main.c        ****   MX_TIM8_Init();
 306:main.c        ****   MX_TIM12_Init();
 307:main.c        ****   MX_USART1_UART_Init();
 308:main.c        ****   MX_USART6_UART_Init();
 309:main.c        ****   MX_TIM7_Init();
 310:main.c        ****   /* USER CODE BEGIN 2 */
 311:main.c        ****   debug_init(&huart1);
 312:main.c        **** 
 313:main.c        ****   xprintf(ANSI_FG_GREEN "STM32F746 Discovery Project" ANSI_FG_DEFAULT "\n");
 314:main.c        **** 
 315:main.c        ****   printf("Regular printf\n");
 316:main.c        **** 
 317:main.c        **** lcd_start();
ARM GAS  C:\Users\lenovo\AppData\Local\Temp\ccfgRfuq.s 			page 7


 318:main.c        **** //draw_background();
 319:main.c        **** initialize_touchscreen();
 320:main.c        **** 
 321:main.c        ****   /* USER CODE END 2 */
 322:main.c        **** 
 323:main.c        ****   /* USER CODE BEGIN RTOS_MUTEX */
 324:main.c        ****   /* add mutexes, ... */
 325:main.c        ****   /* USER CODE END RTOS_MUTEX */
 326:main.c        **** 
 327:main.c        ****   /* USER CODE BEGIN RTOS_SEMAPHORES */
 328:main.c        ****   /* add semaphores, ... */
 329:main.c        ****   /* USER CODE END RTOS_SEMAPHORES */
 330:main.c        **** 
 331:main.c        ****   /* USER CODE BEGIN RTOS_TIMERS */
 332:main.c        ****   /* start timers, add new ones, ... */
 333:main.c        ****   /* USER CODE END RTOS_TIMERS */
 334:main.c        **** 
 335:main.c        ****   /* Create the thread(s) */
 336:main.c        ****   /* definition and creation of defaultTask */
 337:main.c        ****   osThreadDef(defaultTask, StartDefaultTask, osPriorityNormal, 0, 4096);
 338:main.c        ****   defaultTaskHandle = osThreadCreate(osThread(defaultTask), NULL);
 339:main.c        **** 
 340:main.c        ****   /* USER CODE BEGIN RTOS_THREADS */
 341:main.c        ****   /* add threads, ... */
 342:main.c        ****   /* USER CODE END RTOS_THREADS */
 343:main.c        **** 
 344:main.c        ****   /* USER CODE BEGIN RTOS_QUEUES */
 345:main.c        ****   /* add queues, ... */
 346:main.c        ****   /* USER CODE END RTOS_QUEUES */
 347:main.c        ****  
 348:main.c        **** 
 349:main.c        ****   /* Start scheduler */
 350:main.c        ****   osKernelStart();
 351:main.c        ****   
 352:main.c        ****   /* We should never get here as control is now taken by the scheduler */
 353:main.c        **** 
 354:main.c        ****   /* Infinite loop */
 355:main.c        ****   /* USER CODE BEGIN WHILE */
 356:main.c        ****   while (1)
 357:main.c        ****   {
 358:main.c        ****   /* USER CODE END WHILE */
 359:main.c        **** 		  /* Select the LCD Background Layer  */
 360:main.c        ****   
 361:main.c        **** //HAL_Delay(1);
 362:main.c        ****   /* USER CODE BEGIN 3 */
 363:main.c        **** 
 364:main.c        ****   }
 365:main.c        ****   /* USER CODE END 3 */
 366:main.c        **** 
 367:main.c        **** }
 368:main.c        **** 
 369:main.c        **** /**
 370:main.c        ****   * @brief System Clock Configuration
 371:main.c        ****   * @retval None
 372:main.c        ****   */
 373:main.c        **** void SystemClock_Config(void)
 374:main.c        **** {
ARM GAS  C:\Users\lenovo\AppData\Local\Temp\ccfgRfuq.s 			page 8


 375:main.c        **** 
 376:main.c        ****   RCC_OscInitTypeDef RCC_OscInitStruct;
 377:main.c        ****   RCC_ClkInitTypeDef RCC_ClkInitStruct;
 378:main.c        ****   RCC_PeriphCLKInitTypeDef PeriphClkInitStruct;
 379:main.c        **** 
 380:main.c        ****     /**Configure the main internal regulator output voltage 
 381:main.c        ****     */
 382:main.c        ****   __HAL_RCC_PWR_CLK_ENABLE();
 383:main.c        **** 
 384:main.c        ****   __HAL_PWR_VOLTAGESCALING_CONFIG(PWR_REGULATOR_VOLTAGE_SCALE1);
 385:main.c        **** 
 386:main.c        ****     /**Initializes the CPU, AHB and APB busses clocks 
 387:main.c        ****     */
 388:main.c        ****   RCC_OscInitStruct.OscillatorType = RCC_OSCILLATORTYPE_LSI|RCC_OSCILLATORTYPE_HSE;
 389:main.c        ****   RCC_OscInitStruct.HSEState = RCC_HSE_ON;
 390:main.c        ****   RCC_OscInitStruct.LSIState = RCC_LSI_ON;
 391:main.c        ****   RCC_OscInitStruct.PLL.PLLState = RCC_PLL_ON;
 392:main.c        ****   RCC_OscInitStruct.PLL.PLLSource = RCC_PLLSOURCE_HSE;
 393:main.c        ****   RCC_OscInitStruct.PLL.PLLM = 25;
 394:main.c        ****   RCC_OscInitStruct.PLL.PLLN = 400;
 395:main.c        ****   RCC_OscInitStruct.PLL.PLLP = RCC_PLLP_DIV2;
 396:main.c        ****   RCC_OscInitStruct.PLL.PLLQ = 8;
 397:main.c        ****   if (HAL_RCC_OscConfig(&RCC_OscInitStruct) != HAL_OK)
 398:main.c        ****   {
 399:main.c        ****     _Error_Handler(__FILE__, __LINE__);
 400:main.c        ****   }
 401:main.c        **** 
 402:main.c        ****     /**Activate the Over-Drive mode 
 403:main.c        ****     */
 404:main.c        ****   if (HAL_PWREx_EnableOverDrive() != HAL_OK)
 405:main.c        ****   {
 406:main.c        ****     _Error_Handler(__FILE__, __LINE__);
 407:main.c        ****   }
 408:main.c        **** 
 409:main.c        ****     /**Initializes the CPU, AHB and APB busses clocks 
 410:main.c        ****     */
 411:main.c        ****   RCC_ClkInitStruct.ClockType = RCC_CLOCKTYPE_HCLK|RCC_CLOCKTYPE_SYSCLK
 412:main.c        ****                               |RCC_CLOCKTYPE_PCLK1|RCC_CLOCKTYPE_PCLK2;
 413:main.c        ****   RCC_ClkInitStruct.SYSCLKSource = RCC_SYSCLKSOURCE_PLLCLK;
 414:main.c        ****   RCC_ClkInitStruct.AHBCLKDivider = RCC_SYSCLK_DIV1;
 415:main.c        ****   RCC_ClkInitStruct.APB1CLKDivider = RCC_HCLK_DIV4;
 416:main.c        ****   RCC_ClkInitStruct.APB2CLKDivider = RCC_HCLK_DIV2;
 417:main.c        **** 
 418:main.c        ****   if (HAL_RCC_ClockConfig(&RCC_ClkInitStruct, FLASH_LATENCY_6) != HAL_OK)
 419:main.c        ****   {
 420:main.c        ****     _Error_Handler(__FILE__, __LINE__);
 421:main.c        ****   }
 422:main.c        **** 
 423:main.c        ****   PeriphClkInitStruct.PeriphClockSelection = RCC_PERIPHCLK_SPDIFRX|RCC_PERIPHCLK_LTDC
 424:main.c        ****                               |RCC_PERIPHCLK_RTC|RCC_PERIPHCLK_USART1
 425:main.c        ****                               |RCC_PERIPHCLK_USART6|RCC_PERIPHCLK_SAI2
 426:main.c        ****                               |RCC_PERIPHCLK_I2C1|RCC_PERIPHCLK_I2C3
 427:main.c        ****                               |RCC_PERIPHCLK_SDMMC1|RCC_PERIPHCLK_CLK48;
 428:main.c        ****   PeriphClkInitStruct.PLLI2S.PLLI2SN = 100;
 429:main.c        ****   PeriphClkInitStruct.PLLI2S.PLLI2SP = RCC_PLLP_DIV2;
 430:main.c        ****   PeriphClkInitStruct.PLLI2S.PLLI2SR = 2;
 431:main.c        ****   PeriphClkInitStruct.PLLI2S.PLLI2SQ = 2;
ARM GAS  C:\Users\lenovo\AppData\Local\Temp\ccfgRfuq.s 			page 9


 432:main.c        ****   PeriphClkInitStruct.PLLSAI.PLLSAIN = 192;
 433:main.c        ****   PeriphClkInitStruct.PLLSAI.PLLSAIR = 4;
 434:main.c        ****   PeriphClkInitStruct.PLLSAI.PLLSAIQ = 4;
 435:main.c        ****   PeriphClkInitStruct.PLLSAI.PLLSAIP = RCC_PLLSAIP_DIV4;
 436:main.c        ****   PeriphClkInitStruct.PLLI2SDivQ = 1;
 437:main.c        ****   PeriphClkInitStruct.PLLSAIDivQ = 1;
 438:main.c        ****   PeriphClkInitStruct.PLLSAIDivR = RCC_PLLSAIDIVR_8;
 439:main.c        ****   PeriphClkInitStruct.RTCClockSelection = RCC_RTCCLKSOURCE_LSI;
 440:main.c        ****   PeriphClkInitStruct.Sai2ClockSelection = RCC_SAI2CLKSOURCE_PLLSAI;
 441:main.c        ****   PeriphClkInitStruct.Usart1ClockSelection = RCC_USART1CLKSOURCE_PCLK2;
 442:main.c        ****   PeriphClkInitStruct.Usart6ClockSelection = RCC_USART6CLKSOURCE_PCLK2;
 443:main.c        ****   PeriphClkInitStruct.I2c1ClockSelection = RCC_I2C1CLKSOURCE_PCLK1;
 444:main.c        ****   PeriphClkInitStruct.I2c3ClockSelection = RCC_I2C3CLKSOURCE_PCLK1;
 445:main.c        ****   PeriphClkInitStruct.Clk48ClockSelection = RCC_CLK48SOURCE_PLLSAIP;
 446:main.c        ****   PeriphClkInitStruct.Sdmmc1ClockSelection = RCC_SDMMC1CLKSOURCE_CLK48;
 447:main.c        ****   if (HAL_RCCEx_PeriphCLKConfig(&PeriphClkInitStruct) != HAL_OK)
 448:main.c        ****   {
 449:main.c        ****     _Error_Handler(__FILE__, __LINE__);
 450:main.c        ****   }
 451:main.c        **** 
 452:main.c        ****     /**Configure the Systick interrupt time 
 453:main.c        ****     */
 454:main.c        ****   HAL_SYSTICK_Config(HAL_RCC_GetHCLKFreq()/1000);
 455:main.c        **** 
 456:main.c        ****     /**Configure the Systick 
 457:main.c        ****     */
 458:main.c        ****   HAL_SYSTICK_CLKSourceConfig(SYSTICK_CLKSOURCE_HCLK);
 459:main.c        **** 
 460:main.c        ****   /* SysTick_IRQn interrupt configuration */
 461:main.c        ****   HAL_NVIC_SetPriority(SysTick_IRQn, 15, 0);
 462:main.c        **** }
 463:main.c        **** 
 464:main.c        **** /* ADC3 init function */
 465:main.c        **** static void MX_ADC3_Init(void)
 466:main.c        **** {
 467:main.c        **** 
 468:main.c        ****   ADC_ChannelConfTypeDef sConfig;
 469:main.c        **** 
 470:main.c        ****     /**Configure the global features of the ADC (Clock, Resolution, Data Alignment and number of co
 471:main.c        ****     */
 472:main.c        ****   hadc3.Instance = ADC3;
 473:main.c        ****   hadc3.Init.ClockPrescaler = ADC_CLOCK_SYNC_PCLK_DIV4;
 474:main.c        ****   hadc3.Init.Resolution = ADC_RESOLUTION_12B;
 475:main.c        ****   hadc3.Init.ScanConvMode = ADC_SCAN_DISABLE;
 476:main.c        ****   hadc3.Init.ContinuousConvMode = DISABLE;
 477:main.c        ****   hadc3.Init.DiscontinuousConvMode = DISABLE;
 478:main.c        ****   hadc3.Init.ExternalTrigConvEdge = ADC_EXTERNALTRIGCONVEDGE_NONE;
 479:main.c        ****   hadc3.Init.ExternalTrigConv = ADC_SOFTWARE_START;
 480:main.c        ****   hadc3.Init.DataAlign = ADC_DATAALIGN_RIGHT;
 481:main.c        ****   hadc3.Init.NbrOfConversion = 1;
 482:main.c        ****   hadc3.Init.DMAContinuousRequests = DISABLE;
 483:main.c        ****   hadc3.Init.EOCSelection = ADC_EOC_SINGLE_CONV;
 484:main.c        ****   if (HAL_ADC_Init(&hadc3) != HAL_OK)
 485:main.c        ****   {
 486:main.c        ****     _Error_Handler(__FILE__, __LINE__);
 487:main.c        ****   }
 488:main.c        **** 
ARM GAS  C:\Users\lenovo\AppData\Local\Temp\ccfgRfuq.s 			page 10


 489:main.c        ****     /**Configure for the selected ADC regular channel its corresponding rank in the sequencer and i
 490:main.c        ****     */
 491:main.c        ****   sConfig.Channel = ADC_CHANNEL_4;
 492:main.c        ****   sConfig.Rank = ADC_REGULAR_RANK_1;
 493:main.c        ****   sConfig.SamplingTime = ADC_SAMPLETIME_3CYCLES;
 494:main.c        ****   if (HAL_ADC_ConfigChannel(&hadc3, &sConfig) != HAL_OK)
 495:main.c        ****   {
 496:main.c        ****     _Error_Handler(__FILE__, __LINE__);
 497:main.c        ****   }
 498:main.c        **** 
 499:main.c        **** }
 500:main.c        **** 
 501:main.c        **** /* CRC init function */
 502:main.c        **** static void MX_CRC_Init(void)
 503:main.c        **** {
 504:main.c        **** 
 505:main.c        ****   hcrc.Instance = CRC;
 506:main.c        ****   hcrc.Init.DefaultPolynomialUse = DEFAULT_POLYNOMIAL_ENABLE;
 507:main.c        ****   hcrc.Init.DefaultInitValueUse = DEFAULT_INIT_VALUE_ENABLE;
 508:main.c        ****   hcrc.Init.InputDataInversionMode = CRC_INPUTDATA_INVERSION_NONE;
 509:main.c        ****   hcrc.Init.OutputDataInversionMode = CRC_OUTPUTDATA_INVERSION_DISABLE;
 510:main.c        ****   hcrc.InputDataFormat = CRC_INPUTDATA_FORMAT_BYTES;
 511:main.c        ****   if (HAL_CRC_Init(&hcrc) != HAL_OK)
 512:main.c        ****   {
 513:main.c        ****     _Error_Handler(__FILE__, __LINE__);
 514:main.c        ****   }
 515:main.c        **** 
 516:main.c        **** }
 517:main.c        **** 
 518:main.c        **** /* DCMI init function */
 519:main.c        **** static void MX_DCMI_Init(void)
 520:main.c        **** {
 521:main.c        **** 
 522:main.c        ****   hdcmi.Instance = DCMI;
 523:main.c        ****   hdcmi.Init.SynchroMode = DCMI_SYNCHRO_HARDWARE;
 524:main.c        ****   hdcmi.Init.PCKPolarity = DCMI_PCKPOLARITY_FALLING;
 525:main.c        ****   hdcmi.Init.VSPolarity = DCMI_VSPOLARITY_LOW;
 526:main.c        ****   hdcmi.Init.HSPolarity = DCMI_HSPOLARITY_LOW;
 527:main.c        ****   hdcmi.Init.CaptureRate = DCMI_CR_ALL_FRAME;
 528:main.c        ****   hdcmi.Init.ExtendedDataMode = DCMI_EXTEND_DATA_8B;
 529:main.c        ****   hdcmi.Init.JPEGMode = DCMI_JPEG_DISABLE;
 530:main.c        ****   hdcmi.Init.ByteSelectMode = DCMI_BSM_ALL;
 531:main.c        ****   hdcmi.Init.ByteSelectStart = DCMI_OEBS_ODD;
 532:main.c        ****   hdcmi.Init.LineSelectMode = DCMI_LSM_ALL;
 533:main.c        ****   hdcmi.Init.LineSelectStart = DCMI_OELS_ODD;
 534:main.c        ****   if (HAL_DCMI_Init(&hdcmi) != HAL_OK)
 535:main.c        ****   {
 536:main.c        ****     _Error_Handler(__FILE__, __LINE__);
 537:main.c        ****   }
 538:main.c        **** 
 539:main.c        **** }
 540:main.c        **** 
 541:main.c        **** /* DMA2D init function */
 542:main.c        **** static void MX_DMA2D_Init(void)
 543:main.c        **** {
 544:main.c        **** 
 545:main.c        ****   hdma2d.Instance = DMA2D;
ARM GAS  C:\Users\lenovo\AppData\Local\Temp\ccfgRfuq.s 			page 11


 546:main.c        ****   hdma2d.Init.Mode = DMA2D_M2M;
 547:main.c        ****   hdma2d.Init.ColorMode = DMA2D_OUTPUT_ARGB8888;
 548:main.c        ****   hdma2d.Init.OutputOffset = 0;
 549:main.c        ****   hdma2d.LayerCfg[1].InputOffset = 0;
 550:main.c        ****   hdma2d.LayerCfg[1].InputColorMode = DMA2D_INPUT_ARGB8888;
 551:main.c        ****   hdma2d.LayerCfg[1].AlphaMode = DMA2D_NO_MODIF_ALPHA;
 552:main.c        ****   hdma2d.LayerCfg[1].InputAlpha = 0;
 553:main.c        ****   if (HAL_DMA2D_Init(&hdma2d) != HAL_OK)
 554:main.c        ****   {
 555:main.c        ****     _Error_Handler(__FILE__, __LINE__);
 556:main.c        ****   }
 557:main.c        **** 
 558:main.c        ****   if (HAL_DMA2D_ConfigLayer(&hdma2d, 1) != HAL_OK)
 559:main.c        ****   {
 560:main.c        ****     _Error_Handler(__FILE__, __LINE__);
 561:main.c        ****   }
 562:main.c        **** 
 563:main.c        **** }
 564:main.c        **** 
 565:main.c        **** /* I2C1 init function */
 566:main.c        **** static void MX_I2C1_Init(void)
 567:main.c        **** {
 568:main.c        **** 
 569:main.c        ****   hi2c1.Instance = I2C1;
 570:main.c        ****   hi2c1.Init.Timing = 0x00C0EAFF;
 571:main.c        ****   hi2c1.Init.OwnAddress1 = 0;
 572:main.c        ****   hi2c1.Init.AddressingMode = I2C_ADDRESSINGMODE_7BIT;
 573:main.c        ****   hi2c1.Init.DualAddressMode = I2C_DUALADDRESS_DISABLE;
 574:main.c        ****   hi2c1.Init.OwnAddress2 = 0;
 575:main.c        ****   hi2c1.Init.OwnAddress2Masks = I2C_OA2_NOMASK;
 576:main.c        ****   hi2c1.Init.GeneralCallMode = I2C_GENERALCALL_DISABLE;
 577:main.c        ****   hi2c1.Init.NoStretchMode = I2C_NOSTRETCH_DISABLE;
 578:main.c        ****   if (HAL_I2C_Init(&hi2c1) != HAL_OK)
 579:main.c        ****   {
 580:main.c        ****     _Error_Handler(__FILE__, __LINE__);
 581:main.c        ****   }
 582:main.c        **** 
 583:main.c        ****     /**Configure Analogue filter 
 584:main.c        ****     */
 585:main.c        ****   if (HAL_I2CEx_ConfigAnalogFilter(&hi2c1, I2C_ANALOGFILTER_ENABLE) != HAL_OK)
 586:main.c        ****   {
 587:main.c        ****     _Error_Handler(__FILE__, __LINE__);
 588:main.c        ****   }
 589:main.c        **** 
 590:main.c        ****     /**Configure Digital filter 
 591:main.c        ****     */
 592:main.c        ****   if (HAL_I2CEx_ConfigDigitalFilter(&hi2c1, 0) != HAL_OK)
 593:main.c        ****   {
 594:main.c        ****     _Error_Handler(__FILE__, __LINE__);
 595:main.c        ****   }
 596:main.c        **** 
 597:main.c        **** }
 598:main.c        **** 
 599:main.c        **** /* I2C3 init function */
 600:main.c        **** static void MX_I2C3_Init(void)
 601:main.c        **** {
 602:main.c        **** 
ARM GAS  C:\Users\lenovo\AppData\Local\Temp\ccfgRfuq.s 			page 12


 603:main.c        ****   hi2c3.Instance = I2C3;
 604:main.c        ****   hi2c3.Init.Timing = 0x00C0EAFF;
 605:main.c        ****   hi2c3.Init.OwnAddress1 = 0;
 606:main.c        ****   hi2c3.Init.AddressingMode = I2C_ADDRESSINGMODE_7BIT;
 607:main.c        ****   hi2c3.Init.DualAddressMode = I2C_DUALADDRESS_DISABLE;
 608:main.c        ****   hi2c3.Init.OwnAddress2 = 0;
 609:main.c        ****   hi2c3.Init.OwnAddress2Masks = I2C_OA2_NOMASK;
 610:main.c        ****   hi2c3.Init.GeneralCallMode = I2C_GENERALCALL_DISABLE;
 611:main.c        ****   hi2c3.Init.NoStretchMode = I2C_NOSTRETCH_DISABLE;
 612:main.c        ****   if (HAL_I2C_Init(&hi2c3) != HAL_OK)
 613:main.c        ****   {
 614:main.c        ****     _Error_Handler(__FILE__, __LINE__);
 615:main.c        ****   }
 616:main.c        **** 
 617:main.c        ****     /**Configure Analogue filter 
 618:main.c        ****     */
 619:main.c        ****   if (HAL_I2CEx_ConfigAnalogFilter(&hi2c3, I2C_ANALOGFILTER_ENABLE) != HAL_OK)
 620:main.c        ****   {
 621:main.c        ****     _Error_Handler(__FILE__, __LINE__);
 622:main.c        ****   }
 623:main.c        **** 
 624:main.c        ****     /**Configure Digital filter 
 625:main.c        ****     */
 626:main.c        ****   if (HAL_I2CEx_ConfigDigitalFilter(&hi2c3, 0) != HAL_OK)
 627:main.c        ****   {
 628:main.c        ****     _Error_Handler(__FILE__, __LINE__);
 629:main.c        ****   }
 630:main.c        **** 
 631:main.c        **** }
 632:main.c        **** 
 633:main.c        **** /* LTDC init function */
 634:main.c        **** static void MX_LTDC_Init(void)
 635:main.c        **** {
 636:main.c        **** 
 637:main.c        ****   LTDC_LayerCfgTypeDef pLayerCfg;
 638:main.c        **** 
 639:main.c        ****   hltdc.Instance = LTDC;
 640:main.c        ****   hltdc.Init.HSPolarity = LTDC_HSPOLARITY_AL;
 641:main.c        ****   hltdc.Init.VSPolarity = LTDC_VSPOLARITY_AL;
 642:main.c        ****   hltdc.Init.DEPolarity = LTDC_DEPOLARITY_AL;
 643:main.c        ****   hltdc.Init.PCPolarity = LTDC_PCPOLARITY_IPC;
 644:main.c        ****   hltdc.Init.HorizontalSync = 40;
 645:main.c        ****   hltdc.Init.VerticalSync = 9;
 646:main.c        ****   hltdc.Init.AccumulatedHBP = 53;
 647:main.c        ****   hltdc.Init.AccumulatedVBP = 11;
 648:main.c        ****   hltdc.Init.AccumulatedActiveW = 533;
 649:main.c        ****   hltdc.Init.AccumulatedActiveH = 283;
 650:main.c        ****   hltdc.Init.TotalWidth = 565;
 651:main.c        ****   hltdc.Init.TotalHeigh = 285;
 652:main.c        ****   hltdc.Init.Backcolor.Blue = 0;
 653:main.c        ****   hltdc.Init.Backcolor.Green = 0;
 654:main.c        ****   hltdc.Init.Backcolor.Red = 0;
 655:main.c        ****   if (HAL_LTDC_Init(&hltdc) != HAL_OK)
 656:main.c        ****   {
 657:main.c        ****     _Error_Handler(__FILE__, __LINE__);
 658:main.c        ****   }
 659:main.c        **** 
ARM GAS  C:\Users\lenovo\AppData\Local\Temp\ccfgRfuq.s 			page 13


 660:main.c        ****   pLayerCfg.WindowX0 = 0;
 661:main.c        ****   pLayerCfg.WindowX1 = 480;
 662:main.c        ****   pLayerCfg.WindowY0 = 0;
 663:main.c        ****   pLayerCfg.WindowY1 = 272;
 664:main.c        ****   pLayerCfg.PixelFormat = LTDC_PIXEL_FORMAT_ARGB8888;
 665:main.c        ****   pLayerCfg.Alpha = 255;
 666:main.c        ****   pLayerCfg.Alpha0 = 0;
 667:main.c        ****   pLayerCfg.BlendingFactor1 = LTDC_BLENDING_FACTOR1_PAxCA;
 668:main.c        ****   pLayerCfg.BlendingFactor2 = LTDC_BLENDING_FACTOR2_PAxCA;
 669:main.c        ****   pLayerCfg.FBStartAdress = 0xC0000000;
 670:main.c        ****   pLayerCfg.ImageWidth = 480;
 671:main.c        ****   pLayerCfg.ImageHeight = 272;
 672:main.c        ****   pLayerCfg.Backcolor.Blue = 0;
 673:main.c        ****   pLayerCfg.Backcolor.Green = 0;
 674:main.c        ****   pLayerCfg.Backcolor.Red = 0;
 675:main.c        ****   if (HAL_LTDC_ConfigLayer(&hltdc, &pLayerCfg, 0) != HAL_OK)
 676:main.c        ****   {
 677:main.c        ****     _Error_Handler(__FILE__, __LINE__);
 678:main.c        ****   }
 679:main.c        **** 
 680:main.c        **** }
 681:main.c        **** 
 682:main.c        **** /* QUADSPI init function */
 683:main.c        **** static void MX_QUADSPI_Init(void)
 684:main.c        **** {
 685:main.c        **** 
 686:main.c        ****   /* QUADSPI parameter configuration*/
 687:main.c        ****   hqspi.Instance = QUADSPI;
 688:main.c        ****   hqspi.Init.ClockPrescaler = 255;
 689:main.c        ****   hqspi.Init.FifoThreshold = 1;
 690:main.c        ****   hqspi.Init.SampleShifting = QSPI_SAMPLE_SHIFTING_NONE;
 691:main.c        ****   hqspi.Init.FlashSize = 1;
 692:main.c        ****   hqspi.Init.ChipSelectHighTime = QSPI_CS_HIGH_TIME_1_CYCLE;
 693:main.c        ****   hqspi.Init.ClockMode = QSPI_CLOCK_MODE_0;
 694:main.c        ****   hqspi.Init.FlashID = QSPI_FLASH_ID_1;
 695:main.c        ****   hqspi.Init.DualFlash = QSPI_DUALFLASH_DISABLE;
 696:main.c        ****   if (HAL_QSPI_Init(&hqspi) != HAL_OK)
 697:main.c        ****   {
 698:main.c        ****     _Error_Handler(__FILE__, __LINE__);
 699:main.c        ****   }
 700:main.c        **** 
 701:main.c        **** }
 702:main.c        **** 
 703:main.c        **** /* RTC init function */
 704:main.c        **** static void MX_RTC_Init(void)
 705:main.c        **** {
 706:main.c        **** 
 707:main.c        ****   /* USER CODE BEGIN RTC_Init 0 */
 708:main.c        **** 
 709:main.c        ****   /* USER CODE END RTC_Init 0 */
 710:main.c        **** 
 711:main.c        ****   RTC_TimeTypeDef sTime;
 712:main.c        ****   RTC_DateTypeDef sDate;
 713:main.c        ****   RTC_AlarmTypeDef sAlarm;
 714:main.c        **** 
 715:main.c        ****   /* USER CODE BEGIN RTC_Init 1 */
 716:main.c        **** 
ARM GAS  C:\Users\lenovo\AppData\Local\Temp\ccfgRfuq.s 			page 14


 717:main.c        ****   /* USER CODE END RTC_Init 1 */
 718:main.c        **** 
 719:main.c        ****     /**Initialize RTC Only 
 720:main.c        ****     */
 721:main.c        ****   hrtc.Instance = RTC;
 722:main.c        ****   hrtc.Init.HourFormat = RTC_HOURFORMAT_24;
 723:main.c        ****   hrtc.Init.AsynchPrediv = 127;
 724:main.c        ****   hrtc.Init.SynchPrediv = 255;
 725:main.c        ****   hrtc.Init.OutPut = RTC_OUTPUT_DISABLE;
 726:main.c        ****   hrtc.Init.OutPutPolarity = RTC_OUTPUT_POLARITY_HIGH;
 727:main.c        ****   hrtc.Init.OutPutType = RTC_OUTPUT_TYPE_OPENDRAIN;
 728:main.c        ****   if (HAL_RTC_Init(&hrtc) != HAL_OK)
 729:main.c        ****   {
 730:main.c        ****     _Error_Handler(__FILE__, __LINE__);
 731:main.c        ****   }
 732:main.c        **** 
 733:main.c        ****     /**Initialize RTC and set the Time and Date 
 734:main.c        ****     */
 735:main.c        ****   sTime.Hours = 0x0;
 736:main.c        ****   sTime.Minutes = 0x0;
 737:main.c        ****   sTime.Seconds = 0x0;
 738:main.c        ****   sTime.DayLightSaving = RTC_DAYLIGHTSAVING_NONE;
 739:main.c        ****   sTime.StoreOperation = RTC_STOREOPERATION_RESET;
 740:main.c        ****   if (HAL_RTC_SetTime(&hrtc, &sTime, RTC_FORMAT_BCD) != HAL_OK)
 741:main.c        ****   {
 742:main.c        ****     _Error_Handler(__FILE__, __LINE__);
 743:main.c        ****   }
 744:main.c        **** 
 745:main.c        ****   sDate.WeekDay = RTC_WEEKDAY_MONDAY;
 746:main.c        ****   sDate.Month = RTC_MONTH_JANUARY;
 747:main.c        ****   sDate.Date = 0x1;
 748:main.c        ****   sDate.Year = 0x0;
 749:main.c        **** 
 750:main.c        ****   if (HAL_RTC_SetDate(&hrtc, &sDate, RTC_FORMAT_BCD) != HAL_OK)
 751:main.c        ****   {
 752:main.c        ****     _Error_Handler(__FILE__, __LINE__);
 753:main.c        ****   }
 754:main.c        **** 
 755:main.c        ****     /**Enable the Alarm A 
 756:main.c        ****     */
 757:main.c        ****   sAlarm.AlarmTime.Hours = 0x0;
 758:main.c        ****   sAlarm.AlarmTime.Minutes = 0x0;
 759:main.c        ****   sAlarm.AlarmTime.Seconds = 0x0;
 760:main.c        ****   sAlarm.AlarmTime.SubSeconds = 0x0;
 761:main.c        ****   sAlarm.AlarmTime.DayLightSaving = RTC_DAYLIGHTSAVING_NONE;
 762:main.c        ****   sAlarm.AlarmTime.StoreOperation = RTC_STOREOPERATION_RESET;
 763:main.c        ****   sAlarm.AlarmMask = RTC_ALARMMASK_NONE;
 764:main.c        ****   sAlarm.AlarmSubSecondMask = RTC_ALARMSUBSECONDMASK_ALL;
 765:main.c        ****   sAlarm.AlarmDateWeekDaySel = RTC_ALARMDATEWEEKDAYSEL_DATE;
 766:main.c        ****   sAlarm.AlarmDateWeekDay = 0x1;
 767:main.c        ****   sAlarm.Alarm = RTC_ALARM_A;
 768:main.c        ****   if (HAL_RTC_SetAlarm(&hrtc, &sAlarm, RTC_FORMAT_BCD) != HAL_OK)
 769:main.c        ****   {
 770:main.c        ****     _Error_Handler(__FILE__, __LINE__);
 771:main.c        ****   }
 772:main.c        **** 
 773:main.c        ****     /**Enable the Alarm B 
ARM GAS  C:\Users\lenovo\AppData\Local\Temp\ccfgRfuq.s 			page 15


 774:main.c        ****     */
 775:main.c        ****   sAlarm.AlarmDateWeekDay = 0x1;
 776:main.c        ****   sAlarm.Alarm = RTC_ALARM_B;
 777:main.c        ****   if (HAL_RTC_SetAlarm(&hrtc, &sAlarm, RTC_FORMAT_BCD) != HAL_OK)
 778:main.c        ****   {
 779:main.c        ****     _Error_Handler(__FILE__, __LINE__);
 780:main.c        ****   }
 781:main.c        **** 
 782:main.c        ****     /**Enable the TimeStamp 
 783:main.c        ****     */
 784:main.c        ****   if (HAL_RTCEx_SetTimeStamp(&hrtc, RTC_TIMESTAMPEDGE_RISING, RTC_TIMESTAMPPIN_POS1) != HAL_OK)
 785:main.c        ****   {
 786:main.c        ****     _Error_Handler(__FILE__, __LINE__);
 787:main.c        ****   }
 788:main.c        **** 
 789:main.c        **** }
 790:main.c        **** 
 791:main.c        **** /* SAI2 init function */
 792:main.c        **** static void MX_SAI2_Init(void)
 793:main.c        **** {
 794:main.c        **** 
 795:main.c        ****   hsai_BlockA2.Instance = SAI2_Block_A;
 796:main.c        ****   hsai_BlockA2.Init.Protocol = SAI_FREE_PROTOCOL;
 797:main.c        ****   hsai_BlockA2.Init.AudioMode = SAI_MODEMASTER_TX;
 798:main.c        ****   hsai_BlockA2.Init.DataSize = SAI_DATASIZE_24;
 799:main.c        ****   hsai_BlockA2.Init.FirstBit = SAI_FIRSTBIT_MSB;
 800:main.c        ****   hsai_BlockA2.Init.ClockStrobing = SAI_CLOCKSTROBING_FALLINGEDGE;
 801:main.c        ****   hsai_BlockA2.Init.Synchro = SAI_ASYNCHRONOUS;
 802:main.c        ****   hsai_BlockA2.Init.OutputDrive = SAI_OUTPUTDRIVE_DISABLE;
 803:main.c        ****   hsai_BlockA2.Init.NoDivider = SAI_MASTERDIVIDER_ENABLE;
 804:main.c        ****   hsai_BlockA2.Init.FIFOThreshold = SAI_FIFOTHRESHOLD_EMPTY;
 805:main.c        ****   hsai_BlockA2.Init.AudioFrequency = SAI_AUDIO_FREQUENCY_192K;
 806:main.c        ****   hsai_BlockA2.Init.SynchroExt = SAI_SYNCEXT_DISABLE;
 807:main.c        ****   hsai_BlockA2.Init.MonoStereoMode = SAI_STEREOMODE;
 808:main.c        ****   hsai_BlockA2.Init.CompandingMode = SAI_NOCOMPANDING;
 809:main.c        ****   hsai_BlockA2.Init.TriState = SAI_OUTPUT_NOTRELEASED;
 810:main.c        ****   hsai_BlockA2.FrameInit.FrameLength = 8;
 811:main.c        ****   hsai_BlockA2.FrameInit.ActiveFrameLength = 1;
 812:main.c        ****   hsai_BlockA2.FrameInit.FSDefinition = SAI_FS_STARTFRAME;
 813:main.c        ****   hsai_BlockA2.FrameInit.FSPolarity = SAI_FS_ACTIVE_LOW;
 814:main.c        ****   hsai_BlockA2.FrameInit.FSOffset = SAI_FS_FIRSTBIT;
 815:main.c        ****   hsai_BlockA2.SlotInit.FirstBitOffset = 0;
 816:main.c        ****   hsai_BlockA2.SlotInit.SlotSize = SAI_SLOTSIZE_DATASIZE;
 817:main.c        ****   hsai_BlockA2.SlotInit.SlotNumber = 1;
 818:main.c        ****   hsai_BlockA2.SlotInit.SlotActive = 0x00000000;
 819:main.c        ****   if (HAL_SAI_Init(&hsai_BlockA2) != HAL_OK)
 820:main.c        ****   {
 821:main.c        ****     _Error_Handler(__FILE__, __LINE__);
 822:main.c        ****   }
 823:main.c        **** 
 824:main.c        ****   hsai_BlockB2.Instance = SAI2_Block_B;
 825:main.c        ****   hsai_BlockB2.Init.Protocol = SAI_FREE_PROTOCOL;
 826:main.c        ****   hsai_BlockB2.Init.AudioMode = SAI_MODESLAVE_RX;
 827:main.c        ****   hsai_BlockB2.Init.DataSize = SAI_DATASIZE_24;
 828:main.c        ****   hsai_BlockB2.Init.FirstBit = SAI_FIRSTBIT_MSB;
 829:main.c        ****   hsai_BlockB2.Init.ClockStrobing = SAI_CLOCKSTROBING_FALLINGEDGE;
 830:main.c        ****   hsai_BlockB2.Init.Synchro = SAI_SYNCHRONOUS;
ARM GAS  C:\Users\lenovo\AppData\Local\Temp\ccfgRfuq.s 			page 16


 831:main.c        ****   hsai_BlockB2.Init.OutputDrive = SAI_OUTPUTDRIVE_DISABLE;
 832:main.c        ****   hsai_BlockB2.Init.FIFOThreshold = SAI_FIFOTHRESHOLD_EMPTY;
 833:main.c        ****   hsai_BlockB2.Init.SynchroExt = SAI_SYNCEXT_DISABLE;
 834:main.c        ****   hsai_BlockB2.Init.MonoStereoMode = SAI_STEREOMODE;
 835:main.c        ****   hsai_BlockB2.Init.CompandingMode = SAI_NOCOMPANDING;
 836:main.c        ****   hsai_BlockB2.Init.TriState = SAI_OUTPUT_NOTRELEASED;
 837:main.c        ****   hsai_BlockB2.FrameInit.FrameLength = 8;
 838:main.c        ****   hsai_BlockB2.FrameInit.ActiveFrameLength = 1;
 839:main.c        ****   hsai_BlockB2.FrameInit.FSDefinition = SAI_FS_STARTFRAME;
 840:main.c        ****   hsai_BlockB2.FrameInit.FSPolarity = SAI_FS_ACTIVE_LOW;
 841:main.c        ****   hsai_BlockB2.FrameInit.FSOffset = SAI_FS_FIRSTBIT;
 842:main.c        ****   hsai_BlockB2.SlotInit.FirstBitOffset = 0;
 843:main.c        ****   hsai_BlockB2.SlotInit.SlotSize = SAI_SLOTSIZE_DATASIZE;
 844:main.c        ****   hsai_BlockB2.SlotInit.SlotNumber = 1;
 845:main.c        ****   hsai_BlockB2.SlotInit.SlotActive = 0x00000000;
 846:main.c        ****   if (HAL_SAI_Init(&hsai_BlockB2) != HAL_OK)
 847:main.c        ****   {
 848:main.c        ****     _Error_Handler(__FILE__, __LINE__);
 849:main.c        ****   }
 850:main.c        **** 
 851:main.c        **** }
 852:main.c        **** 
 853:main.c        **** /* SDMMC1 init function */
 854:main.c        **** static void MX_SDMMC1_SD_Init(void)
 855:main.c        **** {
  27              		.loc 1 855 0
  28              		.cfi_startproc
  29              		@ args = 0, pretend = 0, frame = 0
  30              		@ frame_needed = 0, uses_anonymous_args = 0
  31              		@ link register save eliminated.
 856:main.c        **** 
 857:main.c        ****   hsd1.Instance = SDMMC1;
  32              		.loc 1 857 0
  33 0000 054B     		ldr	r3, .L2
  34 0002 064A     		ldr	r2, .L2+4
  35 0004 1A60     		str	r2, [r3]
 858:main.c        ****   hsd1.Init.ClockEdge = SDMMC_CLOCK_EDGE_RISING;
  36              		.loc 1 858 0
  37 0006 0022     		movs	r2, #0
  38 0008 5A60     		str	r2, [r3, #4]
 859:main.c        ****   hsd1.Init.ClockBypass = SDMMC_CLOCK_BYPASS_DISABLE;
  39              		.loc 1 859 0
  40 000a 9A60     		str	r2, [r3, #8]
 860:main.c        ****   hsd1.Init.ClockPowerSave = SDMMC_CLOCK_POWER_SAVE_DISABLE;
  41              		.loc 1 860 0
  42 000c DA60     		str	r2, [r3, #12]
 861:main.c        ****   hsd1.Init.BusWide = SDMMC_BUS_WIDE_1B;
  43              		.loc 1 861 0
  44 000e 1A61     		str	r2, [r3, #16]
 862:main.c        ****   hsd1.Init.HardwareFlowControl = SDMMC_HARDWARE_FLOW_CONTROL_DISABLE;
  45              		.loc 1 862 0
  46 0010 5A61     		str	r2, [r3, #20]
 863:main.c        ****   hsd1.Init.ClockDiv = 0;
  47              		.loc 1 863 0
  48 0012 9A61     		str	r2, [r3, #24]
  49 0014 7047     		bx	lr
  50              	.L3:
ARM GAS  C:\Users\lenovo\AppData\Local\Temp\ccfgRfuq.s 			page 17


  51 0016 00BF     		.align	2
  52              	.L2:
  53 0018 00000000 		.word	hsd1
  54 001c 002C0140 		.word	1073818624
  55              		.cfi_endproc
  56              	.LFE197:
  58              		.section	.text.MX_GPIO_Init,"ax",%progbits
  59              		.align	1
  60              		.syntax unified
  61              		.thumb
  62              		.thumb_func
  63              		.fpu fpv5-sp-d16
  65              	MX_GPIO_Init:
  66              	.LFB210:
 864:main.c        **** 
 865:main.c        **** }
 866:main.c        **** 
 867:main.c        **** /* SPDIFRX init function */
 868:main.c        **** static void MX_SPDIFRX_Init(void)
 869:main.c        **** {
 870:main.c        **** 
 871:main.c        ****   hspdif.Instance = SPDIFRX;
 872:main.c        ****   hspdif.Init.InputSelection = SPDIFRX_INPUT_IN0;
 873:main.c        ****   hspdif.Init.Retries = SPDIFRX_MAXRETRIES_NONE;
 874:main.c        ****   hspdif.Init.WaitForActivity = SPDIFRX_WAITFORACTIVITY_OFF;
 875:main.c        ****   hspdif.Init.ChannelSelection = SPDIFRX_CHANNEL_A;
 876:main.c        ****   hspdif.Init.DataFormat = SPDIFRX_DATAFORMAT_LSB;
 877:main.c        ****   hspdif.Init.StereoMode = SPDIFRX_STEREOMODE_DISABLE;
 878:main.c        ****   hspdif.Init.PreambleTypeMask = SPDIFRX_PREAMBLETYPEMASK_OFF;
 879:main.c        ****   hspdif.Init.ChannelStatusMask = SPDIFRX_CHANNELSTATUS_OFF;
 880:main.c        ****   hspdif.Init.ValidityBitMask = SPDIFRX_VALIDITYMASK_OFF;
 881:main.c        ****   hspdif.Init.ParityErrorMask = SPDIFRX_PARITYERRORMASK_OFF;
 882:main.c        ****   if (HAL_SPDIFRX_Init(&hspdif) != HAL_OK)
 883:main.c        ****   {
 884:main.c        ****     _Error_Handler(__FILE__, __LINE__);
 885:main.c        ****   }
 886:main.c        **** 
 887:main.c        **** }
 888:main.c        **** 
 889:main.c        **** /* SPI2 init function */
 890:main.c        **** static void MX_SPI2_Init(void)
 891:main.c        **** {
 892:main.c        **** 
 893:main.c        ****   /* SPI2 parameter configuration*/
 894:main.c        ****   hspi2.Instance = SPI2;
 895:main.c        ****   hspi2.Init.Mode = SPI_MODE_MASTER;
 896:main.c        ****   hspi2.Init.Direction = SPI_DIRECTION_2LINES;
 897:main.c        ****   hspi2.Init.DataSize = SPI_DATASIZE_4BIT;
 898:main.c        ****   hspi2.Init.CLKPolarity = SPI_POLARITY_LOW;
 899:main.c        ****   hspi2.Init.CLKPhase = SPI_PHASE_1EDGE;
 900:main.c        ****   hspi2.Init.NSS = SPI_NSS_SOFT;
 901:main.c        ****   hspi2.Init.BaudRatePrescaler = SPI_BAUDRATEPRESCALER_2;
 902:main.c        ****   hspi2.Init.FirstBit = SPI_FIRSTBIT_MSB;
 903:main.c        ****   hspi2.Init.TIMode = SPI_TIMODE_DISABLE;
 904:main.c        ****   hspi2.Init.CRCCalculation = SPI_CRCCALCULATION_DISABLE;
 905:main.c        ****   hspi2.Init.CRCPolynomial = 7;
 906:main.c        ****   hspi2.Init.CRCLength = SPI_CRC_LENGTH_DATASIZE;
ARM GAS  C:\Users\lenovo\AppData\Local\Temp\ccfgRfuq.s 			page 18


 907:main.c        ****   hspi2.Init.NSSPMode = SPI_NSS_PULSE_ENABLE;
 908:main.c        ****   if (HAL_SPI_Init(&hspi2) != HAL_OK)
 909:main.c        ****   {
 910:main.c        ****     _Error_Handler(__FILE__, __LINE__);
 911:main.c        ****   }
 912:main.c        **** 
 913:main.c        **** }
 914:main.c        **** 
 915:main.c        **** /* TIM1 init function */
 916:main.c        **** static void MX_TIM1_Init(void)
 917:main.c        **** {
 918:main.c        **** 
 919:main.c        ****   TIM_ClockConfigTypeDef sClockSourceConfig;
 920:main.c        ****   TIM_MasterConfigTypeDef sMasterConfig;
 921:main.c        ****   TIM_OC_InitTypeDef sConfigOC;
 922:main.c        ****   TIM_BreakDeadTimeConfigTypeDef sBreakDeadTimeConfig;
 923:main.c        **** 
 924:main.c        ****   htim1.Instance = TIM1;
 925:main.c        ****   htim1.Init.Prescaler = 0;
 926:main.c        ****   htim1.Init.CounterMode = TIM_COUNTERMODE_UP;
 927:main.c        ****   htim1.Init.Period = 0;
 928:main.c        ****   htim1.Init.ClockDivision = TIM_CLOCKDIVISION_DIV1;
 929:main.c        ****   htim1.Init.RepetitionCounter = 0;
 930:main.c        ****   htim1.Init.AutoReloadPreload = TIM_AUTORELOAD_PRELOAD_DISABLE;
 931:main.c        ****   if (HAL_TIM_Base_Init(&htim1) != HAL_OK)
 932:main.c        ****   {
 933:main.c        ****     _Error_Handler(__FILE__, __LINE__);
 934:main.c        ****   }
 935:main.c        **** 
 936:main.c        ****   sClockSourceConfig.ClockSource = TIM_CLOCKSOURCE_INTERNAL;
 937:main.c        ****   if (HAL_TIM_ConfigClockSource(&htim1, &sClockSourceConfig) != HAL_OK)
 938:main.c        ****   {
 939:main.c        ****     _Error_Handler(__FILE__, __LINE__);
 940:main.c        ****   }
 941:main.c        **** 
 942:main.c        ****   if (HAL_TIM_PWM_Init(&htim1) != HAL_OK)
 943:main.c        ****   {
 944:main.c        ****     _Error_Handler(__FILE__, __LINE__);
 945:main.c        ****   }
 946:main.c        **** 
 947:main.c        ****   sMasterConfig.MasterOutputTrigger = TIM_TRGO_RESET;
 948:main.c        ****   sMasterConfig.MasterOutputTrigger2 = TIM_TRGO2_RESET;
 949:main.c        ****   sMasterConfig.MasterSlaveMode = TIM_MASTERSLAVEMODE_DISABLE;
 950:main.c        ****   if (HAL_TIMEx_MasterConfigSynchronization(&htim1, &sMasterConfig) != HAL_OK)
 951:main.c        ****   {
 952:main.c        ****     _Error_Handler(__FILE__, __LINE__);
 953:main.c        ****   }
 954:main.c        **** 
 955:main.c        ****   sConfigOC.OCMode = TIM_OCMODE_PWM1;
 956:main.c        ****   sConfigOC.Pulse = 0;
 957:main.c        ****   sConfigOC.OCPolarity = TIM_OCPOLARITY_HIGH;
 958:main.c        ****   sConfigOC.OCNPolarity = TIM_OCNPOLARITY_HIGH;
 959:main.c        ****   sConfigOC.OCFastMode = TIM_OCFAST_DISABLE;
 960:main.c        ****   sConfigOC.OCIdleState = TIM_OCIDLESTATE_RESET;
 961:main.c        ****   sConfigOC.OCNIdleState = TIM_OCNIDLESTATE_RESET;
 962:main.c        ****   if (HAL_TIM_PWM_ConfigChannel(&htim1, &sConfigOC, TIM_CHANNEL_1) != HAL_OK)
 963:main.c        ****   {
ARM GAS  C:\Users\lenovo\AppData\Local\Temp\ccfgRfuq.s 			page 19


 964:main.c        ****     _Error_Handler(__FILE__, __LINE__);
 965:main.c        ****   }
 966:main.c        **** 
 967:main.c        ****   sBreakDeadTimeConfig.OffStateRunMode = TIM_OSSR_DISABLE;
 968:main.c        ****   sBreakDeadTimeConfig.OffStateIDLEMode = TIM_OSSI_DISABLE;
 969:main.c        ****   sBreakDeadTimeConfig.LockLevel = TIM_LOCKLEVEL_OFF;
 970:main.c        ****   sBreakDeadTimeConfig.DeadTime = 0;
 971:main.c        ****   sBreakDeadTimeConfig.BreakState = TIM_BREAK_DISABLE;
 972:main.c        ****   sBreakDeadTimeConfig.BreakPolarity = TIM_BREAKPOLARITY_HIGH;
 973:main.c        ****   sBreakDeadTimeConfig.BreakFilter = 0;
 974:main.c        ****   sBreakDeadTimeConfig.Break2State = TIM_BREAK2_DISABLE;
 975:main.c        ****   sBreakDeadTimeConfig.Break2Polarity = TIM_BREAK2POLARITY_HIGH;
 976:main.c        ****   sBreakDeadTimeConfig.Break2Filter = 0;
 977:main.c        ****   sBreakDeadTimeConfig.AutomaticOutput = TIM_AUTOMATICOUTPUT_DISABLE;
 978:main.c        ****   if (HAL_TIMEx_ConfigBreakDeadTime(&htim1, &sBreakDeadTimeConfig) != HAL_OK)
 979:main.c        ****   {
 980:main.c        ****     _Error_Handler(__FILE__, __LINE__);
 981:main.c        ****   }
 982:main.c        **** 
 983:main.c        ****   HAL_TIM_MspPostInit(&htim1);
 984:main.c        **** 
 985:main.c        **** }
 986:main.c        **** 
 987:main.c        **** /* TIM2 init function */
 988:main.c        **** static void MX_TIM2_Init(void)
 989:main.c        **** {
 990:main.c        **** 
 991:main.c        ****   TIM_ClockConfigTypeDef sClockSourceConfig;
 992:main.c        ****   TIM_MasterConfigTypeDef sMasterConfig;
 993:main.c        ****   TIM_OC_InitTypeDef sConfigOC;
 994:main.c        **** 
 995:main.c        ****   htim2.Instance = TIM2;
 996:main.c        ****   htim2.Init.Prescaler = 0;
 997:main.c        ****   htim2.Init.CounterMode = TIM_COUNTERMODE_UP;
 998:main.c        ****   htim2.Init.Period = 0;
 999:main.c        ****   htim2.Init.ClockDivision = TIM_CLOCKDIVISION_DIV1;
1000:main.c        ****   htim2.Init.AutoReloadPreload = TIM_AUTORELOAD_PRELOAD_DISABLE;
1001:main.c        ****   if (HAL_TIM_Base_Init(&htim2) != HAL_OK)
1002:main.c        ****   {
1003:main.c        ****     _Error_Handler(__FILE__, __LINE__);
1004:main.c        ****   }
1005:main.c        **** 
1006:main.c        ****   sClockSourceConfig.ClockSource = TIM_CLOCKSOURCE_INTERNAL;
1007:main.c        ****   if (HAL_TIM_ConfigClockSource(&htim2, &sClockSourceConfig) != HAL_OK)
1008:main.c        ****   {
1009:main.c        ****     _Error_Handler(__FILE__, __LINE__);
1010:main.c        ****   }
1011:main.c        **** 
1012:main.c        ****   if (HAL_TIM_PWM_Init(&htim2) != HAL_OK)
1013:main.c        ****   {
1014:main.c        ****     _Error_Handler(__FILE__, __LINE__);
1015:main.c        ****   }
1016:main.c        **** 
1017:main.c        ****   sMasterConfig.MasterOutputTrigger = TIM_TRGO_RESET;
1018:main.c        ****   sMasterConfig.MasterSlaveMode = TIM_MASTERSLAVEMODE_DISABLE;
1019:main.c        ****   if (HAL_TIMEx_MasterConfigSynchronization(&htim2, &sMasterConfig) != HAL_OK)
1020:main.c        ****   {
ARM GAS  C:\Users\lenovo\AppData\Local\Temp\ccfgRfuq.s 			page 20


1021:main.c        ****     _Error_Handler(__FILE__, __LINE__);
1022:main.c        ****   }
1023:main.c        **** 
1024:main.c        ****   sConfigOC.OCMode = TIM_OCMODE_PWM1;
1025:main.c        ****   sConfigOC.Pulse = 0;
1026:main.c        ****   sConfigOC.OCPolarity = TIM_OCPOLARITY_HIGH;
1027:main.c        ****   sConfigOC.OCFastMode = TIM_OCFAST_DISABLE;
1028:main.c        ****   if (HAL_TIM_PWM_ConfigChannel(&htim2, &sConfigOC, TIM_CHANNEL_1) != HAL_OK)
1029:main.c        ****   {
1030:main.c        ****     _Error_Handler(__FILE__, __LINE__);
1031:main.c        ****   }
1032:main.c        **** 
1033:main.c        ****   HAL_TIM_MspPostInit(&htim2);
1034:main.c        **** 
1035:main.c        **** }
1036:main.c        **** 
1037:main.c        **** /* TIM3 init function */
1038:main.c        **** static void MX_TIM3_Init(void)
1039:main.c        **** {
1040:main.c        **** 
1041:main.c        ****   TIM_ClockConfigTypeDef sClockSourceConfig;
1042:main.c        ****   TIM_MasterConfigTypeDef sMasterConfig;
1043:main.c        ****   TIM_OC_InitTypeDef sConfigOC;
1044:main.c        **** 
1045:main.c        ****   htim3.Instance = TIM3;
1046:main.c        ****   htim3.Init.Prescaler = 0;
1047:main.c        ****   htim3.Init.CounterMode = TIM_COUNTERMODE_UP;
1048:main.c        ****   htim3.Init.Period = 0;
1049:main.c        ****   htim3.Init.ClockDivision = TIM_CLOCKDIVISION_DIV1;
1050:main.c        ****   htim3.Init.AutoReloadPreload = TIM_AUTORELOAD_PRELOAD_DISABLE;
1051:main.c        ****   if (HAL_TIM_Base_Init(&htim3) != HAL_OK)
1052:main.c        ****   {
1053:main.c        ****     _Error_Handler(__FILE__, __LINE__);
1054:main.c        ****   }
1055:main.c        **** 
1056:main.c        ****   sClockSourceConfig.ClockSource = TIM_CLOCKSOURCE_INTERNAL;
1057:main.c        ****   if (HAL_TIM_ConfigClockSource(&htim3, &sClockSourceConfig) != HAL_OK)
1058:main.c        ****   {
1059:main.c        ****     _Error_Handler(__FILE__, __LINE__);
1060:main.c        ****   }
1061:main.c        **** 
1062:main.c        ****   if (HAL_TIM_PWM_Init(&htim3) != HAL_OK)
1063:main.c        ****   {
1064:main.c        ****     _Error_Handler(__FILE__, __LINE__);
1065:main.c        ****   }
1066:main.c        **** 
1067:main.c        ****   sMasterConfig.MasterOutputTrigger = TIM_TRGO_RESET;
1068:main.c        ****   sMasterConfig.MasterSlaveMode = TIM_MASTERSLAVEMODE_DISABLE;
1069:main.c        ****   if (HAL_TIMEx_MasterConfigSynchronization(&htim3, &sMasterConfig) != HAL_OK)
1070:main.c        ****   {
1071:main.c        ****     _Error_Handler(__FILE__, __LINE__);
1072:main.c        ****   }
1073:main.c        **** 
1074:main.c        ****   sConfigOC.OCMode = TIM_OCMODE_PWM1;
1075:main.c        ****   sConfigOC.Pulse = 0;
1076:main.c        ****   sConfigOC.OCPolarity = TIM_OCPOLARITY_HIGH;
1077:main.c        ****   sConfigOC.OCFastMode = TIM_OCFAST_DISABLE;
ARM GAS  C:\Users\lenovo\AppData\Local\Temp\ccfgRfuq.s 			page 21


1078:main.c        ****   if (HAL_TIM_PWM_ConfigChannel(&htim3, &sConfigOC, TIM_CHANNEL_1) != HAL_OK)
1079:main.c        ****   {
1080:main.c        ****     _Error_Handler(__FILE__, __LINE__);
1081:main.c        ****   }
1082:main.c        **** 
1083:main.c        ****   HAL_TIM_MspPostInit(&htim3);
1084:main.c        **** 
1085:main.c        **** }
1086:main.c        **** 
1087:main.c        **** /* TIM5 init function */
1088:main.c        **** static void MX_TIM5_Init(void)
1089:main.c        **** {
1090:main.c        **** 
1091:main.c        ****   TIM_ClockConfigTypeDef sClockSourceConfig;
1092:main.c        ****   TIM_MasterConfigTypeDef sMasterConfig;
1093:main.c        ****   TIM_OC_InitTypeDef sConfigOC;
1094:main.c        **** 
1095:main.c        ****   htim5.Instance = TIM5;
1096:main.c        ****   htim5.Init.Prescaler = 0;
1097:main.c        ****   htim5.Init.CounterMode = TIM_COUNTERMODE_UP;
1098:main.c        ****   htim5.Init.Period = 0;
1099:main.c        ****   htim5.Init.ClockDivision = TIM_CLOCKDIVISION_DIV1;
1100:main.c        ****   htim5.Init.AutoReloadPreload = TIM_AUTORELOAD_PRELOAD_DISABLE;
1101:main.c        ****   if (HAL_TIM_Base_Init(&htim5) != HAL_OK)
1102:main.c        ****   {
1103:main.c        ****     _Error_Handler(__FILE__, __LINE__);
1104:main.c        ****   }
1105:main.c        **** 
1106:main.c        ****   sClockSourceConfig.ClockSource = TIM_CLOCKSOURCE_INTERNAL;
1107:main.c        ****   if (HAL_TIM_ConfigClockSource(&htim5, &sClockSourceConfig) != HAL_OK)
1108:main.c        ****   {
1109:main.c        ****     _Error_Handler(__FILE__, __LINE__);
1110:main.c        ****   }
1111:main.c        **** 
1112:main.c        ****   if (HAL_TIM_PWM_Init(&htim5) != HAL_OK)
1113:main.c        ****   {
1114:main.c        ****     _Error_Handler(__FILE__, __LINE__);
1115:main.c        ****   }
1116:main.c        **** 
1117:main.c        ****   sMasterConfig.MasterOutputTrigger = TIM_TRGO_RESET;
1118:main.c        ****   sMasterConfig.MasterSlaveMode = TIM_MASTERSLAVEMODE_DISABLE;
1119:main.c        ****   if (HAL_TIMEx_MasterConfigSynchronization(&htim5, &sMasterConfig) != HAL_OK)
1120:main.c        ****   {
1121:main.c        ****     _Error_Handler(__FILE__, __LINE__);
1122:main.c        ****   }
1123:main.c        **** 
1124:main.c        ****   sConfigOC.OCMode = TIM_OCMODE_PWM1;
1125:main.c        ****   sConfigOC.Pulse = 0;
1126:main.c        ****   sConfigOC.OCPolarity = TIM_OCPOLARITY_HIGH;
1127:main.c        ****   sConfigOC.OCFastMode = TIM_OCFAST_DISABLE;
1128:main.c        ****   if (HAL_TIM_PWM_ConfigChannel(&htim5, &sConfigOC, TIM_CHANNEL_4) != HAL_OK)
1129:main.c        ****   {
1130:main.c        ****     _Error_Handler(__FILE__, __LINE__);
1131:main.c        ****   }
1132:main.c        **** 
1133:main.c        ****   HAL_TIM_MspPostInit(&htim5);
1134:main.c        **** 
ARM GAS  C:\Users\lenovo\AppData\Local\Temp\ccfgRfuq.s 			page 22


1135:main.c        **** }
1136:main.c        **** 
1137:main.c        **** /* TIM7 init function */
1138:main.c        **** static void MX_TIM7_Init(void)
1139:main.c        **** {
1140:main.c        **** 
1141:main.c        ****   TIM_MasterConfigTypeDef sMasterConfig;
1142:main.c        **** 
1143:main.c        ****   htim7.Instance = TIM7;
1144:main.c        ****   htim7.Init.Prescaler = 0;
1145:main.c        ****   htim7.Init.CounterMode = TIM_COUNTERMODE_UP;
1146:main.c        ****   htim7.Init.Period = 0;
1147:main.c        ****   htim7.Init.AutoReloadPreload = TIM_AUTORELOAD_PRELOAD_DISABLE;
1148:main.c        ****   if (HAL_TIM_Base_Init(&htim7) != HAL_OK)
1149:main.c        ****   {
1150:main.c        ****     _Error_Handler(__FILE__, __LINE__);
1151:main.c        ****   }
1152:main.c        **** 
1153:main.c        ****   sMasterConfig.MasterOutputTrigger = TIM_TRGO_RESET;
1154:main.c        ****   sMasterConfig.MasterSlaveMode = TIM_MASTERSLAVEMODE_DISABLE;
1155:main.c        ****   if (HAL_TIMEx_MasterConfigSynchronization(&htim7, &sMasterConfig) != HAL_OK)
1156:main.c        ****   {
1157:main.c        ****     _Error_Handler(__FILE__, __LINE__);
1158:main.c        ****   }
1159:main.c        **** 
1160:main.c        **** }
1161:main.c        **** 
1162:main.c        **** /* TIM8 init function */
1163:main.c        **** static void MX_TIM8_Init(void)
1164:main.c        **** {
1165:main.c        **** 
1166:main.c        ****   TIM_ClockConfigTypeDef sClockSourceConfig;
1167:main.c        ****   TIM_MasterConfigTypeDef sMasterConfig;
1168:main.c        **** 
1169:main.c        ****   htim8.Instance = TIM8;
1170:main.c        ****   htim8.Init.Prescaler = 0;
1171:main.c        ****   htim8.Init.CounterMode = TIM_COUNTERMODE_UP;
1172:main.c        ****   htim8.Init.Period = 0;
1173:main.c        ****   htim8.Init.ClockDivision = TIM_CLOCKDIVISION_DIV1;
1174:main.c        ****   htim8.Init.RepetitionCounter = 0;
1175:main.c        ****   htim8.Init.AutoReloadPreload = TIM_AUTORELOAD_PRELOAD_DISABLE;
1176:main.c        ****   if (HAL_TIM_Base_Init(&htim8) != HAL_OK)
1177:main.c        ****   {
1178:main.c        ****     _Error_Handler(__FILE__, __LINE__);
1179:main.c        ****   }
1180:main.c        **** 
1181:main.c        ****   sClockSourceConfig.ClockSource = TIM_CLOCKSOURCE_INTERNAL;
1182:main.c        ****   if (HAL_TIM_ConfigClockSource(&htim8, &sClockSourceConfig) != HAL_OK)
1183:main.c        ****   {
1184:main.c        ****     _Error_Handler(__FILE__, __LINE__);
1185:main.c        ****   }
1186:main.c        **** 
1187:main.c        ****   sMasterConfig.MasterOutputTrigger = TIM_TRGO_RESET;
1188:main.c        ****   sMasterConfig.MasterOutputTrigger2 = TIM_TRGO2_RESET;
1189:main.c        ****   sMasterConfig.MasterSlaveMode = TIM_MASTERSLAVEMODE_DISABLE;
1190:main.c        ****   if (HAL_TIMEx_MasterConfigSynchronization(&htim8, &sMasterConfig) != HAL_OK)
1191:main.c        ****   {
ARM GAS  C:\Users\lenovo\AppData\Local\Temp\ccfgRfuq.s 			page 23


1192:main.c        ****     _Error_Handler(__FILE__, __LINE__);
1193:main.c        ****   }
1194:main.c        **** 
1195:main.c        **** }
1196:main.c        **** 
1197:main.c        **** /* TIM12 init function */
1198:main.c        **** static void MX_TIM12_Init(void)
1199:main.c        **** {
1200:main.c        **** 
1201:main.c        ****   TIM_OC_InitTypeDef sConfigOC;
1202:main.c        **** 
1203:main.c        ****   htim12.Instance = TIM12;
1204:main.c        ****   htim12.Init.Prescaler = 0;
1205:main.c        ****   htim12.Init.CounterMode = TIM_COUNTERMODE_UP;
1206:main.c        ****   htim12.Init.Period = 0;
1207:main.c        ****   htim12.Init.ClockDivision = TIM_CLOCKDIVISION_DIV1;
1208:main.c        ****   htim12.Init.AutoReloadPreload = TIM_AUTORELOAD_PRELOAD_DISABLE;
1209:main.c        ****   if (HAL_TIM_PWM_Init(&htim12) != HAL_OK)
1210:main.c        ****   {
1211:main.c        ****     _Error_Handler(__FILE__, __LINE__);
1212:main.c        ****   }
1213:main.c        **** 
1214:main.c        ****   sConfigOC.OCMode = TIM_OCMODE_PWM1;
1215:main.c        ****   sConfigOC.Pulse = 0;
1216:main.c        ****   sConfigOC.OCPolarity = TIM_OCPOLARITY_HIGH;
1217:main.c        ****   sConfigOC.OCFastMode = TIM_OCFAST_DISABLE;
1218:main.c        ****   if (HAL_TIM_PWM_ConfigChannel(&htim12, &sConfigOC, TIM_CHANNEL_1) != HAL_OK)
1219:main.c        ****   {
1220:main.c        ****     _Error_Handler(__FILE__, __LINE__);
1221:main.c        ****   }
1222:main.c        **** 
1223:main.c        ****   HAL_TIM_MspPostInit(&htim12);
1224:main.c        **** 
1225:main.c        **** }
1226:main.c        **** 
1227:main.c        **** /* USART1 init function */
1228:main.c        **** static void MX_USART1_UART_Init(void)
1229:main.c        **** {
1230:main.c        **** 
1231:main.c        ****   huart1.Instance = USART1;
1232:main.c        ****   huart1.Init.BaudRate = 115200;
1233:main.c        ****   huart1.Init.WordLength = UART_WORDLENGTH_8B;
1234:main.c        ****   huart1.Init.StopBits = UART_STOPBITS_1;
1235:main.c        ****   huart1.Init.Parity = UART_PARITY_NONE;
1236:main.c        ****   huart1.Init.Mode = UART_MODE_TX_RX;
1237:main.c        ****   huart1.Init.HwFlowCtl = UART_HWCONTROL_NONE;
1238:main.c        ****   huart1.Init.OverSampling = UART_OVERSAMPLING_16;
1239:main.c        ****   huart1.Init.OneBitSampling = UART_ONE_BIT_SAMPLE_DISABLE;
1240:main.c        ****   huart1.AdvancedInit.AdvFeatureInit = UART_ADVFEATURE_NO_INIT;
1241:main.c        ****   if (HAL_UART_Init(&huart1) != HAL_OK)
1242:main.c        ****   {
1243:main.c        ****     _Error_Handler(__FILE__, __LINE__);
1244:main.c        ****   }
1245:main.c        **** 
1246:main.c        **** }
1247:main.c        **** 
1248:main.c        **** /* USART6 init function */
ARM GAS  C:\Users\lenovo\AppData\Local\Temp\ccfgRfuq.s 			page 24


1249:main.c        **** static void MX_USART6_UART_Init(void)
1250:main.c        **** {
1251:main.c        **** 
1252:main.c        ****   huart6.Instance = USART6;
1253:main.c        ****   huart6.Init.BaudRate = 115200;
1254:main.c        ****   huart6.Init.WordLength = UART_WORDLENGTH_8B;
1255:main.c        ****   huart6.Init.StopBits = UART_STOPBITS_1;
1256:main.c        ****   huart6.Init.Parity = UART_PARITY_NONE;
1257:main.c        ****   huart6.Init.Mode = UART_MODE_TX_RX;
1258:main.c        ****   huart6.Init.HwFlowCtl = UART_HWCONTROL_NONE;
1259:main.c        ****   huart6.Init.OverSampling = UART_OVERSAMPLING_16;
1260:main.c        ****   huart6.Init.OneBitSampling = UART_ONE_BIT_SAMPLE_DISABLE;
1261:main.c        ****   huart6.AdvancedInit.AdvFeatureInit = UART_ADVFEATURE_NO_INIT;
1262:main.c        ****   if (HAL_UART_Init(&huart6) != HAL_OK)
1263:main.c        ****   {
1264:main.c        ****     _Error_Handler(__FILE__, __LINE__);
1265:main.c        ****   }
1266:main.c        **** 
1267:main.c        **** }
1268:main.c        **** 
1269:main.c        **** /* FMC initialization function */
1270:main.c        **** static void MX_FMC_Init(void)
1271:main.c        **** {
1272:main.c        ****   FMC_SDRAM_TimingTypeDef SdramTiming;
1273:main.c        **** 
1274:main.c        ****   /** Perform the SDRAM1 memory initialization sequence
1275:main.c        ****   */
1276:main.c        ****   hsdram1.Instance = FMC_SDRAM_DEVICE;
1277:main.c        ****   /* hsdram1.Init */
1278:main.c        ****   hsdram1.Init.SDBank = FMC_SDRAM_BANK1;
1279:main.c        ****   hsdram1.Init.ColumnBitsNumber = FMC_SDRAM_COLUMN_BITS_NUM_8;
1280:main.c        ****   hsdram1.Init.RowBitsNumber = FMC_SDRAM_ROW_BITS_NUM_12;
1281:main.c        ****   hsdram1.Init.MemoryDataWidth = FMC_SDRAM_MEM_BUS_WIDTH_16;
1282:main.c        ****   hsdram1.Init.InternalBankNumber = FMC_SDRAM_INTERN_BANKS_NUM_4;
1283:main.c        ****   hsdram1.Init.CASLatency = FMC_SDRAM_CAS_LATENCY_3;
1284:main.c        ****   hsdram1.Init.WriteProtection = FMC_SDRAM_WRITE_PROTECTION_DISABLE;
1285:main.c        ****   hsdram1.Init.SDClockPeriod = FMC_SDRAM_CLOCK_PERIOD_2;
1286:main.c        ****   hsdram1.Init.ReadBurst = FMC_SDRAM_RBURST_ENABLE;
1287:main.c        ****   hsdram1.Init.ReadPipeDelay = FMC_SDRAM_RPIPE_DELAY_0;
1288:main.c        ****   /* SdramTiming */
1289:main.c        ****   SdramTiming.LoadToActiveDelay = 2;
1290:main.c        ****   SdramTiming.ExitSelfRefreshDelay = 7;
1291:main.c        ****   SdramTiming.SelfRefreshTime = 4;
1292:main.c        ****   SdramTiming.RowCycleDelay = 7;
1293:main.c        ****   SdramTiming.WriteRecoveryTime = 3;
1294:main.c        ****   SdramTiming.RPDelay = 2;
1295:main.c        ****   SdramTiming.RCDDelay = 2;
1296:main.c        **** 
1297:main.c        ****   if (HAL_SDRAM_Init(&hsdram1, &SdramTiming) != HAL_OK)
1298:main.c        ****   {
1299:main.c        ****     _Error_Handler(__FILE__, __LINE__);
1300:main.c        ****   }
1301:main.c        **** 
1302:main.c        **** }
1303:main.c        **** 
1304:main.c        **** /** Configure pins as 
1305:main.c        ****         * Analog 
ARM GAS  C:\Users\lenovo\AppData\Local\Temp\ccfgRfuq.s 			page 25


1306:main.c        ****         * Input 
1307:main.c        ****         * Output
1308:main.c        ****         * EVENT_OUT
1309:main.c        ****         * EXTI
1310:main.c        ****      PB5   ------> USB_OTG_HS_ULPI_D7
1311:main.c        ****      PH4   ------> USB_OTG_HS_ULPI_NXT
1312:main.c        ****      PB13   ------> USB_OTG_HS_ULPI_D6
1313:main.c        ****      PB12   ------> USB_OTG_HS_ULPI_D5
1314:main.c        ****      PC0   ------> USB_OTG_HS_ULPI_STP
1315:main.c        ****      PC2   ------> USB_OTG_HS_ULPI_DIR
1316:main.c        ****      PA5   ------> USB_OTG_HS_ULPI_CK
1317:main.c        ****      PB10   ------> USB_OTG_HS_ULPI_D3
1318:main.c        ****      PA3   ------> USB_OTG_HS_ULPI_D0
1319:main.c        ****      PB1   ------> USB_OTG_HS_ULPI_D2
1320:main.c        ****      PB0   ------> USB_OTG_HS_ULPI_D1
1321:main.c        ****      PB11   ------> USB_OTG_HS_ULPI_D4
1322:main.c        **** */
1323:main.c        **** static void MX_GPIO_Init(void)
1324:main.c        **** {
  67              		.loc 1 1324 0
  68              		.cfi_startproc
  69              		@ args = 0, pretend = 0, frame = 64
  70              		@ frame_needed = 0, uses_anonymous_args = 0
  71 0000 2DE9F04F 		push	{r4, r5, r6, r7, r8, r9, r10, fp, lr}
  72              	.LCFI0:
  73              		.cfi_def_cfa_offset 36
  74              		.cfi_offset 4, -36
  75              		.cfi_offset 5, -32
  76              		.cfi_offset 6, -28
  77              		.cfi_offset 7, -24
  78              		.cfi_offset 8, -20
  79              		.cfi_offset 9, -16
  80              		.cfi_offset 10, -12
  81              		.cfi_offset 11, -8
  82              		.cfi_offset 14, -4
  83 0004 91B0     		sub	sp, sp, #68
  84              	.LCFI1:
  85              		.cfi_def_cfa_offset 104
  86              	.LBB2:
1325:main.c        **** 
1326:main.c        ****   GPIO_InitTypeDef GPIO_InitStruct;
1327:main.c        **** 
1328:main.c        ****   /* GPIO Ports Clock Enable */
1329:main.c        ****   __HAL_RCC_GPIOE_CLK_ENABLE();
  87              		.loc 1 1329 0
  88 0006 9A4B     		ldr	r3, .L6
  89 0008 1A6B     		ldr	r2, [r3, #48]
  90 000a 42F01002 		orr	r2, r2, #16
  91 000e 1A63     		str	r2, [r3, #48]
  92 0010 1A6B     		ldr	r2, [r3, #48]
  93 0012 02F01002 		and	r2, r2, #16
  94 0016 0092     		str	r2, [sp]
  95 0018 009A     		ldr	r2, [sp]
  96              	.LBE2:
  97              	.LBB3:
1330:main.c        ****   __HAL_RCC_GPIOG_CLK_ENABLE();
  98              		.loc 1 1330 0
ARM GAS  C:\Users\lenovo\AppData\Local\Temp\ccfgRfuq.s 			page 26


  99 001a 1A6B     		ldr	r2, [r3, #48]
 100 001c 42F04002 		orr	r2, r2, #64
 101 0020 1A63     		str	r2, [r3, #48]
 102 0022 1A6B     		ldr	r2, [r3, #48]
 103 0024 02F04002 		and	r2, r2, #64
 104 0028 0192     		str	r2, [sp, #4]
 105 002a 019A     		ldr	r2, [sp, #4]
 106              	.LBE3:
 107              	.LBB4:
1331:main.c        ****   __HAL_RCC_GPIOB_CLK_ENABLE();
 108              		.loc 1 1331 0
 109 002c 1A6B     		ldr	r2, [r3, #48]
 110 002e 42F00202 		orr	r2, r2, #2
 111 0032 1A63     		str	r2, [r3, #48]
 112 0034 1A6B     		ldr	r2, [r3, #48]
 113 0036 02F00202 		and	r2, r2, #2
 114 003a 0292     		str	r2, [sp, #8]
 115 003c 029A     		ldr	r2, [sp, #8]
 116              	.LBE4:
 117              	.LBB5:
1332:main.c        ****   __HAL_RCC_GPIOD_CLK_ENABLE();
 118              		.loc 1 1332 0
 119 003e 1A6B     		ldr	r2, [r3, #48]
 120 0040 42F00802 		orr	r2, r2, #8
 121 0044 1A63     		str	r2, [r3, #48]
 122 0046 1A6B     		ldr	r2, [r3, #48]
 123 0048 02F00802 		and	r2, r2, #8
 124 004c 0392     		str	r2, [sp, #12]
 125 004e 039A     		ldr	r2, [sp, #12]
 126              	.LBE5:
 127              	.LBB6:
1333:main.c        ****   __HAL_RCC_GPIOC_CLK_ENABLE();
 128              		.loc 1 1333 0
 129 0050 1A6B     		ldr	r2, [r3, #48]
 130 0052 42F00402 		orr	r2, r2, #4
 131 0056 1A63     		str	r2, [r3, #48]
 132 0058 1A6B     		ldr	r2, [r3, #48]
 133 005a 02F00402 		and	r2, r2, #4
 134 005e 0492     		str	r2, [sp, #16]
 135 0060 049A     		ldr	r2, [sp, #16]
 136              	.LBE6:
 137              	.LBB7:
1334:main.c        ****   __HAL_RCC_GPIOA_CLK_ENABLE();
 138              		.loc 1 1334 0
 139 0062 1A6B     		ldr	r2, [r3, #48]
 140 0064 42F00102 		orr	r2, r2, #1
 141 0068 1A63     		str	r2, [r3, #48]
 142 006a 1A6B     		ldr	r2, [r3, #48]
 143 006c 02F00102 		and	r2, r2, #1
 144 0070 0592     		str	r2, [sp, #20]
 145 0072 059A     		ldr	r2, [sp, #20]
 146              	.LBE7:
 147              	.LBB8:
1335:main.c        ****   __HAL_RCC_GPIOJ_CLK_ENABLE();
 148              		.loc 1 1335 0
 149 0074 1A6B     		ldr	r2, [r3, #48]
 150 0076 42F40072 		orr	r2, r2, #512
ARM GAS  C:\Users\lenovo\AppData\Local\Temp\ccfgRfuq.s 			page 27


 151 007a 1A63     		str	r2, [r3, #48]
 152 007c 1A6B     		ldr	r2, [r3, #48]
 153 007e 02F40072 		and	r2, r2, #512
 154 0082 0692     		str	r2, [sp, #24]
 155 0084 069A     		ldr	r2, [sp, #24]
 156              	.LBE8:
 157              	.LBB9:
1336:main.c        ****   __HAL_RCC_GPIOI_CLK_ENABLE();
 158              		.loc 1 1336 0
 159 0086 1A6B     		ldr	r2, [r3, #48]
 160 0088 42F48072 		orr	r2, r2, #256
 161 008c 1A63     		str	r2, [r3, #48]
 162 008e 1A6B     		ldr	r2, [r3, #48]
 163 0090 02F48072 		and	r2, r2, #256
 164 0094 0792     		str	r2, [sp, #28]
 165 0096 079A     		ldr	r2, [sp, #28]
 166              	.LBE9:
 167              	.LBB10:
1337:main.c        ****   __HAL_RCC_GPIOK_CLK_ENABLE();
 168              		.loc 1 1337 0
 169 0098 1A6B     		ldr	r2, [r3, #48]
 170 009a 42F48062 		orr	r2, r2, #1024
 171 009e 1A63     		str	r2, [r3, #48]
 172 00a0 1A6B     		ldr	r2, [r3, #48]
 173 00a2 02F48062 		and	r2, r2, #1024
 174 00a6 0892     		str	r2, [sp, #32]
 175 00a8 089A     		ldr	r2, [sp, #32]
 176              	.LBE10:
 177              	.LBB11:
1338:main.c        ****   __HAL_RCC_GPIOF_CLK_ENABLE();
 178              		.loc 1 1338 0
 179 00aa 1A6B     		ldr	r2, [r3, #48]
 180 00ac 42F02002 		orr	r2, r2, #32
 181 00b0 1A63     		str	r2, [r3, #48]
 182 00b2 1A6B     		ldr	r2, [r3, #48]
 183 00b4 02F02002 		and	r2, r2, #32
 184 00b8 0992     		str	r2, [sp, #36]
 185 00ba 099A     		ldr	r2, [sp, #36]
 186              	.LBE11:
 187              	.LBB12:
1339:main.c        ****   __HAL_RCC_GPIOH_CLK_ENABLE();
 188              		.loc 1 1339 0
 189 00bc 1A6B     		ldr	r2, [r3, #48]
 190 00be 42F08002 		orr	r2, r2, #128
 191 00c2 1A63     		str	r2, [r3, #48]
 192 00c4 1B6B     		ldr	r3, [r3, #48]
 193 00c6 03F08003 		and	r3, r3, #128
 194 00ca 0A93     		str	r3, [sp, #40]
 195 00cc 0A9B     		ldr	r3, [sp, #40]
 196              	.LBE12:
1340:main.c        **** 
1341:main.c        ****   /*Configure GPIO pin Output Level */
1342:main.c        ****   HAL_GPIO_WritePin(OTG_FS_PowerSwitchOn_GPIO_Port, OTG_FS_PowerSwitchOn_Pin, GPIO_PIN_SET);
 197              		.loc 1 1342 0
 198 00ce 0122     		movs	r2, #1
 199 00d0 2021     		movs	r1, #32
 200 00d2 6848     		ldr	r0, .L6+4
ARM GAS  C:\Users\lenovo\AppData\Local\Temp\ccfgRfuq.s 			page 28


 201 00d4 FFF7FEFF 		bl	HAL_GPIO_WritePin
 202              	.LVL0:
1343:main.c        **** 
1344:main.c        ****   /*Configure GPIO pin Output Level */
1345:main.c        ****   HAL_GPIO_WritePin(GPIOI, ARDUINO_D7_Pin|ARDUINO_D8_Pin, GPIO_PIN_RESET);
 203              		.loc 1 1345 0
 204 00d8 0022     		movs	r2, #0
 205 00da 0C21     		movs	r1, #12
 206 00dc 6648     		ldr	r0, .L6+8
 207 00de FFF7FEFF 		bl	HAL_GPIO_WritePin
 208              	.LVL1:
1346:main.c        **** 
1347:main.c        ****   /*Configure GPIO pin Output Level */
1348:main.c        ****   HAL_GPIO_WritePin(LCD_BL_CTRL_GPIO_Port, LCD_BL_CTRL_Pin, GPIO_PIN_SET);
 209              		.loc 1 1348 0
 210 00e2 0122     		movs	r2, #1
 211 00e4 0821     		movs	r1, #8
 212 00e6 6548     		ldr	r0, .L6+12
 213 00e8 FFF7FEFF 		bl	HAL_GPIO_WritePin
 214              	.LVL2:
1349:main.c        **** 
1350:main.c        ****   /*Configure GPIO pin Output Level */
1351:main.c        ****   HAL_GPIO_WritePin(LCD_DISP_GPIO_Port, LCD_DISP_Pin, GPIO_PIN_SET);
 215              		.loc 1 1351 0
 216 00ec 0122     		movs	r2, #1
 217 00ee 4FF48051 		mov	r1, #4096
 218 00f2 6148     		ldr	r0, .L6+8
 219 00f4 FFF7FEFF 		bl	HAL_GPIO_WritePin
 220              	.LVL3:
1352:main.c        **** 
1353:main.c        ****   /*Configure GPIO pin Output Level */
1354:main.c        ****   HAL_GPIO_WritePin(DCMI_PWR_EN_GPIO_Port, DCMI_PWR_EN_Pin, GPIO_PIN_RESET);
 221              		.loc 1 1354 0
 222 00f8 0022     		movs	r2, #0
 223 00fa 4FF40051 		mov	r1, #8192
 224 00fe 6048     		ldr	r0, .L6+16
 225 0100 FFF7FEFF 		bl	HAL_GPIO_WritePin
 226              	.LVL4:
1355:main.c        **** 
1356:main.c        ****   /*Configure GPIO pin Output Level */
1357:main.c        ****   HAL_GPIO_WritePin(GPIOG, ARDUINO_D4_Pin|ARDUINO_D2_Pin|EXT_RST_Pin, GPIO_PIN_RESET);
 227              		.loc 1 1357 0
 228 0104 0022     		movs	r2, #0
 229 0106 C821     		movs	r1, #200
 230 0108 5E48     		ldr	r0, .L6+20
 231 010a FFF7FEFF 		bl	HAL_GPIO_WritePin
 232              	.LVL5:
1358:main.c        **** 
1359:main.c        ****   /*Configure GPIO pin : OTG_HS_OverCurrent_Pin */
1360:main.c        ****   GPIO_InitStruct.Pin = OTG_HS_OverCurrent_Pin;
 233              		.loc 1 1360 0
 234 010e 4FF0080A 		mov	r10, #8
 235 0112 CDF82CA0 		str	r10, [sp, #44]
1361:main.c        ****   GPIO_InitStruct.Mode = GPIO_MODE_INPUT;
 236              		.loc 1 1361 0
 237 0116 0024     		movs	r4, #0
 238 0118 0C94     		str	r4, [sp, #48]
ARM GAS  C:\Users\lenovo\AppData\Local\Temp\ccfgRfuq.s 			page 29


1362:main.c        ****   GPIO_InitStruct.Pull = GPIO_NOPULL;
 239              		.loc 1 1362 0
 240 011a 0D94     		str	r4, [sp, #52]
1363:main.c        ****   HAL_GPIO_Init(OTG_HS_OverCurrent_GPIO_Port, &GPIO_InitStruct);
 241              		.loc 1 1363 0
 242 011c 0BA9     		add	r1, sp, #44
 243 011e 5A48     		ldr	r0, .L6+24
 244 0120 FFF7FEFF 		bl	HAL_GPIO_Init
 245              	.LVL6:
1364:main.c        **** 
1365:main.c        ****   /*Configure GPIO pins : ULPI_D7_Pin ULPI_D6_Pin ULPI_D5_Pin ULPI_D3_Pin 
1366:main.c        ****                            ULPI_D2_Pin ULPI_D1_Pin ULPI_D4_Pin */
1367:main.c        ****   GPIO_InitStruct.Pin = ULPI_D7_Pin|ULPI_D6_Pin|ULPI_D5_Pin|ULPI_D3_Pin 
 246              		.loc 1 1367 0
 247 0124 43F62343 		movw	r3, #15395
 248 0128 0B93     		str	r3, [sp, #44]
1368:main.c        ****                           |ULPI_D2_Pin|ULPI_D1_Pin|ULPI_D4_Pin;
1369:main.c        ****   GPIO_InitStruct.Mode = GPIO_MODE_AF_PP;
 249              		.loc 1 1369 0
 250 012a 4FF00208 		mov	r8, #2
 251 012e CDF83080 		str	r8, [sp, #48]
1370:main.c        ****   GPIO_InitStruct.Pull = GPIO_NOPULL;
 252              		.loc 1 1370 0
 253 0132 0D94     		str	r4, [sp, #52]
1371:main.c        ****   GPIO_InitStruct.Speed = GPIO_SPEED_FREQ_VERY_HIGH;
 254              		.loc 1 1371 0
 255 0134 0327     		movs	r7, #3
 256 0136 0E97     		str	r7, [sp, #56]
1372:main.c        ****   GPIO_InitStruct.Alternate = GPIO_AF10_OTG_HS;
 257              		.loc 1 1372 0
 258 0138 0A26     		movs	r6, #10
 259 013a 0F96     		str	r6, [sp, #60]
1373:main.c        ****   HAL_GPIO_Init(GPIOB, &GPIO_InitStruct);
 260              		.loc 1 1373 0
 261 013c 0BA9     		add	r1, sp, #44
 262 013e 5348     		ldr	r0, .L6+28
 263 0140 FFF7FEFF 		bl	HAL_GPIO_Init
 264              	.LVL7:
1374:main.c        **** 
1375:main.c        ****   /*Configure GPIO pin : OTG_FS_VBUS_Pin */
1376:main.c        ****   GPIO_InitStruct.Pin = OTG_FS_VBUS_Pin;
 265              		.loc 1 1376 0
 266 0144 4FF48053 		mov	r3, #4096
 267 0148 0B93     		str	r3, [sp, #44]
1377:main.c        ****   GPIO_InitStruct.Mode = GPIO_MODE_INPUT;
 268              		.loc 1 1377 0
 269 014a 0C94     		str	r4, [sp, #48]
1378:main.c        ****   GPIO_InitStruct.Pull = GPIO_NOPULL;
 270              		.loc 1 1378 0
 271 014c 0D94     		str	r4, [sp, #52]
1379:main.c        ****   HAL_GPIO_Init(OTG_FS_VBUS_GPIO_Port, &GPIO_InitStruct);
 272              		.loc 1 1379 0
 273 014e 0BA9     		add	r1, sp, #44
 274 0150 4F48     		ldr	r0, .L6+32
 275 0152 FFF7FEFF 		bl	HAL_GPIO_Init
 276              	.LVL8:
1380:main.c        **** 
ARM GAS  C:\Users\lenovo\AppData\Local\Temp\ccfgRfuq.s 			page 30


1381:main.c        ****   /*Configure GPIO pin : Audio_INT_Pin */
1382:main.c        ****   GPIO_InitStruct.Pin = Audio_INT_Pin;
 277              		.loc 1 1382 0
 278 0156 4023     		movs	r3, #64
 279 0158 0B93     		str	r3, [sp, #44]
1383:main.c        ****   GPIO_InitStruct.Mode = GPIO_MODE_EVT_RISING;
 280              		.loc 1 1383 0
 281 015a DFF840B1 		ldr	fp, .L6+44
 282 015e CDF830B0 		str	fp, [sp, #48]
1384:main.c        ****   GPIO_InitStruct.Pull = GPIO_NOPULL;
 283              		.loc 1 1384 0
 284 0162 0D94     		str	r4, [sp, #52]
1385:main.c        ****   HAL_GPIO_Init(Audio_INT_GPIO_Port, &GPIO_InitStruct);
 285              		.loc 1 1385 0
 286 0164 0BA9     		add	r1, sp, #44
 287 0166 4348     		ldr	r0, .L6+4
 288 0168 FFF7FEFF 		bl	HAL_GPIO_Init
 289              	.LVL9:
1386:main.c        **** 
1387:main.c        ****   /*Configure GPIO pin : OTG_FS_PowerSwitchOn_Pin */
1388:main.c        ****   GPIO_InitStruct.Pin = OTG_FS_PowerSwitchOn_Pin;
 290              		.loc 1 1388 0
 291 016c 2023     		movs	r3, #32
 292 016e 0B93     		str	r3, [sp, #44]
1389:main.c        ****   GPIO_InitStruct.Mode = GPIO_MODE_OUTPUT_PP;
 293              		.loc 1 1389 0
 294 0170 0125     		movs	r5, #1
 295 0172 0C95     		str	r5, [sp, #48]
1390:main.c        ****   GPIO_InitStruct.Pull = GPIO_NOPULL;
 296              		.loc 1 1390 0
 297 0174 0D94     		str	r4, [sp, #52]
1391:main.c        ****   GPIO_InitStruct.Speed = GPIO_SPEED_FREQ_LOW;
 298              		.loc 1 1391 0
 299 0176 0E94     		str	r4, [sp, #56]
1392:main.c        ****   HAL_GPIO_Init(OTG_FS_PowerSwitchOn_GPIO_Port, &GPIO_InitStruct);
 300              		.loc 1 1392 0
 301 0178 0BA9     		add	r1, sp, #44
 302 017a 3E48     		ldr	r0, .L6+4
 303 017c FFF7FEFF 		bl	HAL_GPIO_Init
 304              	.LVL10:
1393:main.c        **** 
1394:main.c        ****   /*Configure GPIO pins : ARDUINO_D7_Pin ARDUINO_D8_Pin LCD_DISP_Pin */
1395:main.c        ****   GPIO_InitStruct.Pin = ARDUINO_D7_Pin|ARDUINO_D8_Pin|LCD_DISP_Pin;
 305              		.loc 1 1395 0
 306 0180 41F20C03 		movw	r3, #4108
 307 0184 0B93     		str	r3, [sp, #44]
1396:main.c        ****   GPIO_InitStruct.Mode = GPIO_MODE_OUTPUT_PP;
 308              		.loc 1 1396 0
 309 0186 0C95     		str	r5, [sp, #48]
1397:main.c        ****   GPIO_InitStruct.Pull = GPIO_NOPULL;
 310              		.loc 1 1397 0
 311 0188 0D94     		str	r4, [sp, #52]
1398:main.c        ****   GPIO_InitStruct.Speed = GPIO_SPEED_FREQ_LOW;
 312              		.loc 1 1398 0
 313 018a 0E94     		str	r4, [sp, #56]
1399:main.c        ****   HAL_GPIO_Init(GPIOI, &GPIO_InitStruct);
 314              		.loc 1 1399 0
ARM GAS  C:\Users\lenovo\AppData\Local\Temp\ccfgRfuq.s 			page 31


 315 018c 0BA9     		add	r1, sp, #44
 316 018e 3A48     		ldr	r0, .L6+8
 317 0190 FFF7FEFF 		bl	HAL_GPIO_Init
 318              	.LVL11:
1400:main.c        **** 
1401:main.c        ****   /*Configure GPIO pin : uSD_Detect_Pin */
1402:main.c        ****   GPIO_InitStruct.Pin = uSD_Detect_Pin;
 319              		.loc 1 1402 0
 320 0194 4FF40059 		mov	r9, #8192
 321 0198 CDF82C90 		str	r9, [sp, #44]
1403:main.c        ****   GPIO_InitStruct.Mode = GPIO_MODE_INPUT;
 322              		.loc 1 1403 0
 323 019c 0C94     		str	r4, [sp, #48]
1404:main.c        ****   GPIO_InitStruct.Pull = GPIO_NOPULL;
 324              		.loc 1 1404 0
 325 019e 0D94     		str	r4, [sp, #52]
1405:main.c        ****   HAL_GPIO_Init(uSD_Detect_GPIO_Port, &GPIO_InitStruct);
 326              		.loc 1 1405 0
 327 01a0 0BA9     		add	r1, sp, #44
 328 01a2 3C48     		ldr	r0, .L6+36
 329 01a4 FFF7FEFF 		bl	HAL_GPIO_Init
 330              	.LVL12:
1406:main.c        **** 
1407:main.c        ****   /*Configure GPIO pin : LCD_BL_CTRL_Pin */
1408:main.c        ****   GPIO_InitStruct.Pin = LCD_BL_CTRL_Pin;
 331              		.loc 1 1408 0
 332 01a8 CDF82CA0 		str	r10, [sp, #44]
1409:main.c        ****   GPIO_InitStruct.Mode = GPIO_MODE_OUTPUT_PP;
 333              		.loc 1 1409 0
 334 01ac 0C95     		str	r5, [sp, #48]
1410:main.c        ****   GPIO_InitStruct.Pull = GPIO_NOPULL;
 335              		.loc 1 1410 0
 336 01ae 0D94     		str	r4, [sp, #52]
1411:main.c        ****   GPIO_InitStruct.Speed = GPIO_SPEED_FREQ_LOW;
 337              		.loc 1 1411 0
 338 01b0 0E94     		str	r4, [sp, #56]
1412:main.c        ****   HAL_GPIO_Init(LCD_BL_CTRL_GPIO_Port, &GPIO_InitStruct);
 339              		.loc 1 1412 0
 340 01b2 0BA9     		add	r1, sp, #44
 341 01b4 3148     		ldr	r0, .L6+12
 342 01b6 FFF7FEFF 		bl	HAL_GPIO_Init
 343              	.LVL13:
1413:main.c        **** 
1414:main.c        ****   /*Configure GPIO pin : OTG_FS_OverCurrent_Pin */
1415:main.c        ****   GPIO_InitStruct.Pin = OTG_FS_OverCurrent_Pin;
 344              		.loc 1 1415 0
 345 01ba 4FF0100A 		mov	r10, #16
 346 01be CDF82CA0 		str	r10, [sp, #44]
1416:main.c        ****   GPIO_InitStruct.Mode = GPIO_MODE_INPUT;
 347              		.loc 1 1416 0
 348 01c2 0C94     		str	r4, [sp, #48]
1417:main.c        ****   GPIO_InitStruct.Pull = GPIO_NOPULL;
 349              		.loc 1 1417 0
 350 01c4 0D94     		str	r4, [sp, #52]
1418:main.c        ****   HAL_GPIO_Init(OTG_FS_OverCurrent_GPIO_Port, &GPIO_InitStruct);
 351              		.loc 1 1418 0
 352 01c6 0BA9     		add	r1, sp, #44
ARM GAS  C:\Users\lenovo\AppData\Local\Temp\ccfgRfuq.s 			page 32


 353 01c8 2A48     		ldr	r0, .L6+4
 354 01ca FFF7FEFF 		bl	HAL_GPIO_Init
 355              	.LVL14:
1419:main.c        **** 
1420:main.c        ****   /*Configure GPIO pins : TP3_Pin NC2_Pin */
1421:main.c        ****   GPIO_InitStruct.Pin = TP3_Pin|NC2_Pin;
 356              		.loc 1 1421 0
 357 01ce 48F20403 		movw	r3, #32772
 358 01d2 0B93     		str	r3, [sp, #44]
1422:main.c        ****   GPIO_InitStruct.Mode = GPIO_MODE_INPUT;
 359              		.loc 1 1422 0
 360 01d4 0C94     		str	r4, [sp, #48]
1423:main.c        ****   GPIO_InitStruct.Pull = GPIO_NOPULL;
 361              		.loc 1 1423 0
 362 01d6 0D94     		str	r4, [sp, #52]
1424:main.c        ****   HAL_GPIO_Init(GPIOH, &GPIO_InitStruct);
 363              		.loc 1 1424 0
 364 01d8 0BA9     		add	r1, sp, #44
 365 01da 2948     		ldr	r0, .L6+16
 366 01dc FFF7FEFF 		bl	HAL_GPIO_Init
 367              	.LVL15:
1425:main.c        **** 
1426:main.c        ****   /*Configure GPIO pin : DCMI_PWR_EN_Pin */
1427:main.c        ****   GPIO_InitStruct.Pin = DCMI_PWR_EN_Pin;
 368              		.loc 1 1427 0
 369 01e0 CDF82C90 		str	r9, [sp, #44]
1428:main.c        ****   GPIO_InitStruct.Mode = GPIO_MODE_OUTPUT_PP;
 370              		.loc 1 1428 0
 371 01e4 0C95     		str	r5, [sp, #48]
1429:main.c        ****   GPIO_InitStruct.Pull = GPIO_NOPULL;
 372              		.loc 1 1429 0
 373 01e6 0D94     		str	r4, [sp, #52]
1430:main.c        ****   GPIO_InitStruct.Speed = GPIO_SPEED_FREQ_LOW;
 374              		.loc 1 1430 0
 375 01e8 0E94     		str	r4, [sp, #56]
1431:main.c        ****   HAL_GPIO_Init(DCMI_PWR_EN_GPIO_Port, &GPIO_InitStruct);
 376              		.loc 1 1431 0
 377 01ea 0BA9     		add	r1, sp, #44
 378 01ec 2448     		ldr	r0, .L6+16
 379 01ee FFF7FEFF 		bl	HAL_GPIO_Init
 380              	.LVL16:
1432:main.c        **** 
1433:main.c        ****   /*Configure GPIO pin : LCD_INT_Pin */
1434:main.c        ****   GPIO_InitStruct.Pin = LCD_INT_Pin;
 381              		.loc 1 1434 0
 382 01f2 CDF82C90 		str	r9, [sp, #44]
1435:main.c        ****   GPIO_InitStruct.Mode = GPIO_MODE_EVT_RISING;
 383              		.loc 1 1435 0
 384 01f6 CDF830B0 		str	fp, [sp, #48]
1436:main.c        ****   GPIO_InitStruct.Pull = GPIO_NOPULL;
 385              		.loc 1 1436 0
 386 01fa 0D94     		str	r4, [sp, #52]
1437:main.c        ****   HAL_GPIO_Init(LCD_INT_GPIO_Port, &GPIO_InitStruct);
 387              		.loc 1 1437 0
 388 01fc 0BA9     		add	r1, sp, #44
 389 01fe 1E48     		ldr	r0, .L6+8
 390 0200 FFF7FEFF 		bl	HAL_GPIO_Init
ARM GAS  C:\Users\lenovo\AppData\Local\Temp\ccfgRfuq.s 			page 33


 391              	.LVL17:
1438:main.c        **** 
1439:main.c        ****   /*Configure GPIO pin : ULPI_NXT_Pin */
1440:main.c        ****   GPIO_InitStruct.Pin = ULPI_NXT_Pin;
 392              		.loc 1 1440 0
 393 0204 CDF82CA0 		str	r10, [sp, #44]
1441:main.c        ****   GPIO_InitStruct.Mode = GPIO_MODE_AF_PP;
 394              		.loc 1 1441 0
 395 0208 CDF83080 		str	r8, [sp, #48]
1442:main.c        ****   GPIO_InitStruct.Pull = GPIO_NOPULL;
 396              		.loc 1 1442 0
 397 020c 0D94     		str	r4, [sp, #52]
1443:main.c        ****   GPIO_InitStruct.Speed = GPIO_SPEED_FREQ_VERY_HIGH;
 398              		.loc 1 1443 0
 399 020e 0E97     		str	r7, [sp, #56]
1444:main.c        ****   GPIO_InitStruct.Alternate = GPIO_AF10_OTG_HS;
 400              		.loc 1 1444 0
 401 0210 0F96     		str	r6, [sp, #60]
1445:main.c        ****   HAL_GPIO_Init(ULPI_NXT_GPIO_Port, &GPIO_InitStruct);
 402              		.loc 1 1445 0
 403 0212 0BA9     		add	r1, sp, #44
 404 0214 1A48     		ldr	r0, .L6+16
 405 0216 FFF7FEFF 		bl	HAL_GPIO_Init
 406              	.LVL18:
1446:main.c        **** 
1447:main.c        ****   /*Configure GPIO pins : ARDUINO_D4_Pin ARDUINO_D2_Pin EXT_RST_Pin */
1448:main.c        ****   GPIO_InitStruct.Pin = ARDUINO_D4_Pin|ARDUINO_D2_Pin|EXT_RST_Pin;
 407              		.loc 1 1448 0
 408 021a C823     		movs	r3, #200
 409 021c 0B93     		str	r3, [sp, #44]
1449:main.c        ****   GPIO_InitStruct.Mode = GPIO_MODE_OUTPUT_PP;
 410              		.loc 1 1449 0
 411 021e 0C95     		str	r5, [sp, #48]
1450:main.c        ****   GPIO_InitStruct.Pull = GPIO_NOPULL;
 412              		.loc 1 1450 0
 413 0220 0D94     		str	r4, [sp, #52]
1451:main.c        ****   GPIO_InitStruct.Speed = GPIO_SPEED_FREQ_LOW;
 414              		.loc 1 1451 0
 415 0222 0E94     		str	r4, [sp, #56]
1452:main.c        ****   HAL_GPIO_Init(GPIOG, &GPIO_InitStruct);
 416              		.loc 1 1452 0
 417 0224 0BA9     		add	r1, sp, #44
 418 0226 1748     		ldr	r0, .L6+20
 419 0228 FFF7FEFF 		bl	HAL_GPIO_Init
 420              	.LVL19:
1453:main.c        **** 
1454:main.c        ****   /*Configure GPIO pins : ULPI_STP_Pin ULPI_DIR_Pin */
1455:main.c        ****   GPIO_InitStruct.Pin = ULPI_STP_Pin|ULPI_DIR_Pin;
 421              		.loc 1 1455 0
 422 022c 0523     		movs	r3, #5
 423 022e 0B93     		str	r3, [sp, #44]
1456:main.c        ****   GPIO_InitStruct.Mode = GPIO_MODE_AF_PP;
 424              		.loc 1 1456 0
 425 0230 CDF83080 		str	r8, [sp, #48]
1457:main.c        ****   GPIO_InitStruct.Pull = GPIO_NOPULL;
 426              		.loc 1 1457 0
 427 0234 0D94     		str	r4, [sp, #52]
ARM GAS  C:\Users\lenovo\AppData\Local\Temp\ccfgRfuq.s 			page 34


1458:main.c        ****   GPIO_InitStruct.Speed = GPIO_SPEED_FREQ_VERY_HIGH;
 428              		.loc 1 1458 0
 429 0236 0E97     		str	r7, [sp, #56]
1459:main.c        ****   GPIO_InitStruct.Alternate = GPIO_AF10_OTG_HS;
 430              		.loc 1 1459 0
 431 0238 0F96     		str	r6, [sp, #60]
1460:main.c        ****   HAL_GPIO_Init(GPIOC, &GPIO_InitStruct);
 432              		.loc 1 1460 0
 433 023a 0BA9     		add	r1, sp, #44
 434 023c 1548     		ldr	r0, .L6+36
 435 023e FFF7FEFF 		bl	HAL_GPIO_Init
 436              	.LVL20:
1461:main.c        **** 
1462:main.c        ****   /*Configure GPIO pin : RMII_RXER_Pin */
1463:main.c        ****   GPIO_InitStruct.Pin = RMII_RXER_Pin;
 437              		.loc 1 1463 0
 438 0242 0423     		movs	r3, #4
 439 0244 0B93     		str	r3, [sp, #44]
1464:main.c        ****   GPIO_InitStruct.Mode = GPIO_MODE_INPUT;
 440              		.loc 1 1464 0
 441 0246 0C94     		str	r4, [sp, #48]
1465:main.c        ****   GPIO_InitStruct.Pull = GPIO_NOPULL;
 442              		.loc 1 1465 0
 443 0248 0D94     		str	r4, [sp, #52]
1466:main.c        ****   HAL_GPIO_Init(RMII_RXER_GPIO_Port, &GPIO_InitStruct);
 444              		.loc 1 1466 0
 445 024a 0BA9     		add	r1, sp, #44
 446 024c 0D48     		ldr	r0, .L6+20
 447 024e FFF7FEFF 		bl	HAL_GPIO_Init
 448              	.LVL21:
1467:main.c        **** 
1468:main.c        ****   /*Configure GPIO pins : ULPI_CLK_Pin ULPI_D0_Pin */
1469:main.c        ****   GPIO_InitStruct.Pin = ULPI_CLK_Pin|ULPI_D0_Pin;
 449              		.loc 1 1469 0
 450 0252 2823     		movs	r3, #40
 451 0254 0B93     		str	r3, [sp, #44]
1470:main.c        ****   GPIO_InitStruct.Mode = GPIO_MODE_AF_PP;
 452              		.loc 1 1470 0
 453 0256 CDF83080 		str	r8, [sp, #48]
1471:main.c        ****   GPIO_InitStruct.Pull = GPIO_NOPULL;
 454              		.loc 1 1471 0
 455 025a 0D94     		str	r4, [sp, #52]
1472:main.c        ****   GPIO_InitStruct.Speed = GPIO_SPEED_FREQ_VERY_HIGH;
 456              		.loc 1 1472 0
 457 025c 0E97     		str	r7, [sp, #56]
1473:main.c        ****   GPIO_InitStruct.Alternate = GPIO_AF10_OTG_HS;
 458              		.loc 1 1473 0
 459 025e 0F96     		str	r6, [sp, #60]
1474:main.c        ****   HAL_GPIO_Init(GPIOA, &GPIO_InitStruct);
 460              		.loc 1 1474 0
 461 0260 0BA9     		add	r1, sp, #44
 462 0262 0D48     		ldr	r0, .L6+40
 463 0264 FFF7FEFF 		bl	HAL_GPIO_Init
 464              	.LVL22:
1475:main.c        **** 
1476:main.c        **** }
 465              		.loc 1 1476 0
ARM GAS  C:\Users\lenovo\AppData\Local\Temp\ccfgRfuq.s 			page 35


 466 0268 11B0     		add	sp, sp, #68
 467              	.LCFI2:
 468              		.cfi_def_cfa_offset 36
 469              		@ sp needed
 470 026a BDE8F08F 		pop	{r4, r5, r6, r7, r8, r9, r10, fp, pc}
 471              	.L7:
 472 026e 00BF     		.align	2
 473              	.L6:
 474 0270 00380240 		.word	1073887232
 475 0274 000C0240 		.word	1073875968
 476 0278 00200240 		.word	1073881088
 477 027c 00280240 		.word	1073883136
 478 0280 001C0240 		.word	1073880064
 479 0284 00180240 		.word	1073879040
 480 0288 00100240 		.word	1073876992
 481 028c 00040240 		.word	1073873920
 482 0290 00240240 		.word	1073882112
 483 0294 00080240 		.word	1073874944
 484 0298 00000240 		.word	1073872896
 485 029c 00001210 		.word	269615104
 486              		.cfi_endproc
 487              	.LFE210:
 489              		.section	.text.lcd_start,"ax",%progbits
 490              		.align	1
 491              		.syntax unified
 492              		.thumb
 493              		.thumb_func
 494              		.fpu fpv5-sp-d16
 496              	lcd_start:
 497              	.LFB184:
 219:main.c        ****   /* LCD Initialization */ 
 498              		.loc 1 219 0
 499              		.cfi_startproc
 500              		@ args = 0, pretend = 0, frame = 0
 501              		@ frame_needed = 0, uses_anonymous_args = 0
 502 0000 08B5     		push	{r3, lr}
 503              	.LCFI3:
 504              		.cfi_def_cfa_offset 8
 505              		.cfi_offset 3, -8
 506              		.cfi_offset 14, -4
 221:main.c        **** 
 507              		.loc 1 221 0
 508 0002 FFF7FEFF 		bl	BSP_LCD_Init
 509              	.LVL23:
 224:main.c        ****   //BSP_LCD_LayerDefaultInit(1, (unsigned int)lcd_image_bg+(LCD_X_SIZE*LCD_Y_SIZE*4));
 510              		.loc 1 224 0
 511 0006 1749     		ldr	r1, .L10
 512 0008 0020     		movs	r0, #0
 513 000a FFF7FEFF 		bl	BSP_LCD_LayerDefaultInit
 514              	.LVL24:
 226:main.c        **** 
 515              		.loc 1 226 0
 516 000e 1649     		ldr	r1, .L10+4
 517 0010 0120     		movs	r0, #1
 518 0012 FFF7FEFF 		bl	BSP_LCD_LayerDefaultInit
 519              	.LVL25:
 229:main.c        ****   
ARM GAS  C:\Users\lenovo\AppData\Local\Temp\ccfgRfuq.s 			page 36


 520              		.loc 1 229 0
 521 0016 FFF7FEFF 		bl	BSP_LCD_DisplayOn
 522              	.LVL26:
 232:main.c        **** 
 523              		.loc 1 232 0
 524 001a 0020     		movs	r0, #0
 525 001c FFF7FEFF 		bl	BSP_LCD_SelectLayer
 526              	.LVL27:
 235:main.c        ****   BSP_LCD_SetBackColor(LCD_COLOR_WHITE);
 527              		.loc 1 235 0
 528 0020 4FF0FF30 		mov	r0, #-1
 529 0024 FFF7FEFF 		bl	BSP_LCD_Clear
 530              	.LVL28:
 236:main.c        ****   
 531              		.loc 1 236 0
 532 0028 4FF0FF30 		mov	r0, #-1
 533 002c FFF7FEFF 		bl	BSP_LCD_SetBackColor
 534              	.LVL29:
 238:main.c        ****   
 535              		.loc 1 238 0
 536 0030 4FF0FF31 		mov	r1, #-1
 537 0034 0120     		movs	r0, #1
 538 0036 FFF7FEFF 		bl	BSP_LCD_SetColorKeying
 539              	.LVL30:
 241:main.c        **** 
 540              		.loc 1 241 0
 541 003a 0120     		movs	r0, #1
 542 003c FFF7FEFF 		bl	BSP_LCD_SelectLayer
 543              	.LVL31:
 244:main.c        ****   BSP_LCD_SetBackColor(LCD_COLOR_WHITE);
 544              		.loc 1 244 0
 545 0040 4FF0FF30 		mov	r0, #-1
 546 0044 FFF7FEFF 		bl	BSP_LCD_Clear
 547              	.LVL32:
 245:main.c        ****   
 548              		.loc 1 245 0
 549 0048 4FF0FF30 		mov	r0, #-1
 550 004c FFF7FEFF 		bl	BSP_LCD_SetBackColor
 551              	.LVL33:
 249:main.c        ****   BSP_LCD_SetTransparency(1, 255);
 552              		.loc 1 249 0
 553 0050 FF21     		movs	r1, #255
 554 0052 0020     		movs	r0, #0
 555 0054 FFF7FEFF 		bl	BSP_LCD_SetTransparency
 556              	.LVL34:
 250:main.c        **** }
 557              		.loc 1 250 0
 558 0058 FF21     		movs	r1, #255
 559 005a 0120     		movs	r0, #1
 560 005c FFF7FEFF 		bl	BSP_LCD_SetTransparency
 561              	.LVL35:
 562 0060 08BD     		pop	{r3, pc}
 563              	.L11:
 564 0062 00BF     		.align	2
 565              	.L10:
 566 0064 00000000 		.word	.LANCHOR0
 567 0068 00F80700 		.word	.LANCHOR1+960
ARM GAS  C:\Users\lenovo\AppData\Local\Temp\ccfgRfuq.s 			page 37


 568              		.cfi_endproc
 569              	.LFE184:
 571              		.section	.text.xprintfTable,"ax",%progbits
 572              		.align	1
 573              		.global	xprintfTable
 574              		.syntax unified
 575              		.thumb
 576              		.thumb_func
 577              		.fpu fpv5-sp-d16
 579              	xprintfTable:
 580              	.LFB157:
 581              		.file 2 "figures.c"
   1:figures.c     ****  #define X_SIZE 27
   2:figures.c     ****   #define Y_SIZE 27
   3:figures.c     ****  
   4:figures.c     ****  int table[X_SIZE][Y_SIZE] = {0};
   5:figures.c     ****  
   6:figures.c     ****  int delay = 100;
   7:figures.c     **** 
   8:figures.c     **** 
   9:figures.c     ****  void xprintfTable(){
 582              		.loc 2 9 0
 583              		.cfi_startproc
 584              		@ args = 0, pretend = 0, frame = 0
 585              		@ frame_needed = 0, uses_anonymous_args = 0
 586 0000 38B5     		push	{r3, r4, r5, lr}
 587              	.LCFI4:
 588              		.cfi_def_cfa_offset 16
 589              		.cfi_offset 3, -16
 590              		.cfi_offset 4, -12
 591              		.cfi_offset 5, -8
 592              		.cfi_offset 14, -4
 593              	.LVL36:
 594              	.LBB13:
  10:figures.c     **** 	for(int i = 0; i<X_SIZE; i++){
 595              		.loc 2 10 0
 596 0002 0025     		movs	r5, #0
 597 0004 13E0     		b	.L13
 598              	.LVL37:
 599              	.L14:
 600              	.LBB14:
  11:figures.c     **** 		for(int j = 0; j<Y_SIZE; j++){
 601              		.loc 2 11 0 discriminator 2
 602 0006 0134     		adds	r4, r4, #1
 603              	.LVL38:
 604              	.L16:
 605              		.loc 2 11 0 is_stmt 0 discriminator 1
 606 0008 1A2C     		cmp	r4, #26
 607 000a 0FDC     		bgt	.L19
  12:figures.c     **** 			if(table[i][j]) xprintf("Not 0: %d %d", i, j);
 608              		.loc 2 12 0 is_stmt 1
 609 000c 05EB4503 		add	r3, r5, r5, lsl #1
 610 0010 03EBC303 		add	r3, r3, r3, lsl #3
 611 0014 2344     		add	r3, r3, r4
 612 0016 084A     		ldr	r2, .L21
 613 0018 52F82330 		ldr	r3, [r2, r3, lsl #2]
 614 001c 002B     		cmp	r3, #0
ARM GAS  C:\Users\lenovo\AppData\Local\Temp\ccfgRfuq.s 			page 38


 615 001e F2D0     		beq	.L14
 616              		.loc 2 12 0 is_stmt 0 discriminator 1
 617 0020 2246     		mov	r2, r4
 618 0022 2946     		mov	r1, r5
 619 0024 0548     		ldr	r0, .L21+4
 620 0026 FFF7FEFF 		bl	xprintf
 621              	.LVL39:
 622 002a ECE7     		b	.L14
 623              	.L19:
 624              	.LBE14:
  10:figures.c     **** 	for(int i = 0; i<X_SIZE; i++){
 625              		.loc 2 10 0 is_stmt 1 discriminator 2
 626 002c 0135     		adds	r5, r5, #1
 627              	.LVL40:
 628              	.L13:
  10:figures.c     **** 	for(int i = 0; i<X_SIZE; i++){
 629              		.loc 2 10 0 is_stmt 0 discriminator 1
 630 002e 1A2D     		cmp	r5, #26
 631 0030 01DC     		bgt	.L20
 632 0032 0024     		movs	r4, #0
 633 0034 E8E7     		b	.L16
 634              	.L20:
 635              	.LBE13:
  13:figures.c     **** 			//xprintf("%d ", table[i][j]);
  14:figures.c     **** 		}
  15:figures.c     **** 	}
  16:figures.c     ****  }
 636              		.loc 2 16 0 is_stmt 1
 637 0036 38BD     		pop	{r3, r4, r5, pc}
 638              	.LVL41:
 639              	.L22:
 640              		.align	2
 641              	.L21:
 642 0038 00000000 		.word	.LANCHOR2
 643 003c 00000000 		.word	.LC4
 644              		.cfi_endproc
 645              	.LFE157:
 647              		.section	.text.clearTable,"ax",%progbits
 648              		.align	1
 649              		.global	clearTable
 650              		.syntax unified
 651              		.thumb
 652              		.thumb_func
 653              		.fpu fpv5-sp-d16
 655              	clearTable:
 656              	.LFB158:
  17:figures.c     ****  
  18:figures.c     ****  void clearTable(){
 657              		.loc 2 18 0
 658              		.cfi_startproc
 659              		@ args = 0, pretend = 0, frame = 0
 660              		@ frame_needed = 0, uses_anonymous_args = 0
 661              		@ link register save eliminated.
 662              	.LVL42:
 663              	.LBB15:
  19:figures.c     **** 	for(int i=0; i<X_SIZE; i++){
 664              		.loc 2 19 0
ARM GAS  C:\Users\lenovo\AppData\Local\Temp\ccfgRfuq.s 			page 39


 665 0000 0021     		movs	r1, #0
 666              	.LVL43:
 667              	.L29:
 668 0002 1A29     		cmp	r1, #26
 669 0004 19DC     		bgt	.L34
 670 0006 0022     		movs	r2, #0
 671              	.LVL44:
 672              	.LBB16:
  20:figures.c     **** 		for(int j=0; j<Y_SIZE; j++){
 673              		.loc 2 20 0
 674 0008 1A2A     		cmp	r2, #26
 675 000a 14DC     		bgt	.L35
 676              	.LBE16:
 677              	.LBE15:
  18:figures.c     **** 	for(int i=0; i<X_SIZE; i++){
 678              		.loc 2 18 0
 679 000c 10B4     		push	{r4}
 680              	.LCFI5:
 681              		.cfi_def_cfa_offset 4
 682              		.cfi_offset 4, -4
 683              	.L25:
 684              	.LBB18:
 685              	.LBB17:
  21:figures.c     **** 			table[i][j] = 0;
 686              		.loc 2 21 0 discriminator 3
 687 000e 01EB4103 		add	r3, r1, r1, lsl #1
 688 0012 03EBC303 		add	r3, r3, r3, lsl #3
 689 0016 1344     		add	r3, r3, r2
 690 0018 0024     		movs	r4, #0
 691 001a 0848     		ldr	r0, .L37
 692 001c 40F82340 		str	r4, [r0, r3, lsl #2]
  20:figures.c     **** 		for(int j=0; j<Y_SIZE; j++){
 693              		.loc 2 20 0 discriminator 3
 694 0020 0132     		adds	r2, r2, #1
 695              	.LVL45:
 696              	.L26:
  20:figures.c     **** 		for(int j=0; j<Y_SIZE; j++){
 697              		.loc 2 20 0 is_stmt 0 discriminator 1
 698 0022 1A2A     		cmp	r2, #26
 699 0024 F3DD     		ble	.L25
 700              	.LBE17:
  19:figures.c     **** 		for(int j=0; j<Y_SIZE; j++){
 701              		.loc 2 19 0 is_stmt 1 discriminator 2
 702 0026 0131     		adds	r1, r1, #1
 703              	.LVL46:
 704 0028 1A29     		cmp	r1, #26
 705 002a 01DC     		bgt	.L36
 706 002c 0022     		movs	r2, #0
 707              	.LVL47:
 708 002e F8E7     		b	.L26
 709              	.LVL48:
 710              	.L36:
 711              	.LBE18:
  22:figures.c     **** 		}
  23:figures.c     **** 	}
  24:figures.c     **** 
  25:figures.c     **** 
ARM GAS  C:\Users\lenovo\AppData\Local\Temp\ccfgRfuq.s 			page 40


  26:figures.c     ****   }
 712              		.loc 2 26 0
 713 0030 5DF8044B 		ldr	r4, [sp], #4
 714              	.LCFI6:
 715              		.cfi_restore 4
 716              		.cfi_def_cfa_offset 0
 717 0034 7047     		bx	lr
 718              	.L35:
 719              	.LBB19:
  19:figures.c     **** 		for(int j=0; j<Y_SIZE; j++){
 720              		.loc 2 19 0
 721 0036 0131     		adds	r1, r1, #1
 722              	.LVL49:
 723 0038 E3E7     		b	.L29
 724              	.LVL50:
 725              	.L34:
 726 003a 7047     		bx	lr
 727              	.L38:
 728              		.align	2
 729              	.L37:
 730 003c 00000000 		.word	.LANCHOR2
 731              	.LBE19:
 732              		.cfi_endproc
 733              	.LFE158:
 735              		.section	.text.setGameOfLife,"ax",%progbits
 736              		.align	1
 737              		.global	setGameOfLife
 738              		.syntax unified
 739              		.thumb
 740              		.thumb_func
 741              		.fpu fpv5-sp-d16
 743              	setGameOfLife:
 744              	.LFB159:
  27:figures.c     ****   
  28:figures.c     ****   void setGameOfLife(){
 745              		.loc 2 28 0
 746              		.cfi_startproc
 747              		@ args = 0, pretend = 0, frame = 0
 748              		@ frame_needed = 0, uses_anonymous_args = 0
 749 0000 08B5     		push	{r3, lr}
 750              	.LCFI7:
 751              		.cfi_def_cfa_offset 8
 752              		.cfi_offset 3, -8
 753              		.cfi_offset 14, -4
  29:figures.c     ****         clearTable();
 754              		.loc 2 29 0
 755 0002 FFF7FEFF 		bl	clearTable
 756              	.LVL51:
  30:figures.c     **** 		delay = 100;
 757              		.loc 2 30 0
 758 0006 6422     		movs	r2, #100
 759 0008 684B     		ldr	r3, .L41
 760 000a 1A60     		str	r2, [r3]
  31:figures.c     ****         table[4][6] = 1;
 761              		.loc 2 31 0
 762 000c 684B     		ldr	r3, .L41+4
 763 000e 0122     		movs	r2, #1
ARM GAS  C:\Users\lenovo\AppData\Local\Temp\ccfgRfuq.s 			page 41


 764 0010 C3F8C821 		str	r2, [r3, #456]
  32:figures.c     ****         table[4][7] = 1;
 765              		.loc 2 32 0
 766 0014 C3F8CC21 		str	r2, [r3, #460]
  33:figures.c     ****         table[4][8] = 1;
 767              		.loc 2 33 0
 768 0018 C3F8D021 		str	r2, [r3, #464]
  34:figures.c     ****         table[4][9] = 1;
 769              		.loc 2 34 0
 770 001c C3F8D421 		str	r2, [r3, #468]
  35:figures.c     ****         table[4][17] = 1;
 771              		.loc 2 35 0
 772 0020 C3F8F421 		str	r2, [r3, #500]
  36:figures.c     ****         table[4][18] = 1;
 773              		.loc 2 36 0
 774 0024 C3F8F821 		str	r2, [r3, #504]
  37:figures.c     ****         table[4][19] = 1;
 775              		.loc 2 37 0
 776 0028 C3F8FC21 		str	r2, [r3, #508]
  38:figures.c     ****         table[4][20] = 1;
 777              		.loc 2 38 0
 778 002c C3F80022 		str	r2, [r3, #512]
  39:figures.c     ****         table[4][21] = 1;
 779              		.loc 2 39 0
 780 0030 C3F80422 		str	r2, [r3, #516]
  40:figures.c     ****         table[5][5] = 1;
 781              		.loc 2 40 0
 782 0034 C3F83022 		str	r2, [r3, #560]
  41:figures.c     ****         table[5][9] = 1;
 783              		.loc 2 41 0
 784 0038 C3F84022 		str	r2, [r3, #576]
  42:figures.c     ****         table[5][21] = 1;
 785              		.loc 2 42 0
 786 003c C3F87022 		str	r2, [r3, #624]
  43:figures.c     ****         table[6][5] = 1;
 787              		.loc 2 43 0
 788 0040 C3F89C22 		str	r2, [r3, #668]
  44:figures.c     ****         table[6][9] = 1;
 789              		.loc 2 44 0
 790 0044 C3F8AC22 		str	r2, [r3, #684]
  45:figures.c     ****         table[6][21] = 1;
 791              		.loc 2 45 0
 792 0048 C3F8DC22 		str	r2, [r3, #732]
  46:figures.c     ****         table[7][5] = 1;
 793              		.loc 2 46 0
 794 004c C3F80823 		str	r2, [r3, #776]
  47:figures.c     ****         table[7][7] = 1;
 795              		.loc 2 47 0
 796 0050 C3F81023 		str	r2, [r3, #784]
  48:figures.c     ****         table[7][8] = 1;
 797              		.loc 2 48 0
 798 0054 C3F81423 		str	r2, [r3, #788]
  49:figures.c     ****         table[7][9] = 1;
 799              		.loc 2 49 0
 800 0058 C3F81823 		str	r2, [r3, #792]
  50:figures.c     ****         table[7][21] = 1;
 801              		.loc 2 50 0
ARM GAS  C:\Users\lenovo\AppData\Local\Temp\ccfgRfuq.s 			page 42


 802 005c C3F84823 		str	r2, [r3, #840]
  51:figures.c     ****         table[9][5] = 1;
 803              		.loc 2 51 0
 804 0060 C3F8E023 		str	r2, [r3, #992]
  52:figures.c     ****         table[9][6] = 1;
 805              		.loc 2 52 0
 806 0064 C3F8E423 		str	r2, [r3, #996]
  53:figures.c     ****         table[9][7] = 1;
 807              		.loc 2 53 0
 808 0068 C3F8E823 		str	r2, [r3, #1000]
  54:figures.c     ****         table[9][8] = 1;
 809              		.loc 2 54 0
 810 006c C3F8EC23 		str	r2, [r3, #1004]
  55:figures.c     ****         table[9][9] = 1;
 811              		.loc 2 55 0
 812 0070 C3F8F023 		str	r2, [r3, #1008]
  56:figures.c     ****         table[9][11] = 1;
 813              		.loc 2 56 0
 814 0074 C3F8F823 		str	r2, [r3, #1016]
  57:figures.c     ****         table[9][12] = 1;
 815              		.loc 2 57 0
 816 0078 C3F8FC23 		str	r2, [r3, #1020]
  58:figures.c     ****         table[9][13] = 1;
 817              		.loc 2 58 0
 818 007c C3F80024 		str	r2, [r3, #1024]
  59:figures.c     ****         table[9][14] = 1;
 819              		.loc 2 59 0
 820 0080 C3F80424 		str	r2, [r3, #1028]
  60:figures.c     ****         table[9][15] = 1;
 821              		.loc 2 60 0
 822 0084 C3F80824 		str	r2, [r3, #1032]
  61:figures.c     ****         table[10][5] = 1;
 823              		.loc 2 61 0
 824 0088 C3F84C24 		str	r2, [r3, #1100]
  62:figures.c     ****         table[10][7] = 1;
 825              		.loc 2 62 0
 826 008c C3F85424 		str	r2, [r3, #1108]
  63:figures.c     ****         table[10][11] = 1;
 827              		.loc 2 63 0
 828 0090 C3F86424 		str	r2, [r3, #1124]
  64:figures.c     ****         table[10][15] = 1;
 829              		.loc 2 64 0
 830 0094 C3F87424 		str	r2, [r3, #1140]
  65:figures.c     ****         table[10][17] = 1;
 831              		.loc 2 65 0
 832 0098 C3F87C24 		str	r2, [r3, #1148]
  66:figures.c     ****         table[10][18] = 1;
 833              		.loc 2 66 0
 834 009c C3F88024 		str	r2, [r3, #1152]
  67:figures.c     ****         table[10][19] = 1;
 835              		.loc 2 67 0
 836 00a0 C3F88424 		str	r2, [r3, #1156]
  68:figures.c     ****         table[10][20] = 1;
 837              		.loc 2 68 0
 838 00a4 C3F88824 		str	r2, [r3, #1160]
  69:figures.c     ****         table[10][21] = 1;
 839              		.loc 2 69 0
ARM GAS  C:\Users\lenovo\AppData\Local\Temp\ccfgRfuq.s 			page 43


 840 00a8 C3F88C24 		str	r2, [r3, #1164]
  70:figures.c     ****         table[11][5] = 1;
 841              		.loc 2 70 0
 842 00ac C3F8B824 		str	r2, [r3, #1208]
  71:figures.c     ****         table[11][6] = 1;
 843              		.loc 2 71 0
 844 00b0 C3F8BC24 		str	r2, [r3, #1212]
  72:figures.c     ****         table[11][7] = 1;
 845              		.loc 2 72 0
 846 00b4 C3F8C024 		str	r2, [r3, #1216]
  73:figures.c     ****         table[11][8] = 1;
 847              		.loc 2 73 0
 848 00b8 C3F8C424 		str	r2, [r3, #1220]
  74:figures.c     ****         table[11][9] = 1;
 849              		.loc 2 74 0
 850 00bc C3F8C824 		str	r2, [r3, #1224]
  75:figures.c     ****         table[11][11] = 1;
 851              		.loc 2 75 0
 852 00c0 C3F8D024 		str	r2, [r3, #1232]
  76:figures.c     ****         table[11][12] = 1;
 853              		.loc 2 76 0
 854 00c4 C3F8D424 		str	r2, [r3, #1236]
  77:figures.c     ****         table[11][13] = 1;
 855              		.loc 2 77 0
 856 00c8 C3F8D824 		str	r2, [r3, #1240]
  78:figures.c     ****         table[11][14] = 1;
 857              		.loc 2 78 0
 858 00cc C3F8DC24 		str	r2, [r3, #1244]
  79:figures.c     ****         table[11][15] = 1;
 859              		.loc 2 79 0
 860 00d0 C3F8E024 		str	r2, [r3, #1248]
  80:figures.c     ****         table[13][5] = 1;
 861              		.loc 2 80 0
 862 00d4 C3F89025 		str	r2, [r3, #1424]
  81:figures.c     ****         table[13][6] = 1;
 863              		.loc 2 81 0
 864 00d8 C3F89425 		str	r2, [r3, #1428]
  82:figures.c     ****         table[13][7] = 1;
 865              		.loc 2 82 0
 866 00dc C3F89825 		str	r2, [r3, #1432]
  83:figures.c     ****         table[13][8] = 1;
 867              		.loc 2 83 0
 868 00e0 C3F89C25 		str	r2, [r3, #1436]
  84:figures.c     ****         table[13][9] = 1;
 869              		.loc 2 84 0
 870 00e4 C3F8A025 		str	r2, [r3, #1440]
  85:figures.c     ****         table[13][11] = 1;
 871              		.loc 2 85 0
 872 00e8 C3F8A825 		str	r2, [r3, #1448]
  86:figures.c     ****         table[13][12] = 1;
 873              		.loc 2 86 0
 874 00ec C3F8AC25 		str	r2, [r3, #1452]
  87:figures.c     ****         table[13][13] = 1;
 875              		.loc 2 87 0
 876 00f0 C3F8B025 		str	r2, [r3, #1456]
  88:figures.c     ****         table[13][14] = 1;
 877              		.loc 2 88 0
ARM GAS  C:\Users\lenovo\AppData\Local\Temp\ccfgRfuq.s 			page 44


 878 00f4 C3F8B425 		str	r2, [r3, #1460]
  89:figures.c     ****         table[13][15] = 1;
 879              		.loc 2 89 0
 880 00f8 C3F8B825 		str	r2, [r3, #1464]
  90:figures.c     ****         table[13][17] = 1;
 881              		.loc 2 90 0
 882 00fc C3F8C025 		str	r2, [r3, #1472]
  91:figures.c     ****         table[13][18] = 1;
 883              		.loc 2 91 0
 884 0100 C3F8C425 		str	r2, [r3, #1476]
  92:figures.c     ****         table[13][19] = 1;
 885              		.loc 2 92 0
 886 0104 C3F8C825 		str	r2, [r3, #1480]
  93:figures.c     ****         table[13][20] = 1;
 887              		.loc 2 93 0
 888 0108 C3F8CC25 		str	r2, [r3, #1484]
  94:figures.c     ****         table[13][21] = 1;
 889              		.loc 2 94 0
 890 010c C3F8D025 		str	r2, [r3, #1488]
  95:figures.c     ****         table[14][5] = 1;
 891              		.loc 2 95 0
 892 0110 C3F8FC25 		str	r2, [r3, #1532]
  96:figures.c     ****         table[14][11] = 1;
 893              		.loc 2 96 0
 894 0114 C3F81426 		str	r2, [r3, #1556]
  97:figures.c     ****         table[14][13] = 1;
 895              		.loc 2 97 0
 896 0118 C3F81C26 		str	r2, [r3, #1564]
  98:figures.c     ****         table[14][17] = 1;
 897              		.loc 2 98 0
 898 011c C3F82C26 		str	r2, [r3, #1580]
  99:figures.c     ****         table[14][19] = 1;
 899              		.loc 2 99 0
 900 0120 C3F83426 		str	r2, [r3, #1588]
 100:figures.c     ****         table[15][6] = 1;
 901              		.loc 2 100 0
 902 0124 C3F86C26 		str	r2, [r3, #1644]
 101:figures.c     ****         table[15][11] = 1;
 903              		.loc 2 101 0
 904 0128 C3F88026 		str	r2, [r3, #1664]
 102:figures.c     ****         table[15][13] = 1;
 905              		.loc 2 102 0
 906 012c C3F88826 		str	r2, [r3, #1672]
 103:figures.c     ****         table[15][17] = 1;
 907              		.loc 2 103 0
 908 0130 C3F89826 		str	r2, [r3, #1688]
 104:figures.c     ****         table[15][19] = 1;
 909              		.loc 2 104 0
 910 0134 C3F8A026 		str	r2, [r3, #1696]
 105:figures.c     ****         table[16][5] = 1;
 911              		.loc 2 105 0
 912 0138 C3F8D426 		str	r2, [r3, #1748]
 106:figures.c     ****         table[17][5] = 1;
 913              		.loc 2 106 0
 914 013c C3F84027 		str	r2, [r3, #1856]
 107:figures.c     ****         table[17][6] = 1;
 915              		.loc 2 107 0
ARM GAS  C:\Users\lenovo\AppData\Local\Temp\ccfgRfuq.s 			page 45


 916 0140 C3F84427 		str	r2, [r3, #1860]
 108:figures.c     ****         table[17][7] = 1;
 917              		.loc 2 108 0
 918 0144 C3F84827 		str	r2, [r3, #1864]
 109:figures.c     ****         table[17][8] = 1;
 919              		.loc 2 109 0
 920 0148 C3F84C27 		str	r2, [r3, #1868]
 110:figures.c     ****         table[17][9] = 1;
 921              		.loc 2 110 0
 922 014c C3F85027 		str	r2, [r3, #1872]
 111:figures.c     ****         table[19][5] = 1;
 923              		.loc 2 111 0
 924 0150 C3F81828 		str	r2, [r3, #2072]
 112:figures.c     ****         table[19][6] = 1;
 925              		.loc 2 112 0
 926 0154 C3F81C28 		str	r2, [r3, #2076]
 113:figures.c     ****         table[19][7] = 1;
 927              		.loc 2 113 0
 928 0158 C3F82028 		str	r2, [r3, #2080]
 114:figures.c     ****         table[19][8] = 1;
 929              		.loc 2 114 0
 930 015c C3F82428 		str	r2, [r3, #2084]
 115:figures.c     ****         table[19][9] = 1;
 931              		.loc 2 115 0
 932 0160 C3F82828 		str	r2, [r3, #2088]
 116:figures.c     ****         table[19][17] = 1;
 933              		.loc 2 116 0
 934 0164 C3F84828 		str	r2, [r3, #2120]
 117:figures.c     ****         table[19][18] = 1;
 935              		.loc 2 117 0
 936 0168 C3F84C28 		str	r2, [r3, #2124]
 118:figures.c     ****         table[19][19] = 1;
 937              		.loc 2 118 0
 938 016c C3F85028 		str	r2, [r3, #2128]
 119:figures.c     ****         table[19][20] = 1;
 939              		.loc 2 119 0
 940 0170 C3F85428 		str	r2, [r3, #2132]
 120:figures.c     ****         table[19][21] = 1;
 941              		.loc 2 120 0
 942 0174 C3F85828 		str	r2, [r3, #2136]
 121:figures.c     ****         table[20][5] = 1;
 943              		.loc 2 121 0
 944 0178 C3F88428 		str	r2, [r3, #2180]
 122:figures.c     ****         table[20][7] = 1;
 945              		.loc 2 122 0
 946 017c C3F88C28 		str	r2, [r3, #2188]
 123:figures.c     ****         table[20][9] = 1;
 947              		.loc 2 123 0
 948 0180 C3F89428 		str	r2, [r3, #2196]
 124:figures.c     ****         table[20][17] = 1;
 949              		.loc 2 124 0
 950 0184 C3F8B428 		str	r2, [r3, #2228]
 125:figures.c     ****         table[20][19] = 1;
 951              		.loc 2 125 0
 952 0188 C3F8BC28 		str	r2, [r3, #2236]
 126:figures.c     ****         table[20][21] = 1;
 953              		.loc 2 126 0
ARM GAS  C:\Users\lenovo\AppData\Local\Temp\ccfgRfuq.s 			page 46


 954 018c C3F8C428 		str	r2, [r3, #2244]
 127:figures.c     ****         table[21][5] = 1;
 955              		.loc 2 127 0
 956 0190 C3F8F028 		str	r2, [r3, #2288]
 128:figures.c     ****         table[21][7] = 1;
 957              		.loc 2 128 0
 958 0194 C3F8F828 		str	r2, [r3, #2296]
 129:figures.c     ****         table[21][9] = 1;
 959              		.loc 2 129 0
 960 0198 C3F80029 		str	r2, [r3, #2304]
 130:figures.c     ****         table[21][17] = 1;
 961              		.loc 2 130 0
 962 019c C3F82029 		str	r2, [r3, #2336]
 131:figures.c     ****         table[21][19] = 1;
 963              		.loc 2 131 0
 964 01a0 C3F82829 		str	r2, [r3, #2344]
 132:figures.c     ****         table[21][21] = 1;
 965              		.loc 2 132 0
 966 01a4 C3F83029 		str	r2, [r3, #2352]
 967 01a8 08BD     		pop	{r3, pc}
 968              	.L42:
 969 01aa 00BF     		.align	2
 970              	.L41:
 971 01ac 00000000 		.word	.LANCHOR3
 972 01b0 00000000 		.word	.LANCHOR2
 973              		.cfi_endproc
 974              	.LFE159:
 976              		.section	.text.setEvolution,"ax",%progbits
 977              		.align	1
 978              		.global	setEvolution
 979              		.syntax unified
 980              		.thumb
 981              		.thumb_func
 982              		.fpu fpv5-sp-d16
 984              	setEvolution:
 985              	.LFB160:
 133:figures.c     **** }
 134:figures.c     **** 
 135:figures.c     **** void setEvolution(){
 986              		.loc 2 135 0
 987              		.cfi_startproc
 988              		@ args = 0, pretend = 0, frame = 0
 989              		@ frame_needed = 0, uses_anonymous_args = 0
 990 0000 08B5     		push	{r3, lr}
 991              	.LCFI8:
 992              		.cfi_def_cfa_offset 8
 993              		.cfi_offset 3, -8
 994              		.cfi_offset 14, -4
 136:figures.c     ****         clearTable();
 995              		.loc 2 136 0
 996 0002 FFF7FEFF 		bl	clearTable
 997              	.LVL52:
 137:figures.c     **** 		delay = 300;
 998              		.loc 2 137 0
 999 0006 4FF49672 		mov	r2, #300
 1000 000a 0A4B     		ldr	r3, .L45
 1001 000c 1A60     		str	r2, [r3]
ARM GAS  C:\Users\lenovo\AppData\Local\Temp\ccfgRfuq.s 			page 47


 138:figures.c     ****         table[10][10] = 1;
 1002              		.loc 2 138 0
 1003 000e 0A4B     		ldr	r3, .L45+4
 1004 0010 0122     		movs	r2, #1
 1005 0012 C3F86024 		str	r2, [r3, #1120]
 139:figures.c     ****         table[10][11] = 1;
 1006              		.loc 2 139 0
 1007 0016 C3F86424 		str	r2, [r3, #1124]
 140:figures.c     ****         table[10][12] = 1;
 1008              		.loc 2 140 0
 1009 001a C3F86824 		str	r2, [r3, #1128]
 141:figures.c     ****         table[11][10] = 1;
 1010              		.loc 2 141 0
 1011 001e C3F8CC24 		str	r2, [r3, #1228]
 142:figures.c     ****         table[11][12] = 1;
 1012              		.loc 2 142 0
 1013 0022 C3F8D424 		str	r2, [r3, #1236]
 143:figures.c     ****         table[12][10] = 1;
 1014              		.loc 2 143 0
 1015 0026 C3F83825 		str	r2, [r3, #1336]
 144:figures.c     ****         table[12][11] = 1;
 1016              		.loc 2 144 0
 1017 002a C3F83C25 		str	r2, [r3, #1340]
 145:figures.c     ****         table[12][12] = 1;
 1018              		.loc 2 145 0
 1019 002e C3F84025 		str	r2, [r3, #1344]
 1020 0032 08BD     		pop	{r3, pc}
 1021              	.L46:
 1022              		.align	2
 1023              	.L45:
 1024 0034 00000000 		.word	.LANCHOR3
 1025 0038 00000000 		.word	.LANCHOR2
 1026              		.cfi_endproc
 1027              	.LFE160:
 1029              		.section	.text.setDiamond,"ax",%progbits
 1030              		.align	1
 1031              		.global	setDiamond
 1032              		.syntax unified
 1033              		.thumb
 1034              		.thumb_func
 1035              		.fpu fpv5-sp-d16
 1037              	setDiamond:
 1038              	.LFB161:
 146:figures.c     **** }
 147:figures.c     **** 
 148:figures.c     **** void setDiamond(){
 1039              		.loc 2 148 0
 1040              		.cfi_startproc
 1041              		@ args = 0, pretend = 0, frame = 0
 1042              		@ frame_needed = 0, uses_anonymous_args = 0
 1043 0000 08B5     		push	{r3, lr}
 1044              	.LCFI9:
 1045              		.cfi_def_cfa_offset 8
 1046              		.cfi_offset 3, -8
 1047              		.cfi_offset 14, -4
 149:figures.c     ****         clearTable();
 1048              		.loc 2 149 0
ARM GAS  C:\Users\lenovo\AppData\Local\Temp\ccfgRfuq.s 			page 48


 1049 0002 FFF7FEFF 		bl	clearTable
 1050              	.LVL53:
 150:figures.c     ****         table[10][11] = 1;
 1051              		.loc 2 150 0
 1052 0006 114B     		ldr	r3, .L49
 1053 0008 0122     		movs	r2, #1
 1054 000a C3F86424 		str	r2, [r3, #1124]
 151:figures.c     ****         table[10][12] = 1;
 1055              		.loc 2 151 0
 1056 000e C3F86824 		str	r2, [r3, #1128]
 152:figures.c     ****         table[11][10] = 1;
 1057              		.loc 2 152 0
 1058 0012 C3F8CC24 		str	r2, [r3, #1228]
 153:figures.c     ****         table[11][13] = 1;
 1059              		.loc 2 153 0
 1060 0016 C3F8D824 		str	r2, [r3, #1240]
 154:figures.c     ****         table[12][9] = 1;
 1061              		.loc 2 154 0
 1062 001a C3F83425 		str	r2, [r3, #1332]
 155:figures.c     ****         table[12][14] = 1;
 1063              		.loc 2 155 0
 1064 001e C3F84825 		str	r2, [r3, #1352]
 156:figures.c     ****         table[13][8] = 1;
 1065              		.loc 2 156 0
 1066 0022 C3F89C25 		str	r2, [r3, #1436]
 157:figures.c     ****         table[13][15] = 1;
 1067              		.loc 2 157 0
 1068 0026 C3F8B825 		str	r2, [r3, #1464]
 158:figures.c     ****         table[14][8] = 1;
 1069              		.loc 2 158 0
 1070 002a C3F80826 		str	r2, [r3, #1544]
 159:figures.c     ****         table[14][15] = 1;
 1071              		.loc 2 159 0
 1072 002e C3F82426 		str	r2, [r3, #1572]
 160:figures.c     ****         table[15][9] = 1;
 1073              		.loc 2 160 0
 1074 0032 C3F87826 		str	r2, [r3, #1656]
 161:figures.c     ****         table[15][14] = 1;
 1075              		.loc 2 161 0
 1076 0036 C3F88C26 		str	r2, [r3, #1676]
 162:figures.c     ****         table[16][10] = 1;
 1077              		.loc 2 162 0
 1078 003a C3F8E826 		str	r2, [r3, #1768]
 163:figures.c     ****         table[16][13] = 1;
 1079              		.loc 2 163 0
 1080 003e C3F8F426 		str	r2, [r3, #1780]
 164:figures.c     ****         table[17][11] = 1;
 1081              		.loc 2 164 0
 1082 0042 C3F85827 		str	r2, [r3, #1880]
 165:figures.c     ****         table[17][12] = 1;
 1083              		.loc 2 165 0
 1084 0046 C3F85C27 		str	r2, [r3, #1884]
 1085 004a 08BD     		pop	{r3, pc}
 1086              	.L50:
 1087              		.align	2
 1088              	.L49:
 1089 004c 00000000 		.word	.LANCHOR2
ARM GAS  C:\Users\lenovo\AppData\Local\Temp\ccfgRfuq.s 			page 49


 1090              		.cfi_endproc
 1091              	.LFE161:
 1093              		.section	.text.setQueenBee,"ax",%progbits
 1094              		.align	1
 1095              		.global	setQueenBee
 1096              		.syntax unified
 1097              		.thumb
 1098              		.thumb_func
 1099              		.fpu fpv5-sp-d16
 1101              	setQueenBee:
 1102              	.LFB162:
 166:figures.c     **** }
 167:figures.c     **** 
 168:figures.c     **** void setQueenBee(){
 1103              		.loc 2 168 0
 1104              		.cfi_startproc
 1105              		@ args = 0, pretend = 0, frame = 0
 1106              		@ frame_needed = 0, uses_anonymous_args = 0
 1107 0000 08B5     		push	{r3, lr}
 1108              	.LCFI10:
 1109              		.cfi_def_cfa_offset 8
 1110              		.cfi_offset 3, -8
 1111              		.cfi_offset 14, -4
 169:figures.c     **** 		delay = 100;
 1112              		.loc 2 169 0
 1113 0002 6422     		movs	r2, #100
 1114 0004 174B     		ldr	r3, .L53
 1115 0006 1A60     		str	r2, [r3]
 170:figures.c     ****         clearTable();
 1116              		.loc 2 170 0
 1117 0008 FFF7FEFF 		bl	clearTable
 1118              	.LVL54:
 171:figures.c     ****         table[10][10] = 1;
 1119              		.loc 2 171 0
 1120 000c 164B     		ldr	r3, .L53+4
 1121 000e 0122     		movs	r2, #1
 1122 0010 C3F86024 		str	r2, [r3, #1120]
 172:figures.c     ****         table[11][8] = 1;
 1123              		.loc 2 172 0
 1124 0014 C3F8C424 		str	r2, [r3, #1220]
 173:figures.c     ****         table[11][10] = 1;
 1125              		.loc 2 173 0
 1126 0018 C3F8CC24 		str	r2, [r3, #1228]
 174:figures.c     ****         table[12][7] = 1;
 1127              		.loc 2 174 0
 1128 001c C3F82C25 		str	r2, [r3, #1324]
 175:figures.c     ****         table[12][9] = 1;
 1129              		.loc 2 175 0
 1130 0020 C3F83425 		str	r2, [r3, #1332]
 176:figures.c     ****         table[13][1] = 1;
 1131              		.loc 2 176 0
 1132 0024 C3F88025 		str	r2, [r3, #1408]
 177:figures.c     ****         table[13][2] = 1;
 1133              		.loc 2 177 0
 1134 0028 C3F88425 		str	r2, [r3, #1412]
 178:figures.c     ****         table[13][6] = 1;
 1135              		.loc 2 178 0
ARM GAS  C:\Users\lenovo\AppData\Local\Temp\ccfgRfuq.s 			page 50


 1136 002c C3F89425 		str	r2, [r3, #1428]
 179:figures.c     ****         table[13][9] = 1;
 1137              		.loc 2 179 0
 1138 0030 C3F8A025 		str	r2, [r3, #1440]
 180:figures.c     ****         table[13][21] = 1;
 1139              		.loc 2 180 0
 1140 0034 C3F8D025 		str	r2, [r3, #1488]
 181:figures.c     ****         table[13][22] = 1;
 1141              		.loc 2 181 0
 1142 0038 C3F8D425 		str	r2, [r3, #1492]
 182:figures.c     ****         table[14][1] = 1;
 1143              		.loc 2 182 0
 1144 003c C3F8EC25 		str	r2, [r3, #1516]
 183:figures.c     ****         table[14][2] = 1;
 1145              		.loc 2 183 0
 1146 0040 C3F8F025 		str	r2, [r3, #1520]
 184:figures.c     ****         table[14][7] = 1;
 1147              		.loc 2 184 0
 1148 0044 C3F80426 		str	r2, [r3, #1540]
 185:figures.c     ****         table[14][9] = 1;
 1149              		.loc 2 185 0
 1150 0048 C3F80C26 		str	r2, [r3, #1548]
 186:figures.c     ****         table[14][21] = 1;
 1151              		.loc 2 186 0
 1152 004c C3F83C26 		str	r2, [r3, #1596]
 187:figures.c     ****         table[14][22] = 1;
 1153              		.loc 2 187 0
 1154 0050 C3F84026 		str	r2, [r3, #1600]
 188:figures.c     ****         table[15][8] = 1;
 1155              		.loc 2 188 0
 1156 0054 C3F87426 		str	r2, [r3, #1652]
 189:figures.c     ****         table[15][10] = 1;
 1157              		.loc 2 189 0
 1158 0058 C3F87C26 		str	r2, [r3, #1660]
 190:figures.c     ****         table[16][10] = 1;
 1159              		.loc 2 190 0
 1160 005c C3F8E826 		str	r2, [r3, #1768]
 1161 0060 08BD     		pop	{r3, pc}
 1162              	.L54:
 1163 0062 00BF     		.align	2
 1164              	.L53:
 1165 0064 00000000 		.word	.LANCHOR3
 1166 0068 00000000 		.word	.LANCHOR2
 1167              		.cfi_endproc
 1168              	.LFE162:
 1170              		.section	.text.setHertzOscillator,"ax",%progbits
 1171              		.align	1
 1172              		.global	setHertzOscillator
 1173              		.syntax unified
 1174              		.thumb
 1175              		.thumb_func
 1176              		.fpu fpv5-sp-d16
 1178              	setHertzOscillator:
 1179              	.LFB163:
 191:figures.c     **** }
 192:figures.c     **** 
 193:figures.c     **** void setHertzOscillator(){
ARM GAS  C:\Users\lenovo\AppData\Local\Temp\ccfgRfuq.s 			page 51


 1180              		.loc 2 193 0
 1181              		.cfi_startproc
 1182              		@ args = 0, pretend = 0, frame = 0
 1183              		@ frame_needed = 0, uses_anonymous_args = 0
 1184 0000 08B5     		push	{r3, lr}
 1185              	.LCFI11:
 1186              		.cfi_def_cfa_offset 8
 1187              		.cfi_offset 3, -8
 1188              		.cfi_offset 14, -4
 194:figures.c     **** 		delay = 800;
 1189              		.loc 2 194 0
 1190 0002 4FF44872 		mov	r2, #800
 1191 0006 264B     		ldr	r3, .L57
 1192 0008 1A60     		str	r2, [r3]
 195:figures.c     ****         clearTable();
 1193              		.loc 2 195 0
 1194 000a FFF7FEFF 		bl	clearTable
 1195              	.LVL55:
 196:figures.c     ****         table[5][11] = 1;
 1196              		.loc 2 196 0
 1197 000e 254B     		ldr	r3, .L57+4
 1198 0010 0122     		movs	r2, #1
 1199 0012 C3F84822 		str	r2, [r3, #584]
 197:figures.c     ****         table[5][12] = 1;
 1200              		.loc 2 197 0
 1201 0016 C3F84C22 		str	r2, [r3, #588]
 198:figures.c     ****         table[5][14] = 1;
 1202              		.loc 2 198 0
 1203 001a C3F85422 		str	r2, [r3, #596]
 199:figures.c     ****         table[6][11] = 1;
 1204              		.loc 2 199 0
 1205 001e C3F8B422 		str	r2, [r3, #692]
 200:figures.c     ****         table[6][13] = 1;
 1206              		.loc 2 200 0
 1207 0022 C3F8BC22 		str	r2, [r3, #700]
 201:figures.c     ****         table[6][14] = 1;
 1208              		.loc 2 201 0
 1209 0026 C3F8C022 		str	r2, [r3, #704]
 202:figures.c     ****         table[8][12] = 1;
 1210              		.loc 2 202 0
 1211 002a C3F89023 		str	r2, [r3, #912]
 203:figures.c     ****         table[8][13] = 1;
 1212              		.loc 2 203 0
 1213 002e C3F89423 		str	r2, [r3, #916]
 204:figures.c     ****         table[8][14] = 1;
 1214              		.loc 2 204 0
 1215 0032 C3F89823 		str	r2, [r3, #920]
 205:figures.c     ****         table[9][11] = 1;
 1216              		.loc 2 205 0
 1217 0036 C3F8F823 		str	r2, [r3, #1016]
 206:figures.c     ****         table[9][13] = 1;
 1218              		.loc 2 206 0
 1219 003a C3F80024 		str	r2, [r3, #1024]
 207:figures.c     ****         table[9][15] = 1;
 1220              		.loc 2 207 0
 1221 003e C3F80824 		str	r2, [r3, #1032]
 208:figures.c     ****         table[9][17] = 1;
ARM GAS  C:\Users\lenovo\AppData\Local\Temp\ccfgRfuq.s 			page 52


 1222              		.loc 2 208 0
 1223 0042 C3F81024 		str	r2, [r3, #1040]
 209:figures.c     ****         table[9][18] = 1;
 1224              		.loc 2 209 0
 1225 0046 C3F81424 		str	r2, [r3, #1044]
 210:figures.c     ****         table[10][11] = 1;
 1226              		.loc 2 210 0
 1227 004a C3F86424 		str	r2, [r3, #1124]
 211:figures.c     ****         table[10][15] = 1;
 1228              		.loc 2 211 0
 1229 004e C3F87424 		str	r2, [r3, #1140]
 212:figures.c     ****         table[10][17] = 1;
 1230              		.loc 2 212 0
 1231 0052 C3F87C24 		str	r2, [r3, #1148]
 213:figures.c     ****         table[10][18] = 1;
 1232              		.loc 2 213 0
 1233 0056 C3F88024 		str	r2, [r3, #1152]
 214:figures.c     ****         table[11][8] = 1;
 1234              		.loc 2 214 0
 1235 005a C3F8C424 		str	r2, [r3, #1220]
 215:figures.c     ****         table[11][9] = 1;
 1236              		.loc 2 215 0
 1237 005e C3F8C824 		str	r2, [r3, #1224]
 216:figures.c     ****         table[11][11] = 1;
 1238              		.loc 2 216 0
 1239 0062 C3F8D024 		str	r2, [r3, #1232]
 217:figures.c     ****         table[11][15] = 1;
 1240              		.loc 2 217 0
 1241 0066 C3F8E024 		str	r2, [r3, #1248]
 218:figures.c     ****         table[12][8] = 1;
 1242              		.loc 2 218 0
 1243 006a C3F83025 		str	r2, [r3, #1328]
 219:figures.c     ****         table[12][9] = 1;
 1244              		.loc 2 219 0
 1245 006e C3F83425 		str	r2, [r3, #1332]
 220:figures.c     ****         table[12][11] = 1;
 1246              		.loc 2 220 0
 1247 0072 C3F83C25 		str	r2, [r3, #1340]
 221:figures.c     ****         table[12][15] = 1;
 1248              		.loc 2 221 0
 1249 0076 C3F84C25 		str	r2, [r3, #1356]
 222:figures.c     ****         table[13][12] = 1;
 1250              		.loc 2 222 0
 1251 007a C3F8AC25 		str	r2, [r3, #1452]
 223:figures.c     ****         table[13][13] = 1;
 1252              		.loc 2 223 0
 1253 007e C3F8B025 		str	r2, [r3, #1456]
 224:figures.c     ****         table[13][14] = 1;
 1254              		.loc 2 224 0
 1255 0082 C3F8B425 		str	r2, [r3, #1460]
 225:figures.c     ****         table[15][12] = 1;
 1256              		.loc 2 225 0
 1257 0086 C3F88426 		str	r2, [r3, #1668]
 226:figures.c     ****         table[15][13] = 1;
 1258              		.loc 2 226 0
 1259 008a C3F88826 		str	r2, [r3, #1672]
 227:figures.c     ****         table[15][15] = 1;
ARM GAS  C:\Users\lenovo\AppData\Local\Temp\ccfgRfuq.s 			page 53


 1260              		.loc 2 227 0
 1261 008e C3F89026 		str	r2, [r3, #1680]
 228:figures.c     ****         table[16][12] = 1;
 1262              		.loc 2 228 0
 1263 0092 C3F8F026 		str	r2, [r3, #1776]
 229:figures.c     ****         table[16][14] = 1;
 1264              		.loc 2 229 0
 1265 0096 C3F8F826 		str	r2, [r3, #1784]
 230:figures.c     ****         table[16][15] = 1;
 1266              		.loc 2 230 0
 1267 009a C3F8FC26 		str	r2, [r3, #1788]
 1268 009e 08BD     		pop	{r3, pc}
 1269              	.L58:
 1270              		.align	2
 1271              	.L57:
 1272 00a0 00000000 		.word	.LANCHOR3
 1273 00a4 00000000 		.word	.LANCHOR2
 1274              		.cfi_endproc
 1275              	.LFE163:
 1277              		.section	.text.setFigureEigth,"ax",%progbits
 1278              		.align	1
 1279              		.global	setFigureEigth
 1280              		.syntax unified
 1281              		.thumb
 1282              		.thumb_func
 1283              		.fpu fpv5-sp-d16
 1285              	setFigureEigth:
 1286              	.LFB164:
 231:figures.c     **** }
 232:figures.c     **** 
 233:figures.c     **** void setFigureEigth(){
 1287              		.loc 2 233 0
 1288              		.cfi_startproc
 1289              		@ args = 0, pretend = 0, frame = 0
 1290              		@ frame_needed = 0, uses_anonymous_args = 0
 1291 0000 08B5     		push	{r3, lr}
 1292              	.LCFI12:
 1293              		.cfi_def_cfa_offset 8
 1294              		.cfi_offset 3, -8
 1295              		.cfi_offset 14, -4
 234:figures.c     **** 		delay = 600;
 1296              		.loc 2 234 0
 1297 0002 4FF41672 		mov	r2, #600
 1298 0006 154B     		ldr	r3, .L61
 1299 0008 1A60     		str	r2, [r3]
 235:figures.c     ****         clearTable();
 1300              		.loc 2 235 0
 1301 000a FFF7FEFF 		bl	clearTable
 1302              	.LVL56:
 236:figures.c     ****         table[9][10] = 1;
 1303              		.loc 2 236 0
 1304 000e 144B     		ldr	r3, .L61+4
 1305 0010 0122     		movs	r2, #1
 1306 0012 C3F8F423 		str	r2, [r3, #1012]
 237:figures.c     ****         table[9][11] = 1;
 1307              		.loc 2 237 0
 1308 0016 C3F8F823 		str	r2, [r3, #1016]
ARM GAS  C:\Users\lenovo\AppData\Local\Temp\ccfgRfuq.s 			page 54


 238:figures.c     ****         table[9][12] = 1;
 1309              		.loc 2 238 0
 1310 001a C3F8FC23 		str	r2, [r3, #1020]
 239:figures.c     ****         table[10][10] = 1;
 1311              		.loc 2 239 0
 1312 001e C3F86024 		str	r2, [r3, #1120]
 240:figures.c     ****         table[10][11] = 1;
 1313              		.loc 2 240 0
 1314 0022 C3F86424 		str	r2, [r3, #1124]
 241:figures.c     ****         table[10][12] = 1;
 1315              		.loc 2 241 0
 1316 0026 C3F86824 		str	r2, [r3, #1128]
 242:figures.c     ****         table[11][10] = 1;
 1317              		.loc 2 242 0
 1318 002a C3F8CC24 		str	r2, [r3, #1228]
 243:figures.c     ****         table[11][11] = 1;
 1319              		.loc 2 243 0
 1320 002e C3F8D024 		str	r2, [r3, #1232]
 244:figures.c     ****         table[11][12] = 1;
 1321              		.loc 2 244 0
 1322 0032 C3F8D424 		str	r2, [r3, #1236]
 245:figures.c     ****         table[12][13] = 1;
 1323              		.loc 2 245 0
 1324 0036 C3F84425 		str	r2, [r3, #1348]
 246:figures.c     ****         table[12][14] = 1;
 1325              		.loc 2 246 0
 1326 003a C3F84825 		str	r2, [r3, #1352]
 247:figures.c     ****         table[12][15] = 1;
 1327              		.loc 2 247 0
 1328 003e C3F84C25 		str	r2, [r3, #1356]
 248:figures.c     ****         table[13][13] = 1;
 1329              		.loc 2 248 0
 1330 0042 C3F8B025 		str	r2, [r3, #1456]
 249:figures.c     ****         table[13][14] = 1;
 1331              		.loc 2 249 0
 1332 0046 C3F8B425 		str	r2, [r3, #1460]
 250:figures.c     ****         table[13][15] = 1;
 1333              		.loc 2 250 0
 1334 004a C3F8B825 		str	r2, [r3, #1464]
 251:figures.c     ****         table[14][13] = 1;
 1335              		.loc 2 251 0
 1336 004e C3F81C26 		str	r2, [r3, #1564]
 252:figures.c     ****         table[14][14] = 1;
 1337              		.loc 2 252 0
 1338 0052 C3F82026 		str	r2, [r3, #1568]
 253:figures.c     ****         table[14][15] = 1;
 1339              		.loc 2 253 0
 1340 0056 C3F82426 		str	r2, [r3, #1572]
 1341 005a 08BD     		pop	{r3, pc}
 1342              	.L62:
 1343              		.align	2
 1344              	.L61:
 1345 005c 00000000 		.word	.LANCHOR3
 1346 0060 00000000 		.word	.LANCHOR2
 1347              		.cfi_endproc
 1348              	.LFE164:
 1350              		.section	.text.setCopperhead,"ax",%progbits
ARM GAS  C:\Users\lenovo\AppData\Local\Temp\ccfgRfuq.s 			page 55


 1351              		.align	1
 1352              		.global	setCopperhead
 1353              		.syntax unified
 1354              		.thumb
 1355              		.thumb_func
 1356              		.fpu fpv5-sp-d16
 1358              	setCopperhead:
 1359              	.LFB165:
 254:figures.c     **** }
 255:figures.c     **** 
 256:figures.c     **** void setCopperhead(){
 1360              		.loc 2 256 0
 1361              		.cfi_startproc
 1362              		@ args = 0, pretend = 0, frame = 0
 1363              		@ frame_needed = 0, uses_anonymous_args = 0
 1364 0000 08B5     		push	{r3, lr}
 1365              	.LCFI13:
 1366              		.cfi_def_cfa_offset 8
 1367              		.cfi_offset 3, -8
 1368              		.cfi_offset 14, -4
 257:figures.c     **** 		delay = 100;
 1369              		.loc 2 257 0
 1370 0002 6422     		movs	r2, #100
 1371 0004 1F4B     		ldr	r3, .L65
 1372 0006 1A60     		str	r2, [r3]
 258:figures.c     ****         clearTable();
 1373              		.loc 2 258 0
 1374 0008 FFF7FEFF 		bl	clearTable
 1375              	.LVL57:
 259:figures.c     ****         table[12][12] = 1;
 1376              		.loc 2 259 0
 1377 000c 1E4B     		ldr	r3, .L65+4
 1378 000e 0122     		movs	r2, #1
 1379 0010 C3F84025 		str	r2, [r3, #1344]
 260:figures.c     ****         table[12][13] = 1;
 1380              		.loc 2 260 0
 1381 0014 C3F84425 		str	r2, [r3, #1348]
 261:figures.c     ****         table[13][12] = 1;
 1382              		.loc 2 261 0
 1383 0018 C3F8AC25 		str	r2, [r3, #1452]
 262:figures.c     ****         table[13][13] = 1;
 1384              		.loc 2 262 0
 1385 001c C3F8B025 		str	r2, [r3, #1456]
 263:figures.c     ****         table[14][11] = 1;
 1386              		.loc 2 263 0
 1387 0020 C3F81426 		str	r2, [r3, #1556]
 264:figures.c     ****         table[14][14] = 1;
 1388              		.loc 2 264 0
 1389 0024 C3F82026 		str	r2, [r3, #1568]
 265:figures.c     ****         table[15][11] = 1;
 1390              		.loc 2 265 0
 1391 0028 C3F88026 		str	r2, [r3, #1664]
 266:figures.c     ****         table[15][12] = 1;
 1392              		.loc 2 266 0
 1393 002c C3F88426 		str	r2, [r3, #1668]
 267:figures.c     ****         table[15][13] = 1;
 1394              		.loc 2 267 0
ARM GAS  C:\Users\lenovo\AppData\Local\Temp\ccfgRfuq.s 			page 56


 1395 0030 C3F88826 		str	r2, [r3, #1672]
 268:figures.c     ****         table[15][14] = 1;
 1396              		.loc 2 268 0
 1397 0034 C3F88C26 		str	r2, [r3, #1676]
 269:figures.c     ****         table[16][10] = 1;
 1398              		.loc 2 269 0
 1399 0038 C3F8E826 		str	r2, [r3, #1768]
 270:figures.c     ****         table[16][12] = 1;
 1400              		.loc 2 270 0
 1401 003c C3F8F026 		str	r2, [r3, #1776]
 271:figures.c     ****         table[16][13] = 1;
 1402              		.loc 2 271 0
 1403 0040 C3F8F426 		str	r2, [r3, #1780]
 272:figures.c     ****         table[16][15] = 1;
 1404              		.loc 2 272 0
 1405 0044 C3F8FC26 		str	r2, [r3, #1788]
 273:figures.c     ****         table[17][11] = 1;
 1406              		.loc 2 273 0
 1407 0048 C3F85827 		str	r2, [r3, #1880]
 274:figures.c     ****         table[17][14] = 1;
 1408              		.loc 2 274 0
 1409 004c C3F86427 		str	r2, [r3, #1892]
 275:figures.c     ****         table[19][10] = 1;
 1410              		.loc 2 275 0
 1411 0050 C3F82C28 		str	r2, [r3, #2092]
 276:figures.c     ****         table[19][11] = 1;
 1412              		.loc 2 276 0
 1413 0054 C3F83028 		str	r2, [r3, #2096]
 277:figures.c     ****         table[19][14] = 1;
 1414              		.loc 2 277 0
 1415 0058 C3F83C28 		str	r2, [r3, #2108]
 278:figures.c     ****         table[19][15] = 1;
 1416              		.loc 2 278 0
 1417 005c C3F84028 		str	r2, [r3, #2112]
 279:figures.c     ****         table[20][9] = 1;
 1418              		.loc 2 279 0
 1419 0060 C3F89428 		str	r2, [r3, #2196]
 280:figures.c     ****         table[20][16] = 1;
 1420              		.loc 2 280 0
 1421 0064 C3F8B028 		str	r2, [r3, #2224]
 281:figures.c     ****         table[22][10] = 1;
 1422              		.loc 2 281 0
 1423 0068 C3F87029 		str	r2, [r3, #2416]
 282:figures.c     ****         table[22][15] = 1;
 1424              		.loc 2 282 0
 1425 006c C3F88429 		str	r2, [r3, #2436]
 283:figures.c     ****         table[23][11] = 1;
 1426              		.loc 2 283 0
 1427 0070 C3F8E029 		str	r2, [r3, #2528]
 284:figures.c     ****         table[23][14] = 1;
 1428              		.loc 2 284 0
 1429 0074 C3F8EC29 		str	r2, [r3, #2540]
 285:figures.c     ****         table[24][12] = 1;
 1430              		.loc 2 285 0
 1431 0078 C3F8502A 		str	r2, [r3, #2640]
 286:figures.c     ****         table[24][13] = 1;
 1432              		.loc 2 286 0
ARM GAS  C:\Users\lenovo\AppData\Local\Temp\ccfgRfuq.s 			page 57


 1433 007c C3F8542A 		str	r2, [r3, #2644]
 1434 0080 08BD     		pop	{r3, pc}
 1435              	.L66:
 1436 0082 00BF     		.align	2
 1437              	.L65:
 1438 0084 00000000 		.word	.LANCHOR3
 1439 0088 00000000 		.word	.LANCHOR2
 1440              		.cfi_endproc
 1441              	.LFE165:
 1443              		.section	.text.setCloverleaf,"ax",%progbits
 1444              		.align	1
 1445              		.global	setCloverleaf
 1446              		.syntax unified
 1447              		.thumb
 1448              		.thumb_func
 1449              		.fpu fpv5-sp-d16
 1451              	setCloverleaf:
 1452              	.LFB166:
 287:figures.c     **** }
 288:figures.c     **** 
 289:figures.c     **** void setCloverleaf(){
 1453              		.loc 2 289 0
 1454              		.cfi_startproc
 1455              		@ args = 0, pretend = 0, frame = 0
 1456              		@ frame_needed = 0, uses_anonymous_args = 0
 1457 0000 08B5     		push	{r3, lr}
 1458              	.LCFI14:
 1459              		.cfi_def_cfa_offset 8
 1460              		.cfi_offset 3, -8
 1461              		.cfi_offset 14, -4
 290:figures.c     **** 		delay = 800;
 1462              		.loc 2 290 0
 1463 0002 4FF44872 		mov	r2, #800
 1464 0006 2B4B     		ldr	r3, .L69
 1465 0008 1A60     		str	r2, [r3]
 291:figures.c     ****         clearTable();
 1466              		.loc 2 291 0
 1467 000a FFF7FEFF 		bl	clearTable
 1468              	.LVL58:
 292:figures.c     ****         table[9][12] = 1;
 1469              		.loc 2 292 0
 1470 000e 2A4B     		ldr	r3, .L69+4
 1471 0010 0122     		movs	r2, #1
 1472 0012 C3F8FC23 		str	r2, [r3, #1020]
 293:figures.c     ****         table[9][14] = 1;
 1473              		.loc 2 293 0
 1474 0016 C3F80424 		str	r2, [r3, #1028]
 294:figures.c     ****         table[10][10] = 1;
 1475              		.loc 2 294 0
 1476 001a C3F86024 		str	r2, [r3, #1120]
 295:figures.c     ****         table[10][11] = 1;
 1477              		.loc 2 295 0
 1478 001e C3F86424 		str	r2, [r3, #1124]
 296:figures.c     ****         table[10][12] = 1;
 1479              		.loc 2 296 0
 1480 0022 C3F86824 		str	r2, [r3, #1128]
 297:figures.c     ****         table[10][14] = 1;
ARM GAS  C:\Users\lenovo\AppData\Local\Temp\ccfgRfuq.s 			page 58


 1481              		.loc 2 297 0
 1482 0026 C3F87024 		str	r2, [r3, #1136]
 298:figures.c     ****         table[10][15] = 1;
 1483              		.loc 2 298 0
 1484 002a C3F87424 		str	r2, [r3, #1140]
 299:figures.c     ****         table[10][16] = 1;
 1485              		.loc 2 299 0
 1486 002e C3F87824 		str	r2, [r3, #1144]
 300:figures.c     ****         table[11][9] = 1;
 1487              		.loc 2 300 0
 1488 0032 C3F8C824 		str	r2, [r3, #1224]
 301:figures.c     ****         table[11][13] = 1;
 1489              		.loc 2 301 0
 1490 0036 C3F8D824 		str	r2, [r3, #1240]
 302:figures.c     ****         table[11][17] = 1;
 1491              		.loc 2 302 0
 1492 003a C3F8E824 		str	r2, [r3, #1256]
 303:figures.c     ****         table[12][9] = 1;
 1493              		.loc 2 303 0
 1494 003e C3F83425 		str	r2, [r3, #1332]
 304:figures.c     ****         table[12][11] = 1;
 1495              		.loc 2 304 0
 1496 0042 C3F83C25 		str	r2, [r3, #1340]
 305:figures.c     ****         table[12][15] = 1;
 1497              		.loc 2 305 0
 1498 0046 C3F84C25 		str	r2, [r3, #1356]
 306:figures.c     ****         table[12][17] = 1;
 1499              		.loc 2 306 0
 1500 004a C3F85425 		str	r2, [r3, #1364]
 307:figures.c     ****         table[13][10] = 1;
 1501              		.loc 2 307 0
 1502 004e C3F8A425 		str	r2, [r3, #1444]
 308:figures.c     ****         table[13][11] = 1;
 1503              		.loc 2 308 0
 1504 0052 C3F8A825 		str	r2, [r3, #1448]
 309:figures.c     ****         table[13][13] = 1;
 1505              		.loc 2 309 0
 1506 0056 C3F8B025 		str	r2, [r3, #1456]
 310:figures.c     ****         table[13][15] = 1;
 1507              		.loc 2 310 0
 1508 005a C3F8B825 		str	r2, [r3, #1464]
 311:figures.c     ****         table[13][16] = 1;
 1509              		.loc 2 311 0
 1510 005e C3F8BC25 		str	r2, [r3, #1468]
 312:figures.c     ****         table[15][10] = 1;
 1511              		.loc 2 312 0
 1512 0062 C3F87C26 		str	r2, [r3, #1660]
 313:figures.c     ****         table[15][11] = 1;
 1513              		.loc 2 313 0
 1514 0066 C3F88026 		str	r2, [r3, #1664]
 314:figures.c     ****         table[15][13] = 1;
 1515              		.loc 2 314 0
 1516 006a C3F88826 		str	r2, [r3, #1672]
 315:figures.c     ****         table[15][15] = 1;
 1517              		.loc 2 315 0
 1518 006e C3F89026 		str	r2, [r3, #1680]
 316:figures.c     ****         table[15][16] = 1;
ARM GAS  C:\Users\lenovo\AppData\Local\Temp\ccfgRfuq.s 			page 59


 1519              		.loc 2 316 0
 1520 0072 C3F89426 		str	r2, [r3, #1684]
 317:figures.c     ****         table[16][9] = 1;
 1521              		.loc 2 317 0
 1522 0076 C3F8E426 		str	r2, [r3, #1764]
 318:figures.c     ****         table[16][11] = 1;
 1523              		.loc 2 318 0
 1524 007a C3F8EC26 		str	r2, [r3, #1772]
 319:figures.c     ****         table[16][15] = 1;
 1525              		.loc 2 319 0
 1526 007e C3F8FC26 		str	r2, [r3, #1788]
 320:figures.c     ****         table[16][17] = 1;
 1527              		.loc 2 320 0
 1528 0082 C3F80427 		str	r2, [r3, #1796]
 321:figures.c     ****         table[17][9] = 1;
 1529              		.loc 2 321 0
 1530 0086 C3F85027 		str	r2, [r3, #1872]
 322:figures.c     ****         table[17][13] = 1;
 1531              		.loc 2 322 0
 1532 008a C3F86027 		str	r2, [r3, #1888]
 323:figures.c     ****         table[17][17] = 1;
 1533              		.loc 2 323 0
 1534 008e C3F87027 		str	r2, [r3, #1904]
 324:figures.c     ****         table[18][10] = 1;
 1535              		.loc 2 324 0
 1536 0092 C3F8C027 		str	r2, [r3, #1984]
 325:figures.c     ****         table[18][11] = 1;
 1537              		.loc 2 325 0
 1538 0096 C3F8C427 		str	r2, [r3, #1988]
 326:figures.c     ****         table[18][12] = 1;
 1539              		.loc 2 326 0
 1540 009a C3F8C827 		str	r2, [r3, #1992]
 327:figures.c     ****         table[18][14] = 1;
 1541              		.loc 2 327 0
 1542 009e C3F8D027 		str	r2, [r3, #2000]
 328:figures.c     ****         table[18][15] = 1;
 1543              		.loc 2 328 0
 1544 00a2 C3F8D427 		str	r2, [r3, #2004]
 329:figures.c     ****         table[18][16] = 1;
 1545              		.loc 2 329 0
 1546 00a6 C3F8D827 		str	r2, [r3, #2008]
 330:figures.c     ****         table[19][12] = 1;
 1547              		.loc 2 330 0
 1548 00aa C3F83428 		str	r2, [r3, #2100]
 331:figures.c     ****         table[19][14] = 1;
 1549              		.loc 2 331 0
 1550 00ae C3F83C28 		str	r2, [r3, #2108]
 1551 00b2 08BD     		pop	{r3, pc}
 1552              	.L70:
 1553              		.align	2
 1554              	.L69:
 1555 00b4 00000000 		.word	.LANCHOR3
 1556 00b8 00000000 		.word	.LANCHOR2
 1557              		.cfi_endproc
 1558              	.LFE166:
 1560              		.section	.text.setLWSS,"ax",%progbits
 1561              		.align	1
ARM GAS  C:\Users\lenovo\AppData\Local\Temp\ccfgRfuq.s 			page 60


 1562              		.global	setLWSS
 1563              		.syntax unified
 1564              		.thumb
 1565              		.thumb_func
 1566              		.fpu fpv5-sp-d16
 1568              	setLWSS:
 1569              	.LFB167:
 332:figures.c     **** }
 333:figures.c     **** 
 334:figures.c     **** void setLWSS(){
 1570              		.loc 2 334 0
 1571              		.cfi_startproc
 1572              		@ args = 0, pretend = 0, frame = 0
 1573              		@ frame_needed = 0, uses_anonymous_args = 0
 1574 0000 08B5     		push	{r3, lr}
 1575              	.LCFI15:
 1576              		.cfi_def_cfa_offset 8
 1577              		.cfi_offset 3, -8
 1578              		.cfi_offset 14, -4
 335:figures.c     **** 		delay = 100;
 1579              		.loc 2 335 0
 1580 0002 6422     		movs	r2, #100
 1581 0004 0F4B     		ldr	r3, .L73
 1582 0006 1A60     		str	r2, [r3]
 336:figures.c     ****         clearTable();
 1583              		.loc 2 336 0
 1584 0008 FFF7FEFF 		bl	clearTable
 1585              	.LVL59:
 337:figures.c     ****         table[7][3] = 1;
 1586              		.loc 2 337 0
 1587 000c 0E4B     		ldr	r3, .L73+4
 1588 000e 0122     		movs	r2, #1
 1589 0010 C3F80023 		str	r2, [r3, #768]
 338:figures.c     ****         table[7][4] = 1;
 1590              		.loc 2 338 0
 1591 0014 C3F80423 		str	r2, [r3, #772]
 339:figures.c     ****         table[8][1] = 1;
 1592              		.loc 2 339 0
 1593 0018 C3F86423 		str	r2, [r3, #868]
 340:figures.c     ****         table[8][2] = 1;
 1594              		.loc 2 340 0
 1595 001c C3F86823 		str	r2, [r3, #872]
 341:figures.c     ****         table[8][4] = 1;
 1596              		.loc 2 341 0
 1597 0020 C3F87023 		str	r2, [r3, #880]
 342:figures.c     ****         table[8][5] = 1;
 1598              		.loc 2 342 0
 1599 0024 C3F87423 		str	r2, [r3, #884]
 343:figures.c     ****         table[9][1] = 1;
 1600              		.loc 2 343 0
 1601 0028 C3F8D023 		str	r2, [r3, #976]
 344:figures.c     ****         table[9][2] = 1;
 1602              		.loc 2 344 0
 1603 002c C3F8D423 		str	r2, [r3, #980]
 345:figures.c     ****         table[9][3] = 1;
 1604              		.loc 2 345 0
 1605 0030 C3F8D823 		str	r2, [r3, #984]
ARM GAS  C:\Users\lenovo\AppData\Local\Temp\ccfgRfuq.s 			page 61


 346:figures.c     ****         table[9][4] = 1;
 1606              		.loc 2 346 0
 1607 0034 C3F8DC23 		str	r2, [r3, #988]
 347:figures.c     ****         table[10][2] = 1;
 1608              		.loc 2 347 0
 1609 0038 C3F84024 		str	r2, [r3, #1088]
 348:figures.c     ****         table[10][3] = 1;
 1610              		.loc 2 348 0
 1611 003c C3F84424 		str	r2, [r3, #1092]
 1612 0040 08BD     		pop	{r3, pc}
 1613              	.L74:
 1614 0042 00BF     		.align	2
 1615              	.L73:
 1616 0044 00000000 		.word	.LANCHOR3
 1617 0048 00000000 		.word	.LANCHOR2
 1618              		.cfi_endproc
 1619              	.LFE167:
 1621              		.section	.text.setBeacon,"ax",%progbits
 1622              		.align	1
 1623              		.global	setBeacon
 1624              		.syntax unified
 1625              		.thumb
 1626              		.thumb_func
 1627              		.fpu fpv5-sp-d16
 1629              	setBeacon:
 1630              	.LFB168:
 349:figures.c     **** }
 350:figures.c     **** 
 351:figures.c     **** void setBeacon(){
 1631              		.loc 2 351 0
 1632              		.cfi_startproc
 1633              		@ args = 0, pretend = 0, frame = 0
 1634              		@ frame_needed = 0, uses_anonymous_args = 0
 1635 0000 08B5     		push	{r3, lr}
 1636              	.LCFI16:
 1637              		.cfi_def_cfa_offset 8
 1638              		.cfi_offset 3, -8
 1639              		.cfi_offset 14, -4
 352:figures.c     **** 		delay = 1000;
 1640              		.loc 2 352 0
 1641 0002 4FF47A72 		mov	r2, #1000
 1642 0006 094B     		ldr	r3, .L77
 1643 0008 1A60     		str	r2, [r3]
 353:figures.c     ****         clearTable();
 1644              		.loc 2 353 0
 1645 000a FFF7FEFF 		bl	clearTable
 1646              	.LVL60:
 354:figures.c     ****         table[12][11] = 1;
 1647              		.loc 2 354 0
 1648 000e 084B     		ldr	r3, .L77+4
 1649 0010 0122     		movs	r2, #1
 1650 0012 C3F83C25 		str	r2, [r3, #1340]
 355:figures.c     ****         table[12][12] = 1;
 1651              		.loc 2 355 0
 1652 0016 C3F84025 		str	r2, [r3, #1344]
 356:figures.c     ****         table[13][11] = 1;
 1653              		.loc 2 356 0
ARM GAS  C:\Users\lenovo\AppData\Local\Temp\ccfgRfuq.s 			page 62


 1654 001a C3F8A825 		str	r2, [r3, #1448]
 357:figures.c     ****         table[14][14] = 1;
 1655              		.loc 2 357 0
 1656 001e C3F82026 		str	r2, [r3, #1568]
 358:figures.c     ****         table[15][13] = 1;
 1657              		.loc 2 358 0
 1658 0022 C3F88826 		str	r2, [r3, #1672]
 359:figures.c     ****         table[15][14] = 1;
 1659              		.loc 2 359 0
 1660 0026 C3F88C26 		str	r2, [r3, #1676]
 1661 002a 08BD     		pop	{r3, pc}
 1662              	.L78:
 1663              		.align	2
 1664              	.L77:
 1665 002c 00000000 		.word	.LANCHOR3
 1666 0030 00000000 		.word	.LANCHOR2
 1667              		.cfi_endproc
 1668              	.LFE168:
 1670              		.section	.text.setPulsar,"ax",%progbits
 1671              		.align	1
 1672              		.global	setPulsar
 1673              		.syntax unified
 1674              		.thumb
 1675              		.thumb_func
 1676              		.fpu fpv5-sp-d16
 1678              	setPulsar:
 1679              	.LFB169:
 360:figures.c     **** }
 361:figures.c     **** 
 362:figures.c     **** void setPulsar(){
 1680              		.loc 2 362 0
 1681              		.cfi_startproc
 1682              		@ args = 0, pretend = 0, frame = 0
 1683              		@ frame_needed = 0, uses_anonymous_args = 0
 1684 0000 08B5     		push	{r3, lr}
 1685              	.LCFI17:
 1686              		.cfi_def_cfa_offset 8
 1687              		.cfi_offset 3, -8
 1688              		.cfi_offset 14, -4
 363:figures.c     **** 		delay = 800;
 1689              		.loc 2 363 0
 1690 0002 4FF44872 		mov	r2, #800
 1691 0006 334B     		ldr	r3, .L81
 1692 0008 1A60     		str	r2, [r3]
 364:figures.c     ****         clearTable();
 1693              		.loc 2 364 0
 1694 000a FFF7FEFF 		bl	clearTable
 1695              	.LVL61:
 365:figures.c     ****         table[6][9] = 1;
 1696              		.loc 2 365 0
 1697 000e 324B     		ldr	r3, .L81+4
 1698 0010 0122     		movs	r2, #1
 1699 0012 C3F8AC22 		str	r2, [r3, #684]
 366:figures.c     ****         table[6][10] = 1;
 1700              		.loc 2 366 0
 1701 0016 C3F8B022 		str	r2, [r3, #688]
 367:figures.c     ****         table[6][11] = 1;
ARM GAS  C:\Users\lenovo\AppData\Local\Temp\ccfgRfuq.s 			page 63


 1702              		.loc 2 367 0
 1703 001a C3F8B422 		str	r2, [r3, #692]
 368:figures.c     ****         table[6][15] = 1;
 1704              		.loc 2 368 0
 1705 001e C3F8C422 		str	r2, [r3, #708]
 369:figures.c     ****         table[6][16] = 1;
 1706              		.loc 2 369 0
 1707 0022 C3F8C822 		str	r2, [r3, #712]
 370:figures.c     ****         table[6][17] = 1;
 1708              		.loc 2 370 0
 1709 0026 C3F8CC22 		str	r2, [r3, #716]
 371:figures.c     ****         table[8][7] = 1;
 1710              		.loc 2 371 0
 1711 002a C3F87C23 		str	r2, [r3, #892]
 372:figures.c     ****         table[8][12] = 1;
 1712              		.loc 2 372 0
 1713 002e C3F89023 		str	r2, [r3, #912]
 373:figures.c     ****         table[8][14] = 1;
 1714              		.loc 2 373 0
 1715 0032 C3F89823 		str	r2, [r3, #920]
 374:figures.c     ****         table[8][19] = 1;
 1716              		.loc 2 374 0
 1717 0036 C3F8AC23 		str	r2, [r3, #940]
 375:figures.c     ****         table[9][7] = 1;
 1718              		.loc 2 375 0
 1719 003a C3F8E823 		str	r2, [r3, #1000]
 376:figures.c     ****         table[9][12] = 1;
 1720              		.loc 2 376 0
 1721 003e C3F8FC23 		str	r2, [r3, #1020]
 377:figures.c     ****         table[9][14] = 1;
 1722              		.loc 2 377 0
 1723 0042 C3F80424 		str	r2, [r3, #1028]
 378:figures.c     ****         table[9][19] = 1;
 1724              		.loc 2 378 0
 1725 0046 C3F81824 		str	r2, [r3, #1048]
 379:figures.c     ****         table[10][7] = 1;
 1726              		.loc 2 379 0
 1727 004a C3F85424 		str	r2, [r3, #1108]
 380:figures.c     ****         table[10][12] = 1;
 1728              		.loc 2 380 0
 1729 004e C3F86824 		str	r2, [r3, #1128]
 381:figures.c     ****         table[10][14] = 1;
 1730              		.loc 2 381 0
 1731 0052 C3F87024 		str	r2, [r3, #1136]
 382:figures.c     ****         table[10][19] = 1;
 1732              		.loc 2 382 0
 1733 0056 C3F88424 		str	r2, [r3, #1156]
 383:figures.c     ****         table[11][9] = 1;
 1734              		.loc 2 383 0
 1735 005a C3F8C824 		str	r2, [r3, #1224]
 384:figures.c     ****         table[11][10] = 1;
 1736              		.loc 2 384 0
 1737 005e C3F8CC24 		str	r2, [r3, #1228]
 385:figures.c     ****         table[11][11] = 1;
 1738              		.loc 2 385 0
 1739 0062 C3F8D024 		str	r2, [r3, #1232]
 386:figures.c     ****         table[11][15] = 1;
ARM GAS  C:\Users\lenovo\AppData\Local\Temp\ccfgRfuq.s 			page 64


 1740              		.loc 2 386 0
 1741 0066 C3F8E024 		str	r2, [r3, #1248]
 387:figures.c     ****         table[11][16] = 1;
 1742              		.loc 2 387 0
 1743 006a C3F8E424 		str	r2, [r3, #1252]
 388:figures.c     ****         table[11][17] = 1;
 1744              		.loc 2 388 0
 1745 006e C3F8E824 		str	r2, [r3, #1256]
 389:figures.c     ****         table[13][9] = 1;
 1746              		.loc 2 389 0
 1747 0072 C3F8A025 		str	r2, [r3, #1440]
 390:figures.c     ****         table[13][10] = 1;
 1748              		.loc 2 390 0
 1749 0076 C3F8A425 		str	r2, [r3, #1444]
 391:figures.c     ****         table[13][11] = 1;
 1750              		.loc 2 391 0
 1751 007a C3F8A825 		str	r2, [r3, #1448]
 392:figures.c     ****         table[13][15] = 1;
 1752              		.loc 2 392 0
 1753 007e C3F8B825 		str	r2, [r3, #1464]
 393:figures.c     ****         table[13][16] = 1;
 1754              		.loc 2 393 0
 1755 0082 C3F8BC25 		str	r2, [r3, #1468]
 394:figures.c     ****         table[13][17] = 1;
 1756              		.loc 2 394 0
 1757 0086 C3F8C025 		str	r2, [r3, #1472]
 395:figures.c     ****         table[14][7] = 1;
 1758              		.loc 2 395 0
 1759 008a C3F80426 		str	r2, [r3, #1540]
 396:figures.c     ****         table[14][12] = 1;
 1760              		.loc 2 396 0
 1761 008e C3F81826 		str	r2, [r3, #1560]
 397:figures.c     ****         table[14][14] = 1;
 1762              		.loc 2 397 0
 1763 0092 C3F82026 		str	r2, [r3, #1568]
 398:figures.c     ****         table[14][19] = 1;
 1764              		.loc 2 398 0
 1765 0096 C3F83426 		str	r2, [r3, #1588]
 399:figures.c     ****         table[15][7] = 1;
 1766              		.loc 2 399 0
 1767 009a C3F87026 		str	r2, [r3, #1648]
 400:figures.c     ****         table[15][12] = 1;
 1768              		.loc 2 400 0
 1769 009e C3F88426 		str	r2, [r3, #1668]
 401:figures.c     ****         table[15][14] = 1;
 1770              		.loc 2 401 0
 1771 00a2 C3F88C26 		str	r2, [r3, #1676]
 402:figures.c     ****         table[15][19] = 1;
 1772              		.loc 2 402 0
 1773 00a6 C3F8A026 		str	r2, [r3, #1696]
 403:figures.c     ****         table[16][7] = 1;
 1774              		.loc 2 403 0
 1775 00aa C3F8DC26 		str	r2, [r3, #1756]
 404:figures.c     ****         table[16][12] = 1;
 1776              		.loc 2 404 0
 1777 00ae C3F8F026 		str	r2, [r3, #1776]
 405:figures.c     ****         table[16][14] = 1;
ARM GAS  C:\Users\lenovo\AppData\Local\Temp\ccfgRfuq.s 			page 65


 1778              		.loc 2 405 0
 1779 00b2 C3F8F826 		str	r2, [r3, #1784]
 406:figures.c     ****         table[16][19] = 1;
 1780              		.loc 2 406 0
 1781 00b6 C3F80C27 		str	r2, [r3, #1804]
 407:figures.c     ****         table[18][9] = 1;
 1782              		.loc 2 407 0
 1783 00ba C3F8BC27 		str	r2, [r3, #1980]
 408:figures.c     ****         table[18][10] = 1;
 1784              		.loc 2 408 0
 1785 00be C3F8C027 		str	r2, [r3, #1984]
 409:figures.c     ****         table[18][11] = 1;
 1786              		.loc 2 409 0
 1787 00c2 C3F8C427 		str	r2, [r3, #1988]
 410:figures.c     ****         table[18][15] = 1;
 1788              		.loc 2 410 0
 1789 00c6 C3F8D427 		str	r2, [r3, #2004]
 411:figures.c     ****         table[18][16] = 1;
 1790              		.loc 2 411 0
 1791 00ca C3F8D827 		str	r2, [r3, #2008]
 412:figures.c     ****         table[18][17] = 1;
 1792              		.loc 2 412 0
 1793 00ce C3F8DC27 		str	r2, [r3, #2012]
 1794 00d2 08BD     		pop	{r3, pc}
 1795              	.L82:
 1796              		.align	2
 1797              	.L81:
 1798 00d4 00000000 		.word	.LANCHOR3
 1799 00d8 00000000 		.word	.LANCHOR2
 1800              		.cfi_endproc
 1801              	.LFE169:
 1803              		.section	.text.setCrocodile,"ax",%progbits
 1804              		.align	1
 1805              		.global	setCrocodile
 1806              		.syntax unified
 1807              		.thumb
 1808              		.thumb_func
 1809              		.fpu fpv5-sp-d16
 1811              	setCrocodile:
 1812              	.LFB170:
 413:figures.c     **** }
 414:figures.c     **** 
 415:figures.c     ****   void setCrocodile(){
 1813              		.loc 2 415 0
 1814              		.cfi_startproc
 1815              		@ args = 0, pretend = 0, frame = 0
 1816              		@ frame_needed = 0, uses_anonymous_args = 0
 1817 0000 08B5     		push	{r3, lr}
 1818              	.LCFI18:
 1819              		.cfi_def_cfa_offset 8
 1820              		.cfi_offset 3, -8
 1821              		.cfi_offset 14, -4
 416:figures.c     **** 	delay = 300;
 1822              		.loc 2 416 0
 1823 0002 4FF49672 		mov	r2, #300
 1824 0006 154B     		ldr	r3, .L85
 1825 0008 1A60     		str	r2, [r3]
ARM GAS  C:\Users\lenovo\AppData\Local\Temp\ccfgRfuq.s 			page 66


 417:figures.c     **** 	clearTable();
 1826              		.loc 2 417 0
 1827 000a FFF7FEFF 		bl	clearTable
 1828              	.LVL62:
 418:figures.c     **** 	table[8][13]=1;
 1829              		.loc 2 418 0
 1830 000e 144B     		ldr	r3, .L85+4
 1831 0010 0122     		movs	r2, #1
 1832 0012 C3F89423 		str	r2, [r3, #916]
 419:figures.c     **** 	table[9][12]=1;
 1833              		.loc 2 419 0
 1834 0016 C3F8FC23 		str	r2, [r3, #1020]
 420:figures.c     **** 	table[10][11]=1;
 1835              		.loc 2 420 0
 1836 001a C3F86424 		str	r2, [r3, #1124]
 421:figures.c     **** 	table[11][11]=1;
 1837              		.loc 2 421 0
 1838 001e C3F8D024 		str	r2, [r3, #1232]
 422:figures.c     **** 	table[12][11]=1;
 1839              		.loc 2 422 0
 1840 0022 C3F83C25 		str	r2, [r3, #1340]
 423:figures.c     **** 	table[13][11]=1;
 1841              		.loc 2 423 0
 1842 0026 C3F8A825 		str	r2, [r3, #1448]
 424:figures.c     **** 	table[14][11]=1;
 1843              		.loc 2 424 0
 1844 002a C3F81426 		str	r2, [r3, #1556]
 425:figures.c     **** 	table[15][11]=1;
 1845              		.loc 2 425 0
 1846 002e C3F88026 		str	r2, [r3, #1664]
 426:figures.c     **** 	table[16][12]=1;
 1847              		.loc 2 426 0
 1848 0032 C3F8F026 		str	r2, [r3, #1776]
 427:figures.c     **** 	table[17][13]=1;
 1849              		.loc 2 427 0
 1850 0036 C3F86027 		str	r2, [r3, #1888]
 428:figures.c     **** 	table[16][14]=1;
 1851              		.loc 2 428 0
 1852 003a C3F8F826 		str	r2, [r3, #1784]
 429:figures.c     **** 	table[15][15]=1;
 1853              		.loc 2 429 0
 1854 003e C3F89026 		str	r2, [r3, #1680]
 430:figures.c     **** 	table[14][15]=1;
 1855              		.loc 2 430 0
 1856 0042 C3F82426 		str	r2, [r3, #1572]
 431:figures.c     **** 	table[13][15]=1;
 1857              		.loc 2 431 0
 1858 0046 C3F8B825 		str	r2, [r3, #1464]
 432:figures.c     **** 	table[12][15]=1;
 1859              		.loc 2 432 0
 1860 004a C3F84C25 		str	r2, [r3, #1356]
 433:figures.c     **** 	table[11][15]=1;
 1861              		.loc 2 433 0
 1862 004e C3F8E024 		str	r2, [r3, #1248]
 434:figures.c     **** 	table[9][14]=1;
 1863              		.loc 2 434 0
 1864 0052 C3F80424 		str	r2, [r3, #1028]
ARM GAS  C:\Users\lenovo\AppData\Local\Temp\ccfgRfuq.s 			page 67


 435:figures.c     **** 	table[10][15]=1;
 1865              		.loc 2 435 0
 1866 0056 C3F87424 		str	r2, [r3, #1140]
 1867 005a 08BD     		pop	{r3, pc}
 1868              	.L86:
 1869              		.align	2
 1870              	.L85:
 1871 005c 00000000 		.word	.LANCHOR3
 1872 0060 00000000 		.word	.LANCHOR2
 1873              		.cfi_endproc
 1874              	.LFE170:
 1876              		.section	.text.setFountain,"ax",%progbits
 1877              		.align	1
 1878              		.global	setFountain
 1879              		.syntax unified
 1880              		.thumb
 1881              		.thumb_func
 1882              		.fpu fpv5-sp-d16
 1884              	setFountain:
 1885              	.LFB171:
 436:figures.c     ****   }
 437:figures.c     ****   
 438:figures.c     ****   void setFountain(){
 1886              		.loc 2 438 0
 1887              		.cfi_startproc
 1888              		@ args = 0, pretend = 0, frame = 0
 1889              		@ frame_needed = 0, uses_anonymous_args = 0
 1890 0000 08B5     		push	{r3, lr}
 1891              	.LCFI19:
 1892              		.cfi_def_cfa_offset 8
 1893              		.cfi_offset 3, -8
 1894              		.cfi_offset 14, -4
 439:figures.c     **** 	delay = 150;
 1895              		.loc 2 439 0
 1896 0002 9622     		movs	r2, #150
 1897 0004 154B     		ldr	r3, .L89
 1898 0006 1A60     		str	r2, [r3]
 440:figures.c     ****   	clearTable();
 1899              		.loc 2 440 0
 1900 0008 FFF7FEFF 		bl	clearTable
 1901              	.LVL63:
 441:figures.c     **** 	table[9][15]=1;
 1902              		.loc 2 441 0
 1903 000c 144B     		ldr	r3, .L89+4
 1904 000e 0122     		movs	r2, #1
 1905 0010 C3F80824 		str	r2, [r3, #1032]
 442:figures.c     **** 	table[10][16]=1;
 1906              		.loc 2 442 0
 1907 0014 C3F87824 		str	r2, [r3, #1144]
 443:figures.c     **** 	table[11][15]=1;
 1908              		.loc 2 443 0
 1909 0018 C3F8E024 		str	r2, [r3, #1248]
 444:figures.c     **** 	table[11][14]=1;
 1910              		.loc 2 444 0
 1911 001c C3F8DC24 		str	r2, [r3, #1244]
 445:figures.c     **** 	table[12][14]=1;
 1912              		.loc 2 445 0
ARM GAS  C:\Users\lenovo\AppData\Local\Temp\ccfgRfuq.s 			page 68


 1913 0020 C3F84825 		str	r2, [r3, #1352]
 446:figures.c     **** 	table[10][13]=1;
 1914              		.loc 2 446 0
 1915 0024 C3F86C24 		str	r2, [r3, #1132]
 447:figures.c     **** 	table[11][13]=1;
 1916              		.loc 2 447 0
 1917 0028 C3F8D824 		str	r2, [r3, #1240]
 448:figures.c     **** 	table[11][12]=1;
 1918              		.loc 2 448 0
 1919 002c C3F8D424 		str	r2, [r3, #1236]
 449:figures.c     **** 	table[12][12]=1;
 1920              		.loc 2 449 0
 1921 0030 C3F84025 		str	r2, [r3, #1344]
 450:figures.c     **** 	table[14][12]=1;
 1922              		.loc 2 450 0
 1923 0034 C3F81826 		str	r2, [r3, #1560]
 451:figures.c     **** 	table[15][12]=1;
 1924              		.loc 2 451 0
 1925 0038 C3F88426 		str	r2, [r3, #1668]
 452:figures.c     **** 	table[15][13]=1;
 1926              		.loc 2 452 0
 1927 003c C3F88826 		str	r2, [r3, #1672]
 453:figures.c     **** 	table[16][13]=1;
 1928              		.loc 2 453 0
 1929 0040 C3F8F426 		str	r2, [r3, #1780]
 454:figures.c     **** 	table[14][14]=1;
 1930              		.loc 2 454 0
 1931 0044 C3F82026 		str	r2, [r3, #1568]
 455:figures.c     **** 	table[15][14]=1;
 1932              		.loc 2 455 0
 1933 0048 C3F88C26 		str	r2, [r3, #1676]
 456:figures.c     **** 	table[15][15]=1;
 1934              		.loc 2 456 0
 1935 004c C3F89026 		str	r2, [r3, #1680]
 457:figures.c     **** 	table[17][15]=1;
 1936              		.loc 2 457 0
 1937 0050 C3F86827 		str	r2, [r3, #1896]
 458:figures.c     **** 	table[16][16]=1;
 1938              		.loc 2 458 0
 1939 0054 C3F80027 		str	r2, [r3, #1792]
 1940 0058 08BD     		pop	{r3, pc}
 1941              	.L90:
 1942 005a 00BF     		.align	2
 1943              	.L89:
 1944 005c 00000000 		.word	.LANCHOR3
 1945 0060 00000000 		.word	.LANCHOR2
 1946              		.cfi_endproc
 1947              	.LFE171:
 1949              		.section	.text.StartDefaultTask,"ax",%progbits
 1950              		.align	1
 1951              		.global	StartDefaultTask
 1952              		.syntax unified
 1953              		.thumb
 1954              		.thumb_func
 1955              		.fpu fpv5-sp-d16
 1957              	StartDefaultTask:
 1958              	.LFB214:
ARM GAS  C:\Users\lenovo\AppData\Local\Temp\ccfgRfuq.s 			page 69


1477:main.c        **** 
1478:main.c        **** /* USER CODE BEGIN 4 */
1479:main.c        **** #if ENABLE_NETWORK
1480:main.c        **** 
1481:main.c        **** static char response[500];
1482:main.c        **** 
1483:main.c        **** //based on available code examples
1484:main.c        **** static void http_server_serve(struct netconn *conn) 
1485:main.c        **** {
1486:main.c        ****   struct netbuf *inbuf;
1487:main.c        ****   err_t recv_err;
1488:main.c        ****   char* buf;
1489:main.c        ****   u16_t buflen;
1490:main.c        ****   
1491:main.c        ****   /* Read the data from the port, blocking if nothing yet there. 
1492:main.c        ****    We assume the request (the part we care about) is in one netbuf */
1493:main.c        ****   recv_err = netconn_recv(conn, &inbuf);
1494:main.c        ****   
1495:main.c        ****   if (recv_err == ERR_OK)
1496:main.c        ****   {
1497:main.c        ****     if (netconn_err(conn) == ERR_OK) 
1498:main.c        ****     {
1499:main.c        ****       netbuf_data(inbuf, (void**)&buf, &buflen);
1500:main.c        ****     
1501:main.c        ****       /* Is this an HTTP GET command? (only check the first 5 chars, since
1502:main.c        ****       there are other formats for GET, and we're keeping it very simple )*/
1503:main.c        ****       if ((buflen >=5) && (strncmp(buf, "GET /", 5) == 0))
1504:main.c        ****       {
1505:main.c        ****       response[0] = 0;
1506:main.c        **** 
1507:main.c        ****       strcpy(response, "HTTP/1.1 200 OK\r\n\
1508:main.c        ****         Content-Type: text/html\r\n\
1509:main.c        ****         Connnection: close\r\n\r\n\
1510:main.c        ****         <!DOCTYPE HTML>\r\n");
1511:main.c        **** 
1512:main.c        ****       #if 0
1513:main.c        ****       strcat(response,"<html>\r\n\
1514:main.c        ****       <meta http-equiv=\"refresh\" content=\"10\">");
1515:main.c        ****       #endif
1516:main.c        **** 
1517:main.c        ****       strcat(response,"<title>Prosta strona WWW</title>");
1518:main.c        ****       strcat(response,"<h1>H1 Header</h1>");
1519:main.c        **** 
1520:main.c        ****       strcat(response,"A to jest tekst na stronie");
1521:main.c        ****           netconn_write(conn, response, sizeof(response), NETCONN_NOCOPY);
1522:main.c        ****       }
1523:main.c        ****     }
1524:main.c        ****   }
1525:main.c        ****   /* Close the connection (server closes in HTTP) */
1526:main.c        ****   netconn_close(conn);
1527:main.c        ****   
1528:main.c        ****   /* Delete the buffer (netconn_recv gives us ownership,
1529:main.c        ****    so we have to make sure to deallocate the buffer) */
1530:main.c        ****   netbuf_delete(inbuf);
1531:main.c        **** }
1532:main.c        **** 
1533:main.c        **** 
ARM GAS  C:\Users\lenovo\AppData\Local\Temp\ccfgRfuq.s 			page 70


1534:main.c        **** //based on available code examples
1535:main.c        **** static void http_server_netconn_thread(void const *arg)
1536:main.c        **** { 
1537:main.c        ****   struct netconn *conn, *newconn;
1538:main.c        ****   err_t err, accept_err;
1539:main.c        ****   
1540:main.c        ****   xprintf("http_server_netconn_thread\n");
1541:main.c        ****   
1542:main.c        ****   /* Create a new TCP connection handle */
1543:main.c        ****   conn = netconn_new(NETCONN_TCP);
1544:main.c        ****   
1545:main.c        ****   if (conn!= NULL)
1546:main.c        ****   {
1547:main.c        ****     /* Bind to port 80 (HTTP) with default IP address */
1548:main.c        ****     err = netconn_bind(conn, NULL, 80);
1549:main.c        ****     
1550:main.c        ****     if (err == ERR_OK)
1551:main.c        ****     {
1552:main.c        ****       /* Put the connection into LISTEN state */
1553:main.c        ****       netconn_listen(conn);
1554:main.c        ****   
1555:main.c        ****       while(1) 
1556:main.c        ****       {
1557:main.c        ****         /* accept any icoming connection */
1558:main.c        ****         accept_err = netconn_accept(conn, &newconn);
1559:main.c        ****         if(accept_err == ERR_OK)
1560:main.c        ****         {
1561:main.c        ****           /* serve connection */
1562:main.c        ****           http_server_serve(newconn);
1563:main.c        **** 
1564:main.c        ****           /* delete connection */
1565:main.c        ****           netconn_delete(newconn);
1566:main.c        ****         }
1567:main.c        ****       }
1568:main.c        ****     }
1569:main.c        ****   }
1570:main.c        **** }
1571:main.c        **** 
1572:main.c        **** #endif //ENABLE_NETWORK
1573:main.c        **** 
1574:main.c        **** #define AUDIO_OUT_BUFFER_SIZE                      8192
1575:main.c        **** enum {
1576:main.c        ****   BUFFER_OFFSET_NONE = 0,  
1577:main.c        ****   BUFFER_OFFSET_HALF,  
1578:main.c        ****   BUFFER_OFFSET_FULL,     
1579:main.c        **** };
1580:main.c        **** 
1581:main.c        **** uint8_t buff[AUDIO_OUT_BUFFER_SIZE];
1582:main.c        **** extern ApplicationTypeDef Appli_state;
1583:main.c        **** static uint8_t buf_offs = BUFFER_OFFSET_NONE;
1584:main.c        **** 
1585:main.c        **** 
1586:main.c        **** void BSP_AUDIO_OUT_TransferComplete_CallBack(void)
1587:main.c        **** {
1588:main.c        ****     buf_offs = BUFFER_OFFSET_FULL;
1589:main.c        **** }
1590:main.c        **** 
ARM GAS  C:\Users\lenovo\AppData\Local\Temp\ccfgRfuq.s 			page 71


1591:main.c        **** void BSP_AUDIO_OUT_HalfTransfer_CallBack(void)
1592:main.c        **** { 
1593:main.c        ****     buf_offs = BUFFER_OFFSET_HALF;
1594:main.c        **** }
1595:main.c        **** 
1596:main.c        **** 
1597:main.c        **** 
1598:main.c        **** 
1599:main.c        **** /* USER CODE END 4 */
1600:main.c        **** void StartTableTask(){
1601:main.c        ****   lcd_start();
1602:main.c        ****   init_background();
1603:main.c        ****   for(;;)
1604:main.c        ****   {
1605:main.c        **** 	if(drawing_state == -1){
1606:main.c        **** 		init_drawingbackground();
1607:main.c        **** 		while(drawing_state == 1){
1608:main.c        **** 			draw_drawingbackground();
1609:main.c        **** 			vTaskDelay(100);
1610:main.c        **** 		}
1611:main.c        **** 		init_background();
1612:main.c        **** 	}
1613:main.c        **** 	else{
1614:main.c        **** 		if(state_changed){
1615:main.c        **** 			init_background();
1616:main.c        **** 			state_changed = 0;
1617:main.c        **** 		}
1618:main.c        **** 		draw_background();
1619:main.c        **** 		vTaskDelay(delay);
1620:main.c        **** 	}
1621:main.c        ****    }
1622:main.c        **** }
1623:main.c        **** 
1624:main.c        **** /* USER CODE BEGIN Header_StartDefaultTask */
1625:main.c        **** /**
1626:main.c        ****   * @brief  Function implementing the defaultTask thread.
1627:main.c        ****   * @param  argument: Not used 
1628:main.c        ****   * @retval None
1629:main.c        ****   */
1630:main.c        **** /* USER CODE END Header_StartDefaultTask */
1631:main.c        **** void StartDefaultTask(void const * argument)
1632:main.c        **** {
 1959              		.loc 1 1632 0
 1960              		.cfi_startproc
 1961              		@ args = 0, pretend = 0, frame = 24
 1962              		@ frame_needed = 0, uses_anonymous_args = 0
 1963              	.LVL64:
 1964 0000 70B5     		push	{r4, r5, r6, lr}
 1965              	.LCFI20:
 1966              		.cfi_def_cfa_offset 16
 1967              		.cfi_offset 4, -16
 1968              		.cfi_offset 5, -12
 1969              		.cfi_offset 6, -8
 1970              		.cfi_offset 14, -4
 1971 0002 86B0     		sub	sp, sp, #24
 1972              	.LCFI21:
 1973              		.cfi_def_cfa_offset 40
ARM GAS  C:\Users\lenovo\AppData\Local\Temp\ccfgRfuq.s 			page 72


1633:main.c        ****   /* init code for FATFS */
1634:main.c        ****   MX_FATFS_Init();
 1974              		.loc 1 1634 0
 1975 0004 FFF7FEFF 		bl	MX_FATFS_Init
 1976              	.LVL65:
1635:main.c        **** 
1636:main.c        ****   /* init code for USB_HOST */
1637:main.c        ****   MX_USB_HOST_Init();
 1977              		.loc 1 1637 0
 1978 0008 FFF7FEFF 		bl	MX_USB_HOST_Init
 1979              	.LVL66:
1638:main.c        **** 
1639:main.c        ****   /* init code for LWIP */
1640:main.c        ****   #if ENABLE_NETWORK
1641:main.c        ****     MX_LWIP_Init();
1642:main.c        ****   #endif
1643:main.c        ****   /* USER CODE BEGIN 5 */
1644:main.c        ****   #if ENABLE_NETWORK
1645:main.c        ****     osThreadDef(netconn_thread, http_server_netconn_thread, osPriorityNormal, 0, 1024);
1646:main.c        ****     netconn_thread_handle = osThreadCreate(osThread(netconn_thread), NULL);
1647:main.c        ****   #endif
1648:main.c        ****   setGameOfLife();
 1980              		.loc 1 1648 0
 1981 000c FFF7FEFF 		bl	setGameOfLife
 1982              	.LVL67:
1649:main.c        ****   vTaskDelay(1000);
 1983              		.loc 1 1649 0
 1984 0010 4FF47A70 		mov	r0, #1000
 1985 0014 FFF7FEFF 		bl	vTaskDelay
 1986              	.LVL68:
1650:main.c        ****   osThreadDef(tableTask, StartTableTask, osPriorityNormal, 0, 1024);
 1987              		.loc 1 1650 0
 1988 0018 01AC     		add	r4, sp, #4
 1989 001a B94D     		ldr	r5, .L136
 1990 001c 0FCD     		ldmia	r5!, {r0, r1, r2, r3}
 1991 001e 0FC4     		stmia	r4!, {r0, r1, r2, r3}
 1992 0020 2B68     		ldr	r3, [r5]
 1993 0022 2360     		str	r3, [r4]
1651:main.c        ****   tableTaskHandle = osThreadCreate(osThread(tableTask), NULL);
 1994              		.loc 1 1651 0
 1995 0024 0021     		movs	r1, #0
 1996 0026 01A8     		add	r0, sp, #4
 1997 0028 FFF7FEFF 		bl	osThreadCreate
 1998              	.LVL69:
 1999 002c B54B     		ldr	r3, .L136+4
 2000 002e 1860     		str	r0, [r3]
 2001 0030 45E0     		b	.L93
 2002              	.LVL70:
 2003              	.L96:
1652:main.c        ****   int x, y;
1653:main.c        ****   for(;;)
1654:main.c        ****   {
1655:main.c        **** 	vTaskDelay(100);
1656:main.c        **** 	BSP_TS_GetState(&TS_State);
1657:main.c        **** 	if(TS_State.touchDetected)
1658:main.c        **** 	{
1659:main.c        **** 	    x = TS_State.touchX[0];
ARM GAS  C:\Users\lenovo\AppData\Local\Temp\ccfgRfuq.s 			page 73


1660:main.c        **** 		y = TS_State.touchY[0];
1661:main.c        **** 		if(drawing_state != -1){
1662:main.c        **** 			if(x > 365 && x < 395 && y > 0 && y < 21){
1663:main.c        **** 				if(delay < 5000){
1664:main.c        **** 					delay*=5;
1665:main.c        **** 					delay/=4;
 2004              		.loc 1 1665 0
 2005 0032 8910     		asrs	r1, r1, #2
 2006 0034 B44A     		ldr	r2, .L136+8
 2007 0036 1160     		str	r1, [r2]
 2008              	.L95:
1666:main.c        **** 				}
1667:main.c        **** 			}
1668:main.c        **** 			if(x > 440 && x < 480 && y > 0 && y < 21){
 2009              		.loc 1 1668 0
 2010 0038 A4F2B912 		subw	r2, r4, #441
 2011 003c 262A     		cmp	r2, #38
 2012 003e 0FD8     		bhi	.L97
 2013              		.loc 1 1668 0 is_stmt 0 discriminator 1
 2014 0040 6A1E     		subs	r2, r5, #1
 2015 0042 132A     		cmp	r2, #19
 2016 0044 0CD8     		bhi	.L97
1669:main.c        **** 				if(delay > 30){
 2017              		.loc 1 1669 0 is_stmt 1
 2018 0046 B04A     		ldr	r2, .L136+8
 2019 0048 1268     		ldr	r2, [r2]
 2020 004a 1E2A     		cmp	r2, #30
 2021 004c 08DD     		ble	.L97
1670:main.c        **** 					delay*=4;
 2022              		.loc 1 1670 0
 2023 004e 9200     		lsls	r2, r2, #2
1671:main.c        **** 					delay/=5;
 2024              		.loc 1 1671 0
 2025 0050 AE49     		ldr	r1, .L136+12
 2026 0052 81FB0201 		smull	r0, r1, r1, r2
 2027 0056 D217     		asrs	r2, r2, #31
 2028 0058 C2EB6102 		rsb	r2, r2, r1, asr #1
 2029 005c AA49     		ldr	r1, .L136+8
 2030 005e 0A60     		str	r2, [r1]
 2031              	.L97:
1672:main.c        **** 				}
1673:main.c        **** 			}
1674:main.c        **** 			if(x > 395 && x < 440 && y > 0 && y < 21){
 2032              		.loc 1 1674 0
 2033 0060 A4F5C672 		sub	r2, r4, #396
 2034 0064 2B2A     		cmp	r2, #43
 2035 0066 09D8     		bhi	.L94
 2036              		.loc 1 1674 0 is_stmt 0 discriminator 1
 2037 0068 6A1E     		subs	r2, r5, #1
 2038 006a 132A     		cmp	r2, #19
 2039 006c 06D8     		bhi	.L94
1675:main.c        **** 				if(stopped) stopped = 0;
 2040              		.loc 1 1675 0 is_stmt 1
 2041 006e A84A     		ldr	r2, .L136+16
 2042 0070 1268     		ldr	r2, [r2]
 2043 0072 002A     		cmp	r2, #0
 2044 0074 49D0     		beq	.L98
ARM GAS  C:\Users\lenovo\AppData\Local\Temp\ccfgRfuq.s 			page 74


 2045              		.loc 1 1675 0 is_stmt 0 discriminator 1
 2046 0076 0021     		movs	r1, #0
 2047 0078 A54A     		ldr	r2, .L136+16
 2048 007a 1160     		str	r1, [r2]
 2049              	.L94:
1676:main.c        **** 				else stopped = 1;
1677:main.c        **** 			}
1678:main.c        **** 		}
1679:main.c        **** 		if(drawing_state == 0){
 2050              		.loc 1 1679 0 is_stmt 1
 2051 007c 002B     		cmp	r3, #0
 2052 007e 40F00581 		bne	.L99
1680:main.c        **** 			if(x > 400 && x < 480 && y > 240 && y < 260){
 2053              		.loc 1 1680 0
 2054 0082 A4F29113 		subw	r3, r4, #401
 2055 0086 4E2B     		cmp	r3, #78
 2056 0088 07D8     		bhi	.L100
 2057              		.loc 1 1680 0 is_stmt 0 discriminator 1
 2058 008a A5F1F103 		sub	r3, r5, #241
 2059 008e 122B     		cmp	r3, #18
 2060 0090 03D8     		bhi	.L100
1681:main.c        **** 				drawing_state = -1;
 2061              		.loc 1 1681 0 is_stmt 1
 2062 0092 4FF0FF32 		mov	r2, #-1
 2063 0096 9F4B     		ldr	r3, .L136+20
 2064 0098 1A60     		str	r2, [r3]
 2065              	.L100:
1682:main.c        **** 			}
1683:main.c        **** 			switch(state){
 2066              		.loc 1 1683 0
 2067 009a 9F4B     		ldr	r3, .L136+24
 2068 009c 1B68     		ldr	r3, [r3]
 2069 009e 012B     		cmp	r3, #1
 2070 00a0 6FD0     		beq	.L102
 2071 00a2 022B     		cmp	r3, #2
 2072 00a4 00F0B480 		beq	.L103
 2073 00a8 002B     		cmp	r3, #0
 2074 00aa 32D0     		beq	.L122
 2075              	.LVL71:
 2076              	.L101:
1684:main.c        **** 				case 0:
1685:main.c        **** 					if(x > 360 && x < 475 && y > 50 && y < 70){
1686:main.c        **** 						setPulsar();
1687:main.c        **** 					}
1688:main.c        **** 					if(x > 315 && x < 475 && y > 100 && y < 120){
1689:main.c        **** 						setEvolution();
1690:main.c        **** 					}
1691:main.c        **** 					if(x > 325 && x < 475 && y > 150 && y < 180){
1692:main.c        **** 						setFountain();
1693:main.c        **** 					}
1694:main.c        **** 					if(x > 315 && x < 475 && y > 190 && y < 210){
1695:main.c        **** 						setCrocodile();
1696:main.c        **** 					}
1697:main.c        **** 					if(x > 280 && x < 340 && y >= 0 && y < 15){
1698:main.c        **** 						state++;
1699:main.c        **** 						state_changed = 1;
1700:main.c        **** 					}
ARM GAS  C:\Users\lenovo\AppData\Local\Temp\ccfgRfuq.s 			page 75


1701:main.c        **** 					break;
1702:main.c        **** 				case 1:
1703:main.c        **** 					if(x > 380 && x < 475 && y > 50 && y < 70){
1704:main.c        **** 						setHertzOscillator();
1705:main.c        **** 					}
1706:main.c        **** 					if(x > 290 && x < 475 && y > 100 && y < 120){
1707:main.c        **** 						setCopperhead();
1708:main.c        **** 					}
1709:main.c        **** 					if(x > 325 && x < 475 && y > 140 && y < 160){
1710:main.c        **** 						setFigureEigth();				
1711:main.c        **** 					}
1712:main.c        **** 					if(x > 380 && x < 475 && y > 190 && y < 220){
1713:main.c        **** 						setQueenBee();
1714:main.c        **** 					}
1715:main.c        **** 					if(x > 280 && x < 340 && y >= 0 && y < 15){
1716:main.c        **** 						state++;
1717:main.c        **** 						state_changed = 1;
1718:main.c        **** 					}
1719:main.c        **** 					if(x > 280 && x < 340 && y > 240 && y < 272){
1720:main.c        **** 						state--;
1721:main.c        **** 						state_changed = 1;
1722:main.c        **** 					}
1723:main.c        **** 					break;
1724:main.c        **** 				case 2:
1725:main.c        **** 					if(x > 385 && x < 475 && y > 55 && y < 80){
1726:main.c        **** 						setLWSS();
1727:main.c        **** 					}
1728:main.c        **** 					if(x > 285 && x < 475 && y > 100 && y < 120){
1729:main.c        **** 						setCloverleaf();
1730:main.c        **** 					}
1731:main.c        **** 					if(x > 350 && x < 475 && y > 150 && y < 170){
1732:main.c        **** 						setBeacon();				
1733:main.c        **** 					}
1734:main.c        **** 					if(x > 300 && x < 475 && y > 190 && y < 210){
1735:main.c        **** 						setGameOfLife();				
1736:main.c        **** 					}
1737:main.c        **** 					if(x > 280 && x < 340 && y > 240 && y < 272){
1738:main.c        **** 						state--;
1739:main.c        **** 						state_changed = 1;
1740:main.c        **** 					}
1741:main.c        **** 					break;
1742:main.c        **** 				
1743:main.c        **** 			}
1744:main.c        **** 			xprintf("%u ",TS_State.touchX[0]);
 2077              		.loc 1 1744 0
 2078 00ac 9B4C     		ldr	r4, .L136+28
 2079 00ae 6188     		ldrh	r1, [r4, #2]
 2080 00b0 9B48     		ldr	r0, .L136+32
 2081 00b2 FFF7FEFF 		bl	xprintf
 2082              	.LVL72:
1745:main.c        **** 			xprintf("%u\n",TS_State.touchY[0]);
 2083              		.loc 1 1745 0
 2084 00b6 A189     		ldrh	r1, [r4, #12]
 2085 00b8 9A48     		ldr	r0, .L136+36
 2086 00ba FFF7FEFF 		bl	xprintf
 2087              	.LVL73:
 2088              	.L93:
ARM GAS  C:\Users\lenovo\AppData\Local\Temp\ccfgRfuq.s 			page 76


1655:main.c        **** 	BSP_TS_GetState(&TS_State);
 2089              		.loc 1 1655 0
 2090 00be 6420     		movs	r0, #100
 2091 00c0 FFF7FEFF 		bl	vTaskDelay
 2092              	.LVL74:
1656:main.c        **** 	if(TS_State.touchDetected)
 2093              		.loc 1 1656 0
 2094 00c4 954C     		ldr	r4, .L136+28
 2095 00c6 2046     		mov	r0, r4
 2096 00c8 FFF7FEFF 		bl	BSP_TS_GetState
 2097              	.LVL75:
1657:main.c        **** 	{
 2098              		.loc 1 1657 0
 2099 00cc 2378     		ldrb	r3, [r4]	@ zero_extendqisi2
 2100 00ce 002B     		cmp	r3, #0
 2101 00d0 F5D0     		beq	.L93
1659:main.c        **** 		y = TS_State.touchY[0];
 2102              		.loc 1 1659 0
 2103 00d2 2346     		mov	r3, r4
 2104 00d4 6488     		ldrh	r4, [r4, #2]
 2105              	.LVL76:
1660:main.c        **** 		if(drawing_state != -1){
 2106              		.loc 1 1660 0
 2107 00d6 9D89     		ldrh	r5, [r3, #12]
 2108              	.LVL77:
1661:main.c        **** 			if(x > 365 && x < 395 && y > 0 && y < 21){
 2109              		.loc 1 1661 0
 2110 00d8 8E4B     		ldr	r3, .L136+20
 2111 00da 1B68     		ldr	r3, [r3]
 2112 00dc B3F1FF3F 		cmp	r3, #-1
 2113 00e0 CCD0     		beq	.L94
1662:main.c        **** 				if(delay < 5000){
 2114              		.loc 1 1662 0
 2115 00e2 A4F5B772 		sub	r2, r4, #366
 2116 00e6 1C2A     		cmp	r2, #28
 2117 00e8 A6D8     		bhi	.L95
1662:main.c        **** 				if(delay < 5000){
 2118              		.loc 1 1662 0 is_stmt 0 discriminator 1
 2119 00ea 6A1E     		subs	r2, r5, #1
 2120 00ec 132A     		cmp	r2, #19
 2121 00ee A3D8     		bhi	.L95
1663:main.c        **** 					delay*=5;
 2122              		.loc 1 1663 0 is_stmt 1
 2123 00f0 854A     		ldr	r2, .L136+8
 2124 00f2 1268     		ldr	r2, [r2]
 2125 00f4 41F28731 		movw	r1, #4999
 2126 00f8 8A42     		cmp	r2, r1
 2127 00fa 9DDC     		bgt	.L95
1664:main.c        **** 					delay/=4;
 2128              		.loc 1 1664 0
 2129 00fc 02EB8202 		add	r2, r2, r2, lsl #2
1665:main.c        **** 				}
 2130              		.loc 1 1665 0
 2131 0100 1146     		mov	r1, r2
 2132 0102 002A     		cmp	r2, #0
 2133 0104 95DA     		bge	.L96
 2134 0106 D11C     		adds	r1, r2, #3
ARM GAS  C:\Users\lenovo\AppData\Local\Temp\ccfgRfuq.s 			page 77


 2135 0108 93E7     		b	.L96
 2136              	.L98:
1676:main.c        **** 			}
 2137              		.loc 1 1676 0
 2138 010a 0121     		movs	r1, #1
 2139 010c 804A     		ldr	r2, .L136+16
 2140 010e 1160     		str	r1, [r2]
 2141 0110 B4E7     		b	.L94
 2142              	.L122:
1685:main.c        **** 						setPulsar();
 2143              		.loc 1 1685 0
 2144 0112 A4F26913 		subw	r3, r4, #361
 2145 0116 712B     		cmp	r3, #113
 2146 0118 03D8     		bhi	.L105
1685:main.c        **** 						setPulsar();
 2147              		.loc 1 1685 0 is_stmt 0 discriminator 1
 2148 011a A5F13303 		sub	r3, r5, #51
 2149 011e 122B     		cmp	r3, #18
 2150 0120 23D9     		bls	.L123
 2151              	.L105:
1688:main.c        **** 						setEvolution();
 2152              		.loc 1 1688 0 is_stmt 1
 2153 0122 A4F59E76 		sub	r6, r4, #316
 2154 0126 9E2E     		cmp	r6, #158
 2155 0128 03D8     		bhi	.L106
1688:main.c        **** 						setEvolution();
 2156              		.loc 1 1688 0 is_stmt 0 discriminator 1
 2157 012a A5F16503 		sub	r3, r5, #101
 2158 012e 122B     		cmp	r3, #18
 2159 0130 1ED9     		bls	.L124
 2160              	.L106:
1691:main.c        **** 						setFountain();
 2161              		.loc 1 1691 0 is_stmt 1
 2162 0132 A4F5A373 		sub	r3, r4, #326
 2163 0136 942B     		cmp	r3, #148
 2164 0138 03D8     		bhi	.L107
1691:main.c        **** 						setFountain();
 2165              		.loc 1 1691 0 is_stmt 0 discriminator 1
 2166 013a A5F19703 		sub	r3, r5, #151
 2167 013e 1C2B     		cmp	r3, #28
 2168 0140 19D9     		bls	.L125
 2169              	.L107:
1694:main.c        **** 						setCrocodile();
 2170              		.loc 1 1694 0 is_stmt 1
 2171 0142 9E2E     		cmp	r6, #158
 2172 0144 03D8     		bhi	.L108
1694:main.c        **** 						setCrocodile();
 2173              		.loc 1 1694 0 is_stmt 0 discriminator 1
 2174 0146 A5F1BF03 		sub	r3, r5, #191
 2175 014a 122B     		cmp	r3, #18
 2176 014c 16D9     		bls	.L126
 2177              	.L108:
1697:main.c        **** 						state++;
 2178              		.loc 1 1697 0 is_stmt 1
 2179 014e A4F21914 		subw	r4, r4, #281
 2180              	.LVL78:
 2181 0152 3A2C     		cmp	r4, #58
ARM GAS  C:\Users\lenovo\AppData\Local\Temp\ccfgRfuq.s 			page 78


 2182 0154 AAD8     		bhi	.L101
1697:main.c        **** 						state++;
 2183              		.loc 1 1697 0 is_stmt 0 discriminator 1
 2184 0156 0E2D     		cmp	r5, #14
 2185 0158 A8D8     		bhi	.L101
1698:main.c        **** 						state_changed = 1;
 2186              		.loc 1 1698 0 is_stmt 1
 2187 015a 6F4A     		ldr	r2, .L136+24
 2188 015c 1368     		ldr	r3, [r2]
 2189 015e 0133     		adds	r3, r3, #1
 2190 0160 1360     		str	r3, [r2]
1699:main.c        **** 					}
 2191              		.loc 1 1699 0
 2192 0162 0122     		movs	r2, #1
 2193 0164 704B     		ldr	r3, .L136+40
 2194 0166 1A60     		str	r2, [r3]
 2195 0168 A0E7     		b	.L101
 2196              	.LVL79:
 2197              	.L123:
1686:main.c        **** 					}
 2198              		.loc 1 1686 0
 2199 016a FFF7FEFF 		bl	setPulsar
 2200              	.LVL80:
 2201 016e D8E7     		b	.L105
 2202              	.L124:
1689:main.c        **** 					}
 2203              		.loc 1 1689 0
 2204 0170 FFF7FEFF 		bl	setEvolution
 2205              	.LVL81:
 2206 0174 DDE7     		b	.L106
 2207              	.L125:
1692:main.c        **** 					}
 2208              		.loc 1 1692 0
 2209 0176 FFF7FEFF 		bl	setFountain
 2210              	.LVL82:
 2211 017a E2E7     		b	.L107
 2212              	.L126:
1695:main.c        **** 					}
 2213              		.loc 1 1695 0
 2214 017c FFF7FEFF 		bl	setCrocodile
 2215              	.LVL83:
 2216 0180 E5E7     		b	.L108
 2217              	.L102:
1703:main.c        **** 						setHertzOscillator();
 2218              		.loc 1 1703 0
 2219 0182 A4F27D16 		subw	r6, r4, #381
 2220 0186 5D2E     		cmp	r6, #93
 2221 0188 03D8     		bhi	.L109
1703:main.c        **** 						setHertzOscillator();
 2222              		.loc 1 1703 0 is_stmt 0 discriminator 1
 2223 018a A5F13303 		sub	r3, r5, #51
 2224 018e 122B     		cmp	r3, #18
 2225 0190 32D9     		bls	.L127
 2226              	.L109:
1706:main.c        **** 						setCopperhead();
 2227              		.loc 1 1706 0 is_stmt 1
 2228 0192 A4F22313 		subw	r3, r4, #291
ARM GAS  C:\Users\lenovo\AppData\Local\Temp\ccfgRfuq.s 			page 79


 2229 0196 B72B     		cmp	r3, #183
 2230 0198 03D8     		bhi	.L110
1706:main.c        **** 						setCopperhead();
 2231              		.loc 1 1706 0 is_stmt 0 discriminator 1
 2232 019a A5F16503 		sub	r3, r5, #101
 2233 019e 122B     		cmp	r3, #18
 2234 01a0 2DD9     		bls	.L128
 2235              	.L110:
1709:main.c        **** 						setFigureEigth();				
 2236              		.loc 1 1709 0 is_stmt 1
 2237 01a2 A4F5A373 		sub	r3, r4, #326
 2238 01a6 942B     		cmp	r3, #148
 2239 01a8 03D8     		bhi	.L111
1709:main.c        **** 						setFigureEigth();				
 2240              		.loc 1 1709 0 is_stmt 0 discriminator 1
 2241 01aa A5F18D03 		sub	r3, r5, #141
 2242 01ae 122B     		cmp	r3, #18
 2243 01b0 28D9     		bls	.L129
 2244              	.L111:
1712:main.c        **** 						setQueenBee();
 2245              		.loc 1 1712 0 is_stmt 1
 2246 01b2 5D2E     		cmp	r6, #93
 2247 01b4 03D8     		bhi	.L112
1712:main.c        **** 						setQueenBee();
 2248              		.loc 1 1712 0 is_stmt 0 discriminator 1
 2249 01b6 A5F1BF03 		sub	r3, r5, #191
 2250 01ba 1C2B     		cmp	r3, #28
 2251 01bc 25D9     		bls	.L130
 2252              	.L112:
1715:main.c        **** 						state++;
 2253              		.loc 1 1715 0 is_stmt 1
 2254 01be A4F21914 		subw	r4, r4, #281
 2255              	.LVL84:
 2256 01c2 3A2C     		cmp	r4, #58
 2257 01c4 08D8     		bhi	.L113
1715:main.c        **** 						state++;
 2258              		.loc 1 1715 0 is_stmt 0 discriminator 1
 2259 01c6 0E2D     		cmp	r5, #14
 2260 01c8 06D8     		bhi	.L113
1716:main.c        **** 						state_changed = 1;
 2261              		.loc 1 1716 0 is_stmt 1
 2262 01ca 534A     		ldr	r2, .L136+24
 2263 01cc 1368     		ldr	r3, [r2]
 2264 01ce 0133     		adds	r3, r3, #1
 2265 01d0 1360     		str	r3, [r2]
1717:main.c        **** 					}
 2266              		.loc 1 1717 0
 2267 01d2 0122     		movs	r2, #1
 2268 01d4 544B     		ldr	r3, .L136+40
 2269 01d6 1A60     		str	r2, [r3]
 2270              	.L113:
1719:main.c        **** 						state--;
 2271              		.loc 1 1719 0
 2272 01d8 3A2C     		cmp	r4, #58
 2273 01da 3FF667AF 		bhi	.L101
1719:main.c        **** 						state--;
 2274              		.loc 1 1719 0 is_stmt 0 discriminator 1
ARM GAS  C:\Users\lenovo\AppData\Local\Temp\ccfgRfuq.s 			page 80


 2275 01de A5F1F103 		sub	r3, r5, #241
 2276 01e2 1E2B     		cmp	r3, #30
 2277 01e4 3FF662AF 		bhi	.L101
1720:main.c        **** 						state_changed = 1;
 2278              		.loc 1 1720 0 is_stmt 1
 2279 01e8 4B4A     		ldr	r2, .L136+24
 2280 01ea 1368     		ldr	r3, [r2]
 2281 01ec 013B     		subs	r3, r3, #1
 2282 01ee 1360     		str	r3, [r2]
1721:main.c        **** 					}
 2283              		.loc 1 1721 0
 2284 01f0 0122     		movs	r2, #1
 2285 01f2 4D4B     		ldr	r3, .L136+40
 2286 01f4 1A60     		str	r2, [r3]
 2287 01f6 59E7     		b	.L101
 2288              	.LVL85:
 2289              	.L127:
1704:main.c        **** 					}
 2290              		.loc 1 1704 0
 2291 01f8 FFF7FEFF 		bl	setHertzOscillator
 2292              	.LVL86:
 2293 01fc C9E7     		b	.L109
 2294              	.L128:
1707:main.c        **** 					}
 2295              		.loc 1 1707 0
 2296 01fe FFF7FEFF 		bl	setCopperhead
 2297              	.LVL87:
 2298 0202 CEE7     		b	.L110
 2299              	.L129:
1710:main.c        **** 					}
 2300              		.loc 1 1710 0
 2301 0204 FFF7FEFF 		bl	setFigureEigth
 2302              	.LVL88:
 2303 0208 D3E7     		b	.L111
 2304              	.L130:
1713:main.c        **** 					}
 2305              		.loc 1 1713 0
 2306 020a FFF7FEFF 		bl	setQueenBee
 2307              	.LVL89:
 2308 020e D6E7     		b	.L112
 2309              	.L103:
1725:main.c        **** 						setLWSS();
 2310              		.loc 1 1725 0
 2311 0210 A4F5C173 		sub	r3, r4, #386
 2312 0214 582B     		cmp	r3, #88
 2313 0216 03D8     		bhi	.L114
1725:main.c        **** 						setLWSS();
 2314              		.loc 1 1725 0 is_stmt 0 discriminator 1
 2315 0218 A5F13803 		sub	r3, r5, #56
 2316 021c 172B     		cmp	r3, #23
 2317 021e 29D9     		bls	.L131
 2318              	.L114:
1728:main.c        **** 						setCloverleaf();
 2319              		.loc 1 1728 0 is_stmt 1
 2320 0220 A4F58F73 		sub	r3, r4, #286
 2321 0224 BC2B     		cmp	r3, #188
 2322 0226 03D8     		bhi	.L115
ARM GAS  C:\Users\lenovo\AppData\Local\Temp\ccfgRfuq.s 			page 81


1728:main.c        **** 						setCloverleaf();
 2323              		.loc 1 1728 0 is_stmt 0 discriminator 1
 2324 0228 A5F16503 		sub	r3, r5, #101
 2325 022c 122B     		cmp	r3, #18
 2326 022e 24D9     		bls	.L132
 2327              	.L115:
1731:main.c        **** 						setBeacon();				
 2328              		.loc 1 1731 0 is_stmt 1
 2329 0230 A4F25F13 		subw	r3, r4, #351
 2330 0234 7B2B     		cmp	r3, #123
 2331 0236 03D8     		bhi	.L116
1731:main.c        **** 						setBeacon();				
 2332              		.loc 1 1731 0 is_stmt 0 discriminator 1
 2333 0238 A5F19703 		sub	r3, r5, #151
 2334 023c 122B     		cmp	r3, #18
 2335 023e 1FD9     		bls	.L133
 2336              	.L116:
1734:main.c        **** 						setGameOfLife();				
 2337              		.loc 1 1734 0 is_stmt 1
 2338 0240 A4F22D13 		subw	r3, r4, #301
 2339 0244 AD2B     		cmp	r3, #173
 2340 0246 03D8     		bhi	.L117
1734:main.c        **** 						setGameOfLife();				
 2341              		.loc 1 1734 0 is_stmt 0 discriminator 1
 2342 0248 A5F1BF03 		sub	r3, r5, #191
 2343 024c 122B     		cmp	r3, #18
 2344 024e 1AD9     		bls	.L134
 2345              	.L117:
1737:main.c        **** 						state--;
 2346              		.loc 1 1737 0 is_stmt 1
 2347 0250 A4F21914 		subw	r4, r4, #281
 2348              	.LVL90:
 2349 0254 3A2C     		cmp	r4, #58
 2350 0256 3FF629AF 		bhi	.L101
1737:main.c        **** 						state--;
 2351              		.loc 1 1737 0 is_stmt 0 discriminator 1
 2352 025a A5F1F103 		sub	r3, r5, #241
 2353 025e 1E2B     		cmp	r3, #30
 2354 0260 3FF624AF 		bhi	.L101
1738:main.c        **** 						state_changed = 1;
 2355              		.loc 1 1738 0 is_stmt 1
 2356 0264 2C4A     		ldr	r2, .L136+24
 2357 0266 1368     		ldr	r3, [r2]
 2358 0268 013B     		subs	r3, r3, #1
 2359 026a 1360     		str	r3, [r2]
1739:main.c        **** 					}
 2360              		.loc 1 1739 0
 2361 026c 0122     		movs	r2, #1
 2362 026e 2E4B     		ldr	r3, .L136+40
 2363 0270 1A60     		str	r2, [r3]
 2364 0272 1BE7     		b	.L101
 2365              	.LVL91:
 2366              	.L131:
1726:main.c        **** 					}
 2367              		.loc 1 1726 0
 2368 0274 FFF7FEFF 		bl	setLWSS
 2369              	.LVL92:
ARM GAS  C:\Users\lenovo\AppData\Local\Temp\ccfgRfuq.s 			page 82


 2370 0278 D2E7     		b	.L114
 2371              	.L132:
1729:main.c        **** 					}
 2372              		.loc 1 1729 0
 2373 027a FFF7FEFF 		bl	setCloverleaf
 2374              	.LVL93:
 2375 027e D7E7     		b	.L115
 2376              	.L133:
1732:main.c        **** 					}
 2377              		.loc 1 1732 0
 2378 0280 FFF7FEFF 		bl	setBeacon
 2379              	.LVL94:
 2380 0284 DCE7     		b	.L116
 2381              	.L134:
1735:main.c        **** 					}
 2382              		.loc 1 1735 0
 2383 0286 FFF7FEFF 		bl	setGameOfLife
 2384              	.LVL95:
 2385 028a E1E7     		b	.L117
 2386              	.L99:
 2387              	.LBB20:
1746:main.c        **** 		}
1747:main.c        **** 	else{
1748:main.c        **** 		if(x > 400 && x < 480 && y > 240 && y < 260){
 2388              		.loc 1 1748 0
 2389 028c A4F29113 		subw	r3, r4, #401
 2390 0290 4E2B     		cmp	r3, #78
 2391 0292 06D8     		bhi	.L119
 2392              		.loc 1 1748 0 is_stmt 0 discriminator 1
 2393 0294 A5F1F103 		sub	r3, r5, #241
 2394 0298 122B     		cmp	r3, #18
 2395 029a 02D8     		bhi	.L119
1749:main.c        **** 			drawing_state = 0;		
 2396              		.loc 1 1749 0 is_stmt 1
 2397 029c 0022     		movs	r2, #0
 2398 029e 1D4B     		ldr	r3, .L136+20
 2399 02a0 1A60     		str	r2, [r3]
 2400              	.L119:
1750:main.c        **** 		}
1751:main.c        **** 		int i = x/30;
 2401              		.loc 1 1751 0
 2402 02a2 224A     		ldr	r2, .L136+44
 2403 02a4 82FB0413 		smull	r1, r3, r2, r4
 2404 02a8 1C44     		add	r4, r4, r3
 2405              	.LVL96:
 2406 02aa 2411     		asrs	r4, r4, #4
 2407              	.LVL97:
1752:main.c        **** 		int j = y/30;
 2408              		.loc 1 1752 0
 2409 02ac 82FB0523 		smull	r2, r3, r2, r5
 2410 02b0 2B44     		add	r3, r3, r5
 2411 02b2 1B11     		asrs	r3, r3, #4
 2412              	.LVL98:
1753:main.c        **** 		if(i<9 && j<9){
 2413              		.loc 1 1753 0
 2414 02b4 082C     		cmp	r4, #8
 2415 02b6 D8BF     		it	le
ARM GAS  C:\Users\lenovo\AppData\Local\Temp\ccfgRfuq.s 			page 83


 2416 02b8 082B     		cmple	r3, #8
 2417 02ba 3FF700AF 		bgt	.L93
1754:main.c        **** 			if(table[9+i][9+j] == 1){
 2418              		.loc 1 1754 0
 2419 02be 0934     		adds	r4, r4, #9
 2420              	.LVL99:
 2421 02c0 0933     		adds	r3, r3, #9
 2422              	.LVL100:
 2423 02c2 04EB4402 		add	r2, r4, r4, lsl #1
 2424 02c6 02EBC202 		add	r2, r2, r2, lsl #3
 2425 02ca 1A44     		add	r2, r2, r3
 2426 02cc 1849     		ldr	r1, .L136+48
 2427 02ce 51F82220 		ldr	r2, [r1, r2, lsl #2]
 2428 02d2 012A     		cmp	r2, #1
 2429 02d4 09D0     		beq	.L135
1755:main.c        **** 				table[9+i][9+j] = 0;
1756:main.c        **** 			}
1757:main.c        **** 			else{
1758:main.c        **** 				table[9+i][9+j] = 1;
 2430              		.loc 1 1758 0
 2431 02d6 04EB4404 		add	r4, r4, r4, lsl #1
 2432              	.LVL101:
 2433 02da 04EBC404 		add	r4, r4, r4, lsl #3
 2434 02de 1C44     		add	r4, r4, r3
 2435 02e0 0122     		movs	r2, #1
 2436 02e2 134B     		ldr	r3, .L136+48
 2437              	.LVL102:
 2438 02e4 43F82420 		str	r2, [r3, r4, lsl #2]
 2439 02e8 E9E6     		b	.L93
 2440              	.L135:
1755:main.c        **** 				table[9+i][9+j] = 0;
 2441              		.loc 1 1755 0
 2442 02ea 04EB4404 		add	r4, r4, r4, lsl #1
 2443 02ee 04EBC404 		add	r4, r4, r4, lsl #3
 2444 02f2 2344     		add	r3, r3, r4
 2445 02f4 0021     		movs	r1, #0
 2446 02f6 0E4A     		ldr	r2, .L136+48
 2447 02f8 42F82310 		str	r1, [r2, r3, lsl #2]
 2448 02fc DFE6     		b	.L93
 2449              	.L137:
 2450 02fe 00BF     		.align	2
 2451              	.L136:
 2452 0300 00000000 		.word	.LANCHOR4
 2453 0304 00000000 		.word	tableTaskHandle
 2454 0308 00000000 		.word	.LANCHOR3
 2455 030c 67666666 		.word	1717986919
 2456 0310 00000000 		.word	.LANCHOR7
 2457 0314 00000000 		.word	.LANCHOR6
 2458 0318 00000000 		.word	.LANCHOR8
 2459 031c 00000000 		.word	.LANCHOR5
 2460 0320 00000000 		.word	.LC6
 2461 0324 04000000 		.word	.LC7
 2462 0328 00000000 		.word	.LANCHOR9
 2463 032c 89888888 		.word	-2004318071
 2464 0330 00000000 		.word	.LANCHOR2
 2465              	.LBE20:
 2466              		.cfi_endproc
ARM GAS  C:\Users\lenovo\AppData\Local\Temp\ccfgRfuq.s 			page 84


 2467              	.LFE214:
 2469              		.section	.text.setGun,"ax",%progbits
 2470              		.align	1
 2471              		.global	setGun
 2472              		.syntax unified
 2473              		.thumb
 2474              		.thumb_func
 2475              		.fpu fpv5-sp-d16
 2477              	setGun:
 2478              	.LFB172:
 459:figures.c     ****   }
 460:figures.c     ****   
 461:figures.c     ****   void setGun(){
 2479              		.loc 2 461 0
 2480              		.cfi_startproc
 2481              		@ args = 0, pretend = 0, frame = 0
 2482              		@ frame_needed = 0, uses_anonymous_args = 0
 2483 0000 08B5     		push	{r3, lr}
 2484              	.LCFI22:
 2485              		.cfi_def_cfa_offset 8
 2486              		.cfi_offset 3, -8
 2487              		.cfi_offset 14, -4
 462:figures.c     ****   	clearTable();
 2488              		.loc 2 462 0
 2489 0002 FFF7FEFF 		bl	clearTable
 2490              	.LVL103:
 463:figures.c     **** 
 464:figures.c     **** 	table[2][12]=1;
 2491              		.loc 2 464 0
 2492 0006 254B     		ldr	r3, .L140
 2493 0008 0122     		movs	r2, #1
 2494 000a C3F80821 		str	r2, [r3, #264]
 465:figures.c     **** 	table[2][13]=1;
 2495              		.loc 2 465 0
 2496 000e C3F80C21 		str	r2, [r3, #268]
 466:figures.c     **** 	table[3][12]=1;
 2497              		.loc 2 466 0
 2498 0012 C3F87421 		str	r2, [r3, #372]
 467:figures.c     **** 	table[3][13]=1;
 2499              		.loc 2 467 0
 2500 0016 C3F87821 		str	r2, [r3, #376]
 468:figures.c     **** 
 469:figures.c     **** 	table[12][12]=1;
 2501              		.loc 2 469 0
 2502 001a C3F84025 		str	r2, [r3, #1344]
 470:figures.c     **** 	table[12][13]=1;
 2503              		.loc 2 470 0
 2504 001e C3F84425 		str	r2, [r3, #1348]
 471:figures.c     **** 	table[12][14]=1;
 2505              		.loc 2 471 0
 2506 0022 C3F84825 		str	r2, [r3, #1352]
 472:figures.c     **** 	table[13][11]=1;
 2507              		.loc 2 472 0
 2508 0026 C3F8A825 		str	r2, [r3, #1448]
 473:figures.c     **** 	table[13][15]=1;
 2509              		.loc 2 473 0
 2510 002a C3F8B825 		str	r2, [r3, #1464]
ARM GAS  C:\Users\lenovo\AppData\Local\Temp\ccfgRfuq.s 			page 85


 474:figures.c     **** 	table[14][16]=1;
 2511              		.loc 2 474 0
 2512 002e C3F82826 		str	r2, [r3, #1576]
 475:figures.c     **** 	table[15][16]=1;
 2513              		.loc 2 475 0
 2514 0032 C3F89426 		str	r2, [r3, #1684]
 476:figures.c     **** 	table[14][10]=1;
 2515              		.loc 2 476 0
 2516 0036 C3F81026 		str	r2, [r3, #1552]
 477:figures.c     **** 	table[15][10]=1;
 2517              		.loc 2 477 0
 2518 003a C3F87C26 		str	r2, [r3, #1660]
 478:figures.c     **** 	table[16][13]=1; 
 2519              		.loc 2 478 0
 2520 003e C3F8F426 		str	r2, [r3, #1780]
 479:figures.c     **** 	table[17][11]=1;
 2521              		.loc 2 479 0
 2522 0042 C3F85827 		str	r2, [r3, #1880]
 480:figures.c     **** 	table[18][12]=1;
 2523              		.loc 2 480 0
 2524 0046 C3F8C827 		str	r2, [r3, #1992]
 481:figures.c     **** 	table[18][13]=1;
 2525              		.loc 2 481 0
 2526 004a C3F8CC27 		str	r2, [r3, #1996]
 482:figures.c     **** 	table[18][14]=1;
 2527              		.loc 2 482 0
 2528 004e C3F8D027 		str	r2, [r3, #2000]
 483:figures.c     **** 	table[19][13]=1;
 2529              		.loc 2 483 0
 2530 0052 C3F83828 		str	r2, [r3, #2104]
 484:figures.c     **** 	table[17][15]=1;
 2531              		.loc 2 484 0
 2532 0056 C3F86827 		str	r2, [r3, #1896]
 485:figures.c     **** 
 486:figures.c     **** 	table[22][10]=1;
 2533              		.loc 2 486 0
 2534 005a C3F87029 		str	r2, [r3, #2416]
 487:figures.c     **** 	table[22][11]=1;
 2535              		.loc 2 487 0
 2536 005e C3F87429 		str	r2, [r3, #2420]
 488:figures.c     **** 	table[22][12]=1;
 2537              		.loc 2 488 0
 2538 0062 C3F87829 		str	r2, [r3, #2424]
 489:figures.c     **** 	table[23][10]=1;
 2539              		.loc 2 489 0
 2540 0066 C3F8DC29 		str	r2, [r3, #2524]
 490:figures.c     **** 	table[23][11]=1;
 2541              		.loc 2 490 0
 2542 006a C3F8E029 		str	r2, [r3, #2528]
 491:figures.c     **** 	table[23][12]=1;
 2543              		.loc 2 491 0
 2544 006e C3F8E429 		str	r2, [r3, #2532]
 492:figures.c     **** 	table[24][9]=1;
 2545              		.loc 2 492 0
 2546 0072 C3F8442A 		str	r2, [r3, #2628]
 493:figures.c     **** 	table[24][13]=1;
 2547              		.loc 2 493 0
ARM GAS  C:\Users\lenovo\AppData\Local\Temp\ccfgRfuq.s 			page 86


 2548 0076 C3F8542A 		str	r2, [r3, #2644]
 494:figures.c     **** 	table[26][8]=1;
 2549              		.loc 2 494 0
 2550 007a C3F8182B 		str	r2, [r3, #2840]
 495:figures.c     **** 	table[26][9]=1;
 2551              		.loc 2 495 0
 2552 007e C3F81C2B 		str	r2, [r3, #2844]
 496:figures.c     **** 	table[26][13]=1;
 2553              		.loc 2 496 0
 2554 0082 C3F82C2B 		str	r2, [r3, #2860]
 497:figures.c     **** 	table[26][14]=1;
 2555              		.loc 2 497 0
 2556 0086 C3F8302B 		str	r2, [r3, #2864]
 498:figures.c     **** 
 499:figures.c     **** 	table[36][10]=1;
 2557              		.loc 2 499 0
 2558 008a C3F8582F 		str	r2, [r3, #3928]
 500:figures.c     **** 	table[36][11]=1;
 2559              		.loc 2 500 0
 2560 008e C3F85C2F 		str	r2, [r3, #3932]
 501:figures.c     **** 	table[37][10]=1;
 2561              		.loc 2 501 0
 2562 0092 C3F8C42F 		str	r2, [r3, #4036]
 502:figures.c     **** 	table[37][11]=1;
 2563              		.loc 2 502 0
 2564 0096 C3F8C82F 		str	r2, [r3, #4040]
 2565 009a 08BD     		pop	{r3, pc}
 2566              	.L141:
 2567              		.align	2
 2568              	.L140:
 2569 009c 00000000 		.word	.LANCHOR2
 2570              		.cfi_endproc
 2571              	.LFE172:
 2573              		.section	.text.count_neighbours,"ax",%progbits
 2574              		.align	1
 2575              		.global	count_neighbours
 2576              		.syntax unified
 2577              		.thumb
 2578              		.thumb_func
 2579              		.fpu fpv5-sp-d16
 2581              	count_neighbours:
 2582              	.LFB173:
 2583              		.file 3 "gameOfLife.c"
   1:gameOfLife.c  **** #include "figures.c"
   2:gameOfLife.c  **** 
   3:gameOfLife.c  **** int count_neighbours(int x, int y){
 2584              		.loc 3 3 0
 2585              		.cfi_startproc
 2586              		@ args = 0, pretend = 0, frame = 0
 2587              		@ frame_needed = 0, uses_anonymous_args = 0
 2588              	.LVL104:
 2589 0000 F0B5     		push	{r4, r5, r6, r7, lr}
 2590              	.LCFI23:
 2591              		.cfi_def_cfa_offset 20
 2592              		.cfi_offset 4, -20
 2593              		.cfi_offset 5, -16
 2594              		.cfi_offset 6, -12
ARM GAS  C:\Users\lenovo\AppData\Local\Temp\ccfgRfuq.s 			page 87


 2595              		.cfi_offset 7, -8
 2596              		.cfi_offset 14, -4
 2597              	.LVL105:
 2598              	.LBB21:
   4:gameOfLife.c  **** 	int sum = 0;
   5:gameOfLife.c  **** 	int a = x - 1;
   6:gameOfLife.c  **** 	int b = y - 1;
   7:gameOfLife.c  **** 	for(int i = 0; i < 3; i++){
 2599              		.loc 3 7 0
 2600 0002 0026     		movs	r6, #0
 2601              	.LBE21:
   4:gameOfLife.c  **** 	int sum = 0;
 2602              		.loc 3 4 0
 2603 0004 3746     		mov	r7, r6
 2604              	.LBB23:
 2605              		.loc 3 7 0
 2606 0006 27E0     		b	.L143
 2607              	.LVL106:
 2608              	.L144:
 2609              	.LBB22:
   8:gameOfLife.c  **** 		for(int j = 0; j < 3; j++){
   9:gameOfLife.c  **** 			sum += table[(X_SIZE+a+i)%X_SIZE][(Y_SIZE+b+j)%Y_SIZE];
 2610              		.loc 3 9 0 discriminator 3
 2611 0008 00F11A04 		add	r4, r0, #26
 2612 000c 3444     		add	r4, r4, r6
 2613 000e 194A     		ldr	r2, .L149
 2614 0010 82FB043E 		smull	r3, lr, r2, r4
 2615 0014 E317     		asrs	r3, r4, #31
 2616 0016 C3EBEE03 		rsb	r3, r3, lr, asr #3
 2617 001a 03EB4303 		add	r3, r3, r3, lsl #1
 2618 001e 03EBC303 		add	r3, r3, r3, lsl #3
 2619 0022 E31A     		subs	r3, r4, r3
 2620 0024 01F11A04 		add	r4, r1, #26
 2621 0028 2C44     		add	r4, r4, r5
 2622 002a 82FB042E 		smull	r2, lr, r2, r4
 2623 002e E217     		asrs	r2, r4, #31
 2624 0030 C2EBEE02 		rsb	r2, r2, lr, asr #3
 2625 0034 02EB4202 		add	r2, r2, r2, lsl #1
 2626 0038 02EBC202 		add	r2, r2, r2, lsl #3
 2627 003c A21A     		subs	r2, r4, r2
 2628 003e 03EB4303 		add	r3, r3, r3, lsl #1
 2629 0042 03EBC303 		add	r3, r3, r3, lsl #3
 2630 0046 1344     		add	r3, r3, r2
 2631 0048 0B4A     		ldr	r2, .L149+4
 2632 004a 52F82330 		ldr	r3, [r2, r3, lsl #2]
 2633 004e 1F44     		add	r7, r7, r3
 2634              	.LVL107:
   8:gameOfLife.c  **** 		for(int j = 0; j < 3; j++){
 2635              		.loc 3 8 0 discriminator 3
 2636 0050 0135     		adds	r5, r5, #1
 2637              	.LVL108:
 2638              	.L145:
   8:gameOfLife.c  **** 		for(int j = 0; j < 3; j++){
 2639              		.loc 3 8 0 is_stmt 0 discriminator 1
 2640 0052 022D     		cmp	r5, #2
 2641 0054 D8DD     		ble	.L144
 2642              	.LBE22:
ARM GAS  C:\Users\lenovo\AppData\Local\Temp\ccfgRfuq.s 			page 88


   7:gameOfLife.c  **** 		for(int j = 0; j < 3; j++){
 2643              		.loc 3 7 0 is_stmt 1 discriminator 2
 2644 0056 0136     		adds	r6, r6, #1
 2645              	.LVL109:
 2646              	.L143:
   7:gameOfLife.c  **** 		for(int j = 0; j < 3; j++){
 2647              		.loc 3 7 0 is_stmt 0 discriminator 1
 2648 0058 022E     		cmp	r6, #2
 2649 005a 01DC     		bgt	.L148
 2650 005c 0025     		movs	r5, #0
 2651 005e F8E7     		b	.L145
 2652              	.L148:
 2653              	.LBE23:
  10:gameOfLife.c  **** 		}
  11:gameOfLife.c  **** 	}
  12:gameOfLife.c  **** 	sum -= table[x][y];
 2654              		.loc 3 12 0 is_stmt 1
 2655 0060 00EB4000 		add	r0, r0, r0, lsl #1
 2656              	.LVL110:
 2657 0064 00EBC000 		add	r0, r0, r0, lsl #3
 2658 0068 0144     		add	r1, r1, r0
 2659              	.LVL111:
 2660 006a 034B     		ldr	r3, .L149+4
 2661 006c 53F82100 		ldr	r0, [r3, r1, lsl #2]
 2662              	.LVL112:
  13:gameOfLife.c  **** 	return sum;
  14:gameOfLife.c  **** }
 2663              		.loc 3 14 0
 2664 0070 381A     		subs	r0, r7, r0
 2665              	.LVL113:
 2666 0072 F0BD     		pop	{r4, r5, r6, r7, pc}
 2667              	.LVL114:
 2668              	.L150:
 2669              		.align	2
 2670              	.L149:
 2671 0074 F712DA4B 		.word	1272582903
 2672 0078 00000000 		.word	.LANCHOR2
 2673              		.cfi_endproc
 2674              	.LFE173:
 2676              		.section	.text.update_table,"ax",%progbits
 2677              		.align	1
 2678              		.global	update_table
 2679              		.syntax unified
 2680              		.thumb
 2681              		.thumb_func
 2682              		.fpu fpv5-sp-d16
 2684              	update_table:
 2685              	.LFB174:
  15:gameOfLife.c  **** 
  16:gameOfLife.c  **** void update_table(){
 2686              		.loc 3 16 0
 2687              		.cfi_startproc
 2688              		@ args = 0, pretend = 0, frame = 2920
 2689              		@ frame_needed = 0, uses_anonymous_args = 0
 2690 0000 30B5     		push	{r4, r5, lr}
 2691              	.LCFI24:
 2692              		.cfi_def_cfa_offset 12
ARM GAS  C:\Users\lenovo\AppData\Local\Temp\ccfgRfuq.s 			page 89


 2693              		.cfi_offset 4, -12
 2694              		.cfi_offset 5, -8
 2695              		.cfi_offset 14, -4
 2696 0002 ADF66C3D 		subw	sp, sp, #2924
 2697              	.LCFI25:
 2698              		.cfi_def_cfa_offset 2936
  17:gameOfLife.c  **** 	int neigh[X_SIZE][Y_SIZE] = {0};
 2699              		.loc 3 17 0
 2700 0006 40F66432 		movw	r2, #2916
 2701 000a 0021     		movs	r1, #0
 2702 000c 01A8     		add	r0, sp, #4
 2703 000e FFF7FEFF 		bl	memset
 2704              	.LVL115:
 2705              	.LBB24:
  18:gameOfLife.c  **** 	for (int i = 0; i < X_SIZE; i++){
 2706              		.loc 3 18 0
 2707 0012 0025     		movs	r5, #0
 2708 0014 0FE0     		b	.L152
 2709              	.LVL116:
 2710              	.L153:
 2711              	.LBB25:
  19:gameOfLife.c  **** 	for (int j = 0; j < Y_SIZE; j++){
  20:gameOfLife.c  **** 		neigh[i][j] = count_neighbours(i,j);
 2712              		.loc 3 20 0 discriminator 3
 2713 0016 2146     		mov	r1, r4
 2714 0018 2846     		mov	r0, r5
 2715 001a FFF7FEFF 		bl	count_neighbours
 2716              	.LVL117:
 2717 001e 05EB4503 		add	r3, r5, r5, lsl #1
 2718 0022 03EBC303 		add	r3, r3, r3, lsl #3
 2719 0026 2344     		add	r3, r3, r4
 2720 0028 01AA     		add	r2, sp, #4
 2721 002a 42F82300 		str	r0, [r2, r3, lsl #2]
  19:gameOfLife.c  **** 	for (int j = 0; j < Y_SIZE; j++){
 2722              		.loc 3 19 0 discriminator 3
 2723 002e 0134     		adds	r4, r4, #1
 2724              	.LVL118:
 2725              	.L154:
  19:gameOfLife.c  **** 	for (int j = 0; j < Y_SIZE; j++){
 2726              		.loc 3 19 0 is_stmt 0 discriminator 1
 2727 0030 1A2C     		cmp	r4, #26
 2728 0032 F0DD     		ble	.L153
 2729              	.LBE25:
  18:gameOfLife.c  **** 	for (int i = 0; i < X_SIZE; i++){
 2730              		.loc 3 18 0 is_stmt 1 discriminator 2
 2731 0034 0135     		adds	r5, r5, #1
 2732              	.LVL119:
 2733              	.L152:
  18:gameOfLife.c  **** 	for (int i = 0; i < X_SIZE; i++){
 2734              		.loc 3 18 0 is_stmt 0 discriminator 1
 2735 0036 1A2D     		cmp	r5, #26
 2736 0038 01DC     		bgt	.L165
 2737 003a 0024     		movs	r4, #0
 2738 003c F8E7     		b	.L154
 2739              	.L165:
 2740 003e 0022     		movs	r2, #0
 2741 0040 49E0     		b	.L155
ARM GAS  C:\Users\lenovo\AppData\Local\Temp\ccfgRfuq.s 			page 90


 2742              	.LVL120:
 2743              	.L167:
 2744              	.LBE24:
 2745              	.LBB26:
 2746              	.LBB27:
  21:gameOfLife.c  **** 		}}
  22:gameOfLife.c  **** 	for (int i = 0; i < X_SIZE; i++){
  23:gameOfLife.c  **** 	for (int j = 0; j < Y_SIZE; j++){
  24:gameOfLife.c  **** 		if (table[i][j] == 1){
  25:gameOfLife.c  **** 			if(neigh[i][j] != 2 && neigh[i][j] != 3){
 2747              		.loc 3 25 0 is_stmt 1
 2748 0042 02EB4203 		add	r3, r2, r2, lsl #1
 2749 0046 03EBC303 		add	r3, r3, r3, lsl #3
 2750 004a 0B44     		add	r3, r3, r1
 2751 004c 01A8     		add	r0, sp, #4
 2752 004e 50F82330 		ldr	r3, [r0, r3, lsl #2]
 2753 0052 023B     		subs	r3, r3, #2
 2754 0054 012B     		cmp	r3, #1
 2755 0056 29D9     		bls	.L157
  26:gameOfLife.c  **** 				table[i][j] = 0;
 2756              		.loc 3 26 0
 2757 0058 02EB4203 		add	r3, r2, r2, lsl #1
 2758 005c 03EBC303 		add	r3, r3, r3, lsl #3
 2759 0060 0B44     		add	r3, r3, r1
 2760 0062 0024     		movs	r4, #0
 2761 0064 1F48     		ldr	r0, .L170
 2762 0066 40F82340 		str	r4, [r0, r3, lsl #2]
 2763              	.L158:
  23:gameOfLife.c  **** 		if (table[i][j] == 1){
 2764              		.loc 3 23 0 discriminator 2
 2765 006a 0131     		adds	r1, r1, #1
 2766              	.LVL121:
 2767              	.L161:
  23:gameOfLife.c  **** 		if (table[i][j] == 1){
 2768              		.loc 3 23 0 is_stmt 0 discriminator 1
 2769 006c 1A29     		cmp	r1, #26
 2770 006e 31DC     		bgt	.L166
  24:gameOfLife.c  **** 			if(neigh[i][j] != 2 && neigh[i][j] != 3){
 2771              		.loc 3 24 0 is_stmt 1
 2772 0070 02EB4203 		add	r3, r2, r2, lsl #1
 2773 0074 03EBC303 		add	r3, r3, r3, lsl #3
 2774 0078 0B44     		add	r3, r3, r1
 2775 007a 1A48     		ldr	r0, .L170
 2776 007c 50F82330 		ldr	r3, [r0, r3, lsl #2]
 2777 0080 012B     		cmp	r3, #1
 2778 0082 DED0     		beq	.L167
  27:gameOfLife.c  **** 			}
  28:gameOfLife.c  **** 	        else{
  29:gameOfLife.c  **** 				table[i][j] = 1;
  30:gameOfLife.c  **** 			}
  31:gameOfLife.c  **** 		}
  32:gameOfLife.c  **** 		else{
  33:gameOfLife.c  **** 			if(neigh[i][j] == 3){
 2779              		.loc 3 33 0
 2780 0084 02EB4203 		add	r3, r2, r2, lsl #1
 2781 0088 03EBC303 		add	r3, r3, r3, lsl #3
 2782 008c 0B44     		add	r3, r3, r1
ARM GAS  C:\Users\lenovo\AppData\Local\Temp\ccfgRfuq.s 			page 91


 2783 008e 01A8     		add	r0, sp, #4
 2784 0090 50F82330 		ldr	r3, [r0, r3, lsl #2]
 2785 0094 032B     		cmp	r3, #3
 2786 0096 13D0     		beq	.L168
  34:gameOfLife.c  **** 				table[i][j] = 1;
  35:gameOfLife.c  **** 			}
  36:gameOfLife.c  **** 			else{
  37:gameOfLife.c  **** 				table[i][j] = 0;
 2787              		.loc 3 37 0
 2788 0098 02EB4203 		add	r3, r2, r2, lsl #1
 2789 009c 03EBC303 		add	r3, r3, r3, lsl #3
 2790 00a0 0B44     		add	r3, r3, r1
 2791 00a2 0024     		movs	r4, #0
 2792 00a4 0F48     		ldr	r0, .L170
 2793 00a6 40F82340 		str	r4, [r0, r3, lsl #2]
 2794 00aa DEE7     		b	.L158
 2795              	.L157:
  29:gameOfLife.c  **** 			}
 2796              		.loc 3 29 0
 2797 00ac 02EB4203 		add	r3, r2, r2, lsl #1
 2798 00b0 03EBC303 		add	r3, r3, r3, lsl #3
 2799 00b4 0B44     		add	r3, r3, r1
 2800 00b6 0124     		movs	r4, #1
 2801 00b8 0A48     		ldr	r0, .L170
 2802 00ba 40F82340 		str	r4, [r0, r3, lsl #2]
 2803 00be D4E7     		b	.L158
 2804              	.L168:
  34:gameOfLife.c  **** 				table[i][j] = 1;
 2805              		.loc 3 34 0
 2806 00c0 02EB4203 		add	r3, r2, r2, lsl #1
 2807 00c4 03EBC303 		add	r3, r3, r3, lsl #3
 2808 00c8 0B44     		add	r3, r3, r1
 2809 00ca 0124     		movs	r4, #1
 2810 00cc 0548     		ldr	r0, .L170
 2811 00ce 40F82340 		str	r4, [r0, r3, lsl #2]
 2812 00d2 CAE7     		b	.L158
 2813              	.L166:
 2814              	.LBE27:
  22:gameOfLife.c  **** 	for (int j = 0; j < Y_SIZE; j++){
 2815              		.loc 3 22 0 discriminator 2
 2816 00d4 0132     		adds	r2, r2, #1
 2817              	.LVL122:
 2818              	.L155:
  22:gameOfLife.c  **** 	for (int j = 0; j < Y_SIZE; j++){
 2819              		.loc 3 22 0 is_stmt 0 discriminator 1
 2820 00d6 1A2A     		cmp	r2, #26
 2821 00d8 01DC     		bgt	.L169
 2822 00da 0021     		movs	r1, #0
 2823 00dc C6E7     		b	.L161
 2824              	.L169:
 2825              	.LBE26:
  38:gameOfLife.c  **** 			}
  39:gameOfLife.c  **** 		}
  40:gameOfLife.c  **** 	}
  41:gameOfLife.c  ****   }
  42:gameOfLife.c  **** } 
 2826              		.loc 3 42 0 is_stmt 1
ARM GAS  C:\Users\lenovo\AppData\Local\Temp\ccfgRfuq.s 			page 92


 2827 00de 0DF66C3D 		addw	sp, sp, #2924
 2828              	.LCFI26:
 2829              		.cfi_def_cfa_offset 12
 2830              		@ sp needed
 2831 00e2 30BD     		pop	{r4, r5, pc}
 2832              	.LVL123:
 2833              	.L171:
 2834              		.align	2
 2835              	.L170:
 2836 00e4 00000000 		.word	.LANCHOR2
 2837              		.cfi_endproc
 2838              	.LFE174:
 2840              		.section	.text.ABS,"ax",%progbits
 2841              		.align	1
 2842              		.global	ABS
 2843              		.syntax unified
 2844              		.thumb
 2845              		.thumb_func
 2846              		.fpu fpv5-sp-d16
 2848              	ABS:
 2849              	.LFB175:
 2850              		.file 4 "graphics.c"
   1:graphics.c    **** #include "gameOfLife.c"
   2:graphics.c    **** #define LCD_X_SIZE      RK043FN48H_WIDTH
   3:graphics.c    **** #define LCD_Y_SIZE      RK043FN48H_HEIGHT
   4:graphics.c    **** 
   5:graphics.c    **** int state = 0;
   6:graphics.c    **** int state_changed = 0;
   7:graphics.c    **** int drawing_state = 0;
   8:graphics.c    **** int stopped = 1;
   9:graphics.c    **** 
  10:graphics.c    **** //[rmv]
  11:graphics.c    **** uint16_t ABS(uint16_t x){
 2851              		.loc 4 11 0
 2852              		.cfi_startproc
 2853              		@ args = 0, pretend = 0, frame = 0
 2854              		@ frame_needed = 0, uses_anonymous_args = 0
 2855              		@ link register save eliminated.
 2856              	.LVL124:
  12:graphics.c    **** 	return x<0?(-1)*x:x;
  13:graphics.c    **** }
 2857              		.loc 4 13 0
 2858 0000 7047     		bx	lr
 2859              		.cfi_endproc
 2860              	.LFE175:
 2862              		.section	.text.FillTriangle,"ax",%progbits
 2863              		.align	1
 2864              		.syntax unified
 2865              		.thumb
 2866              		.thumb_func
 2867              		.fpu fpv5-sp-d16
 2869              	FillTriangle:
 2870              	.LFB176:
  14:graphics.c    **** 
  15:graphics.c    **** static void FillTriangle(uint16_t x1, uint16_t x2, uint16_t x3, uint16_t y1, uint16_t y2, uint16_t 
  16:graphics.c    **** { 
 2871              		.loc 4 16 0
ARM GAS  C:\Users\lenovo\AppData\Local\Temp\ccfgRfuq.s 			page 93


 2872              		.cfi_startproc
 2873              		@ args = 8, pretend = 0, frame = 24
 2874              		@ frame_needed = 0, uses_anonymous_args = 0
 2875              	.LVL125:
 2876 0000 2DE9F04F 		push	{r4, r5, r6, r7, r8, r9, r10, fp, lr}
 2877              	.LCFI27:
 2878              		.cfi_def_cfa_offset 36
 2879              		.cfi_offset 4, -36
 2880              		.cfi_offset 5, -32
 2881              		.cfi_offset 6, -28
 2882              		.cfi_offset 7, -24
 2883              		.cfi_offset 8, -20
 2884              		.cfi_offset 9, -16
 2885              		.cfi_offset 10, -12
 2886              		.cfi_offset 11, -8
 2887              		.cfi_offset 14, -4
 2888 0004 87B0     		sub	sp, sp, #28
 2889              	.LCFI28:
 2890              		.cfi_def_cfa_offset 64
 2891 0006 0646     		mov	r6, r0
 2892 0008 8946     		mov	r9, r1
 2893 000a 0292     		str	r2, [sp, #8]
 2894 000c 1C46     		mov	r4, r3
 2895 000e BDF84080 		ldrh	r8, [sp, #64]
 2896 0012 BDF84430 		ldrh	r3, [sp, #68]
 2897              	.LVL126:
 2898 0016 0393     		str	r3, [sp, #12]
 2899              	.LVL127:
  17:graphics.c    ****   int16_t deltax = 0, deltay = 0, x = 0, y = 0, xinc1 = 0, xinc2 = 0, 
  18:graphics.c    ****   yinc1 = 0, yinc2 = 0, den = 0, num = 0, num_add = 0, num_pixels = 0,
  19:graphics.c    ****   curpixel = 0;
  20:graphics.c    ****   
  21:graphics.c    ****   deltax = ABS(x2 - x1);        /* The difference between the x's */
 2900              		.loc 4 21 0
 2901 0018 081A     		subs	r0, r1, r0
 2902              	.LVL128:
 2903 001a 80B2     		uxth	r0, r0
 2904 001c FFF7FEFF 		bl	ABS
 2905              	.LVL129:
 2906 0020 0FFA80FA 		sxth	r10, r0
 2907              	.LVL130:
  22:graphics.c    ****   deltay = ABS(y2 - y1);        /* The difference between the y's */
 2908              		.loc 4 22 0
 2909 0024 A8EB0400 		sub	r0, r8, r4
 2910 0028 80B2     		uxth	r0, r0
 2911 002a FFF7FEFF 		bl	ABS
 2912              	.LVL131:
 2913 002e 0FFA80FB 		sxth	fp, r0
 2914              	.LVL132:
  23:graphics.c    ****   x = x1;                       /* Start x off at the first pixel */
 2915              		.loc 4 23 0
 2916 0032 35B2     		sxth	r5, r6
 2917              	.LVL133:
  24:graphics.c    ****   y = y1;                       /* Start y off at the first pixel */
 2918              		.loc 4 24 0
 2919 0034 27B2     		sxth	r7, r4
 2920              	.LVL134:
ARM GAS  C:\Users\lenovo\AppData\Local\Temp\ccfgRfuq.s 			page 94


  25:graphics.c    ****   
  26:graphics.c    ****   if (x2 >= x1)                 /* The x-values are increasing */
 2921              		.loc 4 26 0
 2922 0036 B145     		cmp	r9, r6
 2923 0038 15D3     		bcc	.L183
  27:graphics.c    ****   {
  28:graphics.c    ****     xinc1 = 1;
 2924              		.loc 4 28 0
 2925 003a 0123     		movs	r3, #1
 2926 003c 0493     		str	r3, [sp, #16]
 2927              	.L174:
 2928              	.LVL135:
  29:graphics.c    ****     xinc2 = 1;
  30:graphics.c    ****   }
  31:graphics.c    ****   else                          /* The x-values are decreasing */
  32:graphics.c    ****   {
  33:graphics.c    ****     xinc1 = -1;
  34:graphics.c    ****     xinc2 = -1;
  35:graphics.c    ****   }
  36:graphics.c    ****   
  37:graphics.c    ****   if (y2 >= y1)                 /* The y-values are increasing */
 2929              		.loc 4 37 0
 2930 003e A045     		cmp	r8, r4
 2931 0040 15D3     		bcc	.L184
  38:graphics.c    ****   {
  39:graphics.c    ****     yinc1 = 1;
 2932              		.loc 4 39 0
 2933 0042 0123     		movs	r3, #1
 2934 0044 0593     		str	r3, [sp, #20]
 2935              	.L175:
 2936              	.LVL136:
  40:graphics.c    ****     yinc2 = 1;
  41:graphics.c    ****   }
  42:graphics.c    ****   else                          /* The y-values are decreasing */
  43:graphics.c    ****   {
  44:graphics.c    ****     yinc1 = -1;
  45:graphics.c    ****     yinc2 = -1;
  46:graphics.c    ****   }
  47:graphics.c    ****   
  48:graphics.c    ****   if (deltax >= deltay)         /* There is at least one x-value for every y-value */
 2937              		.loc 4 48 0
 2938 0046 DA45     		cmp	r10, fp
 2939 0048 18DB     		blt	.L176
 2940              	.LVL137:
  49:graphics.c    ****   {
  50:graphics.c    ****     xinc1 = 0;                  /* Don't change the x when numerator >= denominator */
  51:graphics.c    ****     yinc2 = 0;                  /* Don't change the y for every iteration */
  52:graphics.c    ****     den = deltax;
  53:graphics.c    ****     num = deltax / 2;
 2941              		.loc 4 53 0
 2942 004a 5446     		mov	r4, r10
 2943 004c BAF1000F 		cmp	r10, #0
 2944 0050 11DB     		blt	.L186
 2945              	.L177:
 2946 0052 44F34F04 		sbfx	r4, r4, #1, #16
 2947              	.LVL138:
 2948 0056 049B     		ldr	r3, [sp, #16]
ARM GAS  C:\Users\lenovo\AppData\Local\Temp\ccfgRfuq.s 			page 95


 2949 0058 0093     		str	r3, [sp]
  51:graphics.c    ****     den = deltax;
 2950              		.loc 4 51 0
 2951 005a 0023     		movs	r3, #0
 2952 005c 0493     		str	r3, [sp, #16]
 2953              	.LVL139:
  50:graphics.c    ****     yinc2 = 0;                  /* Don't change the y for every iteration */
 2954              		.loc 4 50 0
 2955 005e 0193     		str	r3, [sp, #4]
 2956              	.LVL140:
 2957              	.L178:
  54:graphics.c    ****     num_add = deltay;
  55:graphics.c    ****     num_pixels = deltax;         /* There are more x-values than y-values */
  56:graphics.c    ****   }
  57:graphics.c    ****   else                          /* There is at least one y-value for every x-value */
  58:graphics.c    ****   {
  59:graphics.c    ****     xinc2 = 0;                  /* Don't change the x for every iteration */
  60:graphics.c    ****     yinc1 = 0;                  /* Don't change the y when numerator >= denominator */
  61:graphics.c    ****     den = deltay;
  62:graphics.c    ****     num = deltay / 2;
  63:graphics.c    ****     num_add = deltax;
  64:graphics.c    ****     num_pixels = deltay;         /* There are more y-values than x-values */
  65:graphics.c    ****   }
  66:graphics.c    ****   
  67:graphics.c    ****   for (curpixel = 0; curpixel <= num_pixels; curpixel++)
 2958              		.loc 4 67 0
 2959 0060 4FF00009 		mov	r9, #0
 2960 0064 26E0     		b	.L180
 2961              	.LVL141:
 2962              	.L183:
  33:graphics.c    ****     xinc2 = -1;
 2963              		.loc 4 33 0
 2964 0066 4FF0FF33 		mov	r3, #-1
 2965 006a 0493     		str	r3, [sp, #16]
 2966 006c E7E7     		b	.L174
 2967              	.LVL142:
 2968              	.L184:
  44:graphics.c    ****     yinc2 = -1;
 2969              		.loc 4 44 0
 2970 006e 4FF0FF33 		mov	r3, #-1
 2971 0072 0593     		str	r3, [sp, #20]
 2972 0074 E7E7     		b	.L175
 2973              	.LVL143:
 2974              	.L186:
  53:graphics.c    ****     num_add = deltay;
 2975              		.loc 4 53 0
 2976 0076 0AF10104 		add	r4, r10, #1
 2977 007a EAE7     		b	.L177
 2978              	.LVL144:
 2979              	.L176:
  62:graphics.c    ****     num_add = deltax;
 2980              		.loc 4 62 0
 2981 007c 5C46     		mov	r4, fp
 2982 007e BBF1000F 		cmp	fp, #0
 2983 0082 0ADB     		blt	.L187
 2984              	.L179:
 2985 0084 44F34F04 		sbfx	r4, r4, #1, #16
ARM GAS  C:\Users\lenovo\AppData\Local\Temp\ccfgRfuq.s 			page 96


 2986              	.LVL145:
 2987 0088 5346     		mov	r3, r10
  61:graphics.c    ****     num = deltay / 2;
 2988              		.loc 4 61 0
 2989 008a DA46     		mov	r10, fp
 2990              	.LVL146:
  63:graphics.c    ****     num_pixels = deltay;         /* There are more y-values than x-values */
 2991              		.loc 4 63 0
 2992 008c 9B46     		mov	fp, r3
 2993              	.LVL147:
  62:graphics.c    ****     num_add = deltax;
 2994              		.loc 4 62 0
 2995 008e 059B     		ldr	r3, [sp, #20]
 2996              	.LVL148:
 2997 0090 0193     		str	r3, [sp, #4]
  60:graphics.c    ****     den = deltay;
 2998              		.loc 4 60 0
 2999 0092 0023     		movs	r3, #0
 3000 0094 0593     		str	r3, [sp, #20]
 3001              	.LVL149:
  59:graphics.c    ****     yinc1 = 0;                  /* Don't change the y when numerator >= denominator */
 3002              		.loc 4 59 0
 3003 0096 0093     		str	r3, [sp]
 3004 0098 E2E7     		b	.L178
 3005              	.LVL150:
 3006              	.L187:
  62:graphics.c    ****     num_add = deltax;
 3007              		.loc 4 62 0
 3008 009a 0BF10104 		add	r4, fp, #1
 3009 009e F1E7     		b	.L179
 3010              	.LVL151:
 3011              	.L181:
  68:graphics.c    ****   {
  69:graphics.c    ****     BSP_LCD_DrawLine(x, y, x3, y3);
  70:graphics.c    ****     
  71:graphics.c    ****     num += num_add;              /* Increase the numerator by the top of the fraction */
  72:graphics.c    ****     if (num >= den)             /* Check if numerator >= denominator */
  73:graphics.c    ****     {
  74:graphics.c    ****       num -= den;               /* Calculate the new numerator value */
  75:graphics.c    ****       x += xinc1;               /* Change the x as appropriate */
  76:graphics.c    ****       y += yinc1;               /* Change the y as appropriate */
  77:graphics.c    ****     }
  78:graphics.c    ****     x += xinc2;                 /* Change the x as appropriate */
 3012              		.loc 4 78 0 discriminator 2
 3013 00a0 009B     		ldr	r3, [sp]
 3014 00a2 1D44     		add	r5, r5, r3
 3015              	.LVL152:
 3016 00a4 2DB2     		sxth	r5, r5
 3017              	.LVL153:
  79:graphics.c    ****     y += yinc2;                 /* Change the y as appropriate */
 3018              		.loc 4 79 0 discriminator 2
 3019 00a6 019B     		ldr	r3, [sp, #4]
 3020 00a8 1F44     		add	r7, r7, r3
 3021              	.LVL154:
 3022 00aa 3FB2     		sxth	r7, r7
 3023              	.LVL155:
  67:graphics.c    ****   {
ARM GAS  C:\Users\lenovo\AppData\Local\Temp\ccfgRfuq.s 			page 97


 3024              		.loc 4 67 0 discriminator 2
 3025 00ac 09F10109 		add	r9, r9, #1
 3026              	.LVL156:
 3027 00b0 0FFA89F9 		sxth	r9, r9
 3028              	.LVL157:
 3029              	.L180:
  67:graphics.c    ****   {
 3030              		.loc 4 67 0 is_stmt 0 discriminator 1
 3031 00b4 CA45     		cmp	r10, r9
 3032 00b6 18DB     		blt	.L188
  69:graphics.c    ****     
 3033              		.loc 4 69 0 is_stmt 1
 3034 00b8 1FFA85F8 		uxth	r8, r5
 3035 00bc BEB2     		uxth	r6, r7
 3036 00be 039B     		ldr	r3, [sp, #12]
 3037 00c0 029A     		ldr	r2, [sp, #8]
 3038 00c2 3146     		mov	r1, r6
 3039 00c4 4046     		mov	r0, r8
 3040 00c6 FFF7FEFF 		bl	BSP_LCD_DrawLine
 3041              	.LVL158:
  71:graphics.c    ****     if (num >= den)             /* Check if numerator >= denominator */
 3042              		.loc 4 71 0
 3043 00ca 5C44     		add	r4, r4, fp
 3044              	.LVL159:
 3045 00cc A3B2     		uxth	r3, r4
 3046 00ce 1CB2     		sxth	r4, r3
 3047              	.LVL160:
  72:graphics.c    ****     {
 3048              		.loc 4 72 0
 3049 00d0 A245     		cmp	r10, r4
 3050 00d2 E5DC     		bgt	.L181
  74:graphics.c    ****       x += xinc1;               /* Change the x as appropriate */
 3051              		.loc 4 74 0
 3052 00d4 A3EB0A04 		sub	r4, r3, r10
 3053              	.LVL161:
 3054 00d8 24B2     		sxth	r4, r4
 3055              	.LVL162:
  75:graphics.c    ****       y += yinc1;               /* Change the y as appropriate */
 3056              		.loc 4 75 0
 3057 00da 049B     		ldr	r3, [sp, #16]
 3058 00dc 08EB0305 		add	r5, r8, r3
 3059              	.LVL163:
 3060 00e0 2DB2     		sxth	r5, r5
 3061              	.LVL164:
  76:graphics.c    ****     }
 3062              		.loc 4 76 0
 3063 00e2 059B     		ldr	r3, [sp, #20]
 3064 00e4 F718     		adds	r7, r6, r3
 3065              	.LVL165:
 3066 00e6 3FB2     		sxth	r7, r7
 3067              	.LVL166:
 3068 00e8 DAE7     		b	.L181
 3069              	.L188:
  80:graphics.c    ****   } 
  81:graphics.c    **** }
 3070              		.loc 4 81 0
 3071 00ea 07B0     		add	sp, sp, #28
ARM GAS  C:\Users\lenovo\AppData\Local\Temp\ccfgRfuq.s 			page 98


 3072              	.LCFI29:
 3073              		.cfi_def_cfa_offset 36
 3074              	.LVL167:
 3075              		@ sp needed
 3076 00ec BDE8F08F 		pop	{r4, r5, r6, r7, r8, r9, r10, fp, pc}
 3077              		.cfi_endproc
 3078              	.LFE176:
 3080              		.section	.text.initialize_touchscreen,"ax",%progbits
 3081              		.align	1
 3082              		.global	initialize_touchscreen
 3083              		.syntax unified
 3084              		.thumb
 3085              		.thumb_func
 3086              		.fpu fpv5-sp-d16
 3088              	initialize_touchscreen:
 3089              	.LFB177:
  82:graphics.c    **** 
  83:graphics.c    **** int initialize_touchscreen(void)
  84:graphics.c    **** {
 3090              		.loc 4 84 0
 3091              		.cfi_startproc
 3092              		@ args = 0, pretend = 0, frame = 0
 3093              		@ frame_needed = 0, uses_anonymous_args = 0
 3094 0000 10B5     		push	{r4, lr}
 3095              	.LCFI30:
 3096              		.cfi_def_cfa_offset 8
 3097              		.cfi_offset 4, -8
 3098              		.cfi_offset 14, -4
 3099              	.LVL168:
  85:graphics.c    ****   uint8_t  status = 0;
  86:graphics.c    ****   status = BSP_TS_Init(BSP_LCD_GetXSize(), BSP_LCD_GetYSize());
 3100              		.loc 4 86 0
 3101 0002 FFF7FEFF 		bl	BSP_LCD_GetXSize
 3102              	.LVL169:
 3103 0006 84B2     		uxth	r4, r0
 3104 0008 FFF7FEFF 		bl	BSP_LCD_GetYSize
 3105              	.LVL170:
 3106 000c 81B2     		uxth	r1, r0
 3107 000e 2046     		mov	r0, r4
 3108 0010 FFF7FEFF 		bl	BSP_TS_Init
 3109              	.LVL171:
  87:graphics.c    ****   if(status != TS_OK) return -1;
 3110              		.loc 4 87 0
 3111 0014 08B9     		cbnz	r0, .L193
  88:graphics.c    ****   return 0;
 3112              		.loc 4 88 0
 3113 0016 0020     		movs	r0, #0
 3114              	.LVL172:
  89:graphics.c    **** }
 3115              		.loc 4 89 0
 3116 0018 10BD     		pop	{r4, pc}
 3117              	.LVL173:
 3118              	.L193:
  87:graphics.c    ****   if(status != TS_OK) return -1;
 3119              		.loc 4 87 0
 3120 001a 4FF0FF30 		mov	r0, #-1
 3121              	.LVL174:
ARM GAS  C:\Users\lenovo\AppData\Local\Temp\ccfgRfuq.s 			page 99


 3122 001e 10BD     		pop	{r4, pc}
 3123              		.cfi_endproc
 3124              	.LFE177:
 3126              		.section	.text.init_background,"ax",%progbits
 3127              		.align	1
 3128              		.global	init_background
 3129              		.syntax unified
 3130              		.thumb
 3131              		.thumb_func
 3132              		.fpu fpv5-sp-d16
 3134              	init_background:
 3135              	.LFB178:
  90:graphics.c    **** //[rmv]
  91:graphics.c    **** void init_background(){
 3136              		.loc 4 91 0
 3137              		.cfi_startproc
 3138              		@ args = 0, pretend = 0, frame = 0
 3139              		@ frame_needed = 0, uses_anonymous_args = 0
 3140 0000 30B5     		push	{r4, r5, lr}
 3141              	.LCFI31:
 3142              		.cfi_def_cfa_offset 12
 3143              		.cfi_offset 4, -12
 3144              		.cfi_offset 5, -8
 3145              		.cfi_offset 14, -4
 3146 0002 83B0     		sub	sp, sp, #12
 3147              	.LCFI32:
 3148              		.cfi_def_cfa_offset 24
  92:graphics.c    **** 	switch(state){
 3149              		.loc 4 92 0
 3150 0004 864B     		ldr	r3, .L208
 3151 0006 1B68     		ldr	r3, [r3]
 3152 0008 012B     		cmp	r3, #1
 3153 000a 00F08280 		beq	.L196
 3154 000e 022B     		cmp	r3, #2
 3155 0010 00F0B280 		beq	.L197
 3156 0014 002B     		cmp	r3, #0
 3157 0016 4FD0     		beq	.L205
 3158              	.L195:
  93:graphics.c    **** 		case 0:
  94:graphics.c    **** 			BSP_LCD_SelectLayer(0);
  95:graphics.c    **** 			BSP_LCD_Clear(LCD_COLOR_WHITE);
  96:graphics.c    **** 			BSP_LCD_SetTextColor(LCD_COLOR_GREEN);
  97:graphics.c    **** 			BSP_LCD_DisplayStringAt(175,50,"Pulsar",CENTER_MODE);
  98:graphics.c    **** 			BSP_LCD_DisplayStringAt(150,100,"Evolution",CENTER_MODE);
  99:graphics.c    **** 			BSP_LCD_DisplayStringAt(160,150,"Fountain",CENTER_MODE);
 100:graphics.c    **** 			BSP_LCD_DisplayStringAt(150,200,"Crocodile",CENTER_MODE);
 101:graphics.c    **** 			BSP_LCD_SetTextColor(LCD_COLOR_RED);
 102:graphics.c    **** 			BSP_LCD_DisplayStringAt(70,0,"NEXT",CENTER_MODE);
 103:graphics.c    **** 			break;
 104:graphics.c    **** 		case 1:
 105:graphics.c    **** 			BSP_LCD_SelectLayer(0);
 106:graphics.c    **** 			BSP_LCD_Clear(LCD_COLOR_WHITE);
 107:graphics.c    **** 			BSP_LCD_SetTextColor(LCD_COLOR_GREEN);
 108:graphics.c    **** 			BSP_LCD_DisplayStringAt(185,50,"Hertz",CENTER_MODE);
 109:graphics.c    **** 			BSP_LCD_DisplayStringAt(140,100,"Copperhead",CENTER_MODE);
 110:graphics.c    **** 			BSP_LCD_DisplayStringAt(185,150,"Eight",CENTER_MODE);
 111:graphics.c    **** 			BSP_LCD_DisplayStringAt(160,200,"QueenBee",CENTER_MODE);
ARM GAS  C:\Users\lenovo\AppData\Local\Temp\ccfgRfuq.s 			page 100


 112:graphics.c    **** 			BSP_LCD_SetTextColor(LCD_COLOR_RED);
 113:graphics.c    **** 			BSP_LCD_DisplayStringAt(70,0,"NEXT",CENTER_MODE);
 114:graphics.c    **** 			BSP_LCD_DisplayStringAt(70,250,"PREV",CENTER_MODE);
 115:graphics.c    **** 			break;
 116:graphics.c    **** 		case 2:
 117:graphics.c    **** 			BSP_LCD_SelectLayer(0);
 118:graphics.c    **** 			BSP_LCD_Clear(LCD_COLOR_WHITE);
 119:graphics.c    **** 			BSP_LCD_SetTextColor(LCD_COLOR_GREEN);
 120:graphics.c    **** 			BSP_LCD_DisplayStringAt(191,50,"LWSS",CENTER_MODE);
 121:graphics.c    **** 			BSP_LCD_DisplayStringAt(142,100,"Cloverleaf",CENTER_MODE);
 122:graphics.c    **** 			BSP_LCD_DisplayStringAt(177,150,"Beacon",CENTER_MODE);
 123:graphics.c    **** 			BSP_LCD_DisplayStringAt(145,200,"GameOfLife",CENTER_MODE);
 124:graphics.c    **** 			BSP_LCD_SetTextColor(LCD_COLOR_RED);
 125:graphics.c    **** 			BSP_LCD_DisplayStringAt(70,250,"PREV",CENTER_MODE);
 126:graphics.c    **** 			break;
 127:graphics.c    **** 	}
 128:graphics.c    **** 	BSP_LCD_DrawRect(280,40,190,190);
 3159              		.loc 4 128 0
 3160 0018 BE23     		movs	r3, #190
 3161 001a 1A46     		mov	r2, r3
 3162 001c 2821     		movs	r1, #40
 3163 001e 4FF48C70 		mov	r0, #280
 3164 0022 FFF7FEFF 		bl	BSP_LCD_DrawRect
 3165              	.LVL175:
 129:graphics.c    **** 	BSP_LCD_SetTextColor(LCD_COLOR_GREEN);
 3166              		.loc 4 129 0
 3167 0026 4FF0FF20 		mov	r0, #-16711936
 3168 002a FFF7FEFF 		bl	BSP_LCD_SetTextColor
 3169              	.LVL176:
 130:graphics.c    **** 	FillTriangle(460,460,475,1,21,11);
 3170              		.loc 4 130 0
 3171 002e 0B25     		movs	r5, #11
 3172 0030 0195     		str	r5, [sp, #4]
 3173 0032 1524     		movs	r4, #21
 3174 0034 0094     		str	r4, [sp]
 3175 0036 0123     		movs	r3, #1
 3176 0038 40F2DB12 		movw	r2, #475
 3177 003c 4FF4E671 		mov	r1, #460
 3178 0040 0846     		mov	r0, r1
 3179 0042 FFF7FEFF 		bl	FillTriangle
 3180              	.LVL177:
 131:graphics.c    **** 	FillTriangle(440,440,455,1,21,11);
 3181              		.loc 4 131 0
 3182 0046 0195     		str	r5, [sp, #4]
 3183 0048 0094     		str	r4, [sp]
 3184 004a 0123     		movs	r3, #1
 3185 004c 40F2C712 		movw	r2, #455
 3186 0050 4FF4DC71 		mov	r1, #440
 3187 0054 0846     		mov	r0, r1
 3188 0056 FFF7FEFF 		bl	FillTriangle
 3189              	.LVL178:
 132:graphics.c    **** 	if(stopped){
 3190              		.loc 4 132 0
 3191 005a 724B     		ldr	r3, .L208+4
 3192 005c 1B68     		ldr	r3, [r3]
 3193 005e 002B     		cmp	r3, #0
 3194 0060 40F0B780 		bne	.L206
ARM GAS  C:\Users\lenovo\AppData\Local\Temp\ccfgRfuq.s 			page 101


 3195              	.L199:
 133:graphics.c    **** 	  BSP_LCD_SetTextColor(LCD_COLOR_BLUE);
 134:graphics.c    **** 	}
 135:graphics.c    **** 	BSP_LCD_FillRect(410,1,7,21);
 3196              		.loc 4 135 0
 3197 0064 1523     		movs	r3, #21
 3198 0066 0722     		movs	r2, #7
 3199 0068 0121     		movs	r1, #1
 3200 006a 4FF4CD70 		mov	r0, #410
 3201 006e FFF7FEFF 		bl	BSP_LCD_FillRect
 3202              	.LVL179:
 136:graphics.c    **** 	BSP_LCD_FillRect(423,1,7,21);
 3203              		.loc 4 136 0
 3204 0072 1523     		movs	r3, #21
 3205 0074 0722     		movs	r2, #7
 3206 0076 0121     		movs	r1, #1
 3207 0078 40F2A710 		movw	r0, #423
 3208 007c FFF7FEFF 		bl	BSP_LCD_FillRect
 3209              	.LVL180:
 137:graphics.c    **** 	BSP_LCD_SetTextColor(LCD_COLOR_GREEN);
 3210              		.loc 4 137 0
 3211 0080 4FF0FF20 		mov	r0, #-16711936
 3212 0084 FFF7FEFF 		bl	BSP_LCD_SetTextColor
 3213              	.LVL181:
 138:graphics.c    **** 	FillTriangle(400,400,385,1,21,11);
 3214              		.loc 4 138 0
 3215 0088 0B25     		movs	r5, #11
 3216 008a 0195     		str	r5, [sp, #4]
 3217 008c 1524     		movs	r4, #21
 3218 008e 0094     		str	r4, [sp]
 3219 0090 0123     		movs	r3, #1
 3220 0092 40F28112 		movw	r2, #385
 3221 0096 4FF4C871 		mov	r1, #400
 3222 009a 0846     		mov	r0, r1
 3223 009c FFF7FEFF 		bl	FillTriangle
 3224              	.LVL182:
 139:graphics.c    **** 	FillTriangle(380,380,365,1,21,11);
 3225              		.loc 4 139 0
 3226 00a0 0195     		str	r5, [sp, #4]
 3227 00a2 0094     		str	r4, [sp]
 3228 00a4 0123     		movs	r3, #1
 3229 00a6 40F26D12 		movw	r2, #365
 3230 00aa 4FF4BE71 		mov	r1, #380
 3231 00ae 0846     		mov	r0, r1
 3232 00b0 FFF7FEFF 		bl	FillTriangle
 3233              	.LVL183:
 3234              	.LBB28:
 140:graphics.c    **** 	for (int i = 0; i < X_SIZE; i++){
 3235              		.loc 4 140 0
 3236 00b4 0025     		movs	r5, #0
 3237 00b6 A4E0     		b	.L200
 3238              	.LVL184:
 3239              	.L205:
 3240              	.LBE28:
  94:graphics.c    **** 			BSP_LCD_Clear(LCD_COLOR_WHITE);
 3241              		.loc 4 94 0
 3242 00b8 0020     		movs	r0, #0
ARM GAS  C:\Users\lenovo\AppData\Local\Temp\ccfgRfuq.s 			page 102


 3243 00ba FFF7FEFF 		bl	BSP_LCD_SelectLayer
 3244              	.LVL185:
  95:graphics.c    **** 			BSP_LCD_SetTextColor(LCD_COLOR_GREEN);
 3245              		.loc 4 95 0
 3246 00be 4FF0FF30 		mov	r0, #-1
 3247 00c2 FFF7FEFF 		bl	BSP_LCD_Clear
 3248              	.LVL186:
  96:graphics.c    **** 			BSP_LCD_DisplayStringAt(175,50,"Pulsar",CENTER_MODE);
 3249              		.loc 4 96 0
 3250 00c6 4FF0FF20 		mov	r0, #-16711936
 3251 00ca FFF7FEFF 		bl	BSP_LCD_SetTextColor
 3252              	.LVL187:
  97:graphics.c    **** 			BSP_LCD_DisplayStringAt(150,100,"Evolution",CENTER_MODE);
 3253              		.loc 4 97 0
 3254 00ce 0123     		movs	r3, #1
 3255 00d0 554A     		ldr	r2, .L208+8
 3256 00d2 3221     		movs	r1, #50
 3257 00d4 AF20     		movs	r0, #175
 3258 00d6 FFF7FEFF 		bl	BSP_LCD_DisplayStringAt
 3259              	.LVL188:
  98:graphics.c    **** 			BSP_LCD_DisplayStringAt(160,150,"Fountain",CENTER_MODE);
 3260              		.loc 4 98 0
 3261 00da 0123     		movs	r3, #1
 3262 00dc 534A     		ldr	r2, .L208+12
 3263 00de 6421     		movs	r1, #100
 3264 00e0 9620     		movs	r0, #150
 3265 00e2 FFF7FEFF 		bl	BSP_LCD_DisplayStringAt
 3266              	.LVL189:
  99:graphics.c    **** 			BSP_LCD_DisplayStringAt(150,200,"Crocodile",CENTER_MODE);
 3267              		.loc 4 99 0
 3268 00e6 0123     		movs	r3, #1
 3269 00e8 514A     		ldr	r2, .L208+16
 3270 00ea 9621     		movs	r1, #150
 3271 00ec A020     		movs	r0, #160
 3272 00ee FFF7FEFF 		bl	BSP_LCD_DisplayStringAt
 3273              	.LVL190:
 100:graphics.c    **** 			BSP_LCD_SetTextColor(LCD_COLOR_RED);
 3274              		.loc 4 100 0
 3275 00f2 0123     		movs	r3, #1
 3276 00f4 4F4A     		ldr	r2, .L208+20
 3277 00f6 C821     		movs	r1, #200
 3278 00f8 9620     		movs	r0, #150
 3279 00fa FFF7FEFF 		bl	BSP_LCD_DisplayStringAt
 3280              	.LVL191:
 101:graphics.c    **** 			BSP_LCD_DisplayStringAt(70,0,"NEXT",CENTER_MODE);
 3281              		.loc 4 101 0
 3282 00fe 4E48     		ldr	r0, .L208+24
 3283 0100 FFF7FEFF 		bl	BSP_LCD_SetTextColor
 3284              	.LVL192:
 102:graphics.c    **** 			break;
 3285              		.loc 4 102 0
 3286 0104 0123     		movs	r3, #1
 3287 0106 4D4A     		ldr	r2, .L208+28
 3288 0108 0021     		movs	r1, #0
 3289 010a 4620     		movs	r0, #70
 3290 010c FFF7FEFF 		bl	BSP_LCD_DisplayStringAt
 3291              	.LVL193:
ARM GAS  C:\Users\lenovo\AppData\Local\Temp\ccfgRfuq.s 			page 103


 103:graphics.c    **** 		case 1:
 3292              		.loc 4 103 0
 3293 0110 82E7     		b	.L195
 3294              	.L196:
 105:graphics.c    **** 			BSP_LCD_Clear(LCD_COLOR_WHITE);
 3295              		.loc 4 105 0
 3296 0112 0020     		movs	r0, #0
 3297 0114 FFF7FEFF 		bl	BSP_LCD_SelectLayer
 3298              	.LVL194:
 106:graphics.c    **** 			BSP_LCD_SetTextColor(LCD_COLOR_GREEN);
 3299              		.loc 4 106 0
 3300 0118 4FF0FF30 		mov	r0, #-1
 3301 011c FFF7FEFF 		bl	BSP_LCD_Clear
 3302              	.LVL195:
 107:graphics.c    **** 			BSP_LCD_DisplayStringAt(185,50,"Hertz",CENTER_MODE);
 3303              		.loc 4 107 0
 3304 0120 4FF0FF20 		mov	r0, #-16711936
 3305 0124 FFF7FEFF 		bl	BSP_LCD_SetTextColor
 3306              	.LVL196:
 108:graphics.c    **** 			BSP_LCD_DisplayStringAt(140,100,"Copperhead",CENTER_MODE);
 3307              		.loc 4 108 0
 3308 0128 0123     		movs	r3, #1
 3309 012a 454A     		ldr	r2, .L208+32
 3310 012c 3221     		movs	r1, #50
 3311 012e B920     		movs	r0, #185
 3312 0130 FFF7FEFF 		bl	BSP_LCD_DisplayStringAt
 3313              	.LVL197:
 109:graphics.c    **** 			BSP_LCD_DisplayStringAt(185,150,"Eight",CENTER_MODE);
 3314              		.loc 4 109 0
 3315 0134 0123     		movs	r3, #1
 3316 0136 434A     		ldr	r2, .L208+36
 3317 0138 6421     		movs	r1, #100
 3318 013a 8C20     		movs	r0, #140
 3319 013c FFF7FEFF 		bl	BSP_LCD_DisplayStringAt
 3320              	.LVL198:
 110:graphics.c    **** 			BSP_LCD_DisplayStringAt(160,200,"QueenBee",CENTER_MODE);
 3321              		.loc 4 110 0
 3322 0140 0123     		movs	r3, #1
 3323 0142 414A     		ldr	r2, .L208+40
 3324 0144 9621     		movs	r1, #150
 3325 0146 B920     		movs	r0, #185
 3326 0148 FFF7FEFF 		bl	BSP_LCD_DisplayStringAt
 3327              	.LVL199:
 111:graphics.c    **** 			BSP_LCD_SetTextColor(LCD_COLOR_RED);
 3328              		.loc 4 111 0
 3329 014c 0123     		movs	r3, #1
 3330 014e 3F4A     		ldr	r2, .L208+44
 3331 0150 C821     		movs	r1, #200
 3332 0152 A020     		movs	r0, #160
 3333 0154 FFF7FEFF 		bl	BSP_LCD_DisplayStringAt
 3334              	.LVL200:
 112:graphics.c    **** 			BSP_LCD_DisplayStringAt(70,0,"NEXT",CENTER_MODE);
 3335              		.loc 4 112 0
 3336 0158 3748     		ldr	r0, .L208+24
 3337 015a FFF7FEFF 		bl	BSP_LCD_SetTextColor
 3338              	.LVL201:
 113:graphics.c    **** 			BSP_LCD_DisplayStringAt(70,250,"PREV",CENTER_MODE);
ARM GAS  C:\Users\lenovo\AppData\Local\Temp\ccfgRfuq.s 			page 104


 3339              		.loc 4 113 0
 3340 015e 0123     		movs	r3, #1
 3341 0160 364A     		ldr	r2, .L208+28
 3342 0162 0021     		movs	r1, #0
 3343 0164 4620     		movs	r0, #70
 3344 0166 FFF7FEFF 		bl	BSP_LCD_DisplayStringAt
 3345              	.LVL202:
 114:graphics.c    **** 			break;
 3346              		.loc 4 114 0
 3347 016a 0123     		movs	r3, #1
 3348 016c 384A     		ldr	r2, .L208+48
 3349 016e FA21     		movs	r1, #250
 3350 0170 4620     		movs	r0, #70
 3351 0172 FFF7FEFF 		bl	BSP_LCD_DisplayStringAt
 3352              	.LVL203:
 115:graphics.c    **** 		case 2:
 3353              		.loc 4 115 0
 3354 0176 4FE7     		b	.L195
 3355              	.L197:
 117:graphics.c    **** 			BSP_LCD_Clear(LCD_COLOR_WHITE);
 3356              		.loc 4 117 0
 3357 0178 0020     		movs	r0, #0
 3358 017a FFF7FEFF 		bl	BSP_LCD_SelectLayer
 3359              	.LVL204:
 118:graphics.c    **** 			BSP_LCD_SetTextColor(LCD_COLOR_GREEN);
 3360              		.loc 4 118 0
 3361 017e 4FF0FF30 		mov	r0, #-1
 3362 0182 FFF7FEFF 		bl	BSP_LCD_Clear
 3363              	.LVL205:
 119:graphics.c    **** 			BSP_LCD_DisplayStringAt(191,50,"LWSS",CENTER_MODE);
 3364              		.loc 4 119 0
 3365 0186 4FF0FF20 		mov	r0, #-16711936
 3366 018a FFF7FEFF 		bl	BSP_LCD_SetTextColor
 3367              	.LVL206:
 120:graphics.c    **** 			BSP_LCD_DisplayStringAt(142,100,"Cloverleaf",CENTER_MODE);
 3368              		.loc 4 120 0
 3369 018e 0123     		movs	r3, #1
 3370 0190 304A     		ldr	r2, .L208+52
 3371 0192 3221     		movs	r1, #50
 3372 0194 BF20     		movs	r0, #191
 3373 0196 FFF7FEFF 		bl	BSP_LCD_DisplayStringAt
 3374              	.LVL207:
 121:graphics.c    **** 			BSP_LCD_DisplayStringAt(177,150,"Beacon",CENTER_MODE);
 3375              		.loc 4 121 0
 3376 019a 0123     		movs	r3, #1
 3377 019c 2E4A     		ldr	r2, .L208+56
 3378 019e 6421     		movs	r1, #100
 3379 01a0 8E20     		movs	r0, #142
 3380 01a2 FFF7FEFF 		bl	BSP_LCD_DisplayStringAt
 3381              	.LVL208:
 122:graphics.c    **** 			BSP_LCD_DisplayStringAt(145,200,"GameOfLife",CENTER_MODE);
 3382              		.loc 4 122 0
 3383 01a6 0123     		movs	r3, #1
 3384 01a8 2C4A     		ldr	r2, .L208+60
 3385 01aa 9621     		movs	r1, #150
 3386 01ac B120     		movs	r0, #177
 3387 01ae FFF7FEFF 		bl	BSP_LCD_DisplayStringAt
ARM GAS  C:\Users\lenovo\AppData\Local\Temp\ccfgRfuq.s 			page 105


 3388              	.LVL209:
 123:graphics.c    **** 			BSP_LCD_SetTextColor(LCD_COLOR_RED);
 3389              		.loc 4 123 0
 3390 01b2 0123     		movs	r3, #1
 3391 01b4 2A4A     		ldr	r2, .L208+64
 3392 01b6 C821     		movs	r1, #200
 3393 01b8 9120     		movs	r0, #145
 3394 01ba FFF7FEFF 		bl	BSP_LCD_DisplayStringAt
 3395              	.LVL210:
 124:graphics.c    **** 			BSP_LCD_DisplayStringAt(70,250,"PREV",CENTER_MODE);
 3396              		.loc 4 124 0
 3397 01be 1E48     		ldr	r0, .L208+24
 3398 01c0 FFF7FEFF 		bl	BSP_LCD_SetTextColor
 3399              	.LVL211:
 125:graphics.c    **** 			break;
 3400              		.loc 4 125 0
 3401 01c4 0123     		movs	r3, #1
 3402 01c6 224A     		ldr	r2, .L208+48
 3403 01c8 FA21     		movs	r1, #250
 3404 01ca 4620     		movs	r0, #70
 3405 01cc FFF7FEFF 		bl	BSP_LCD_DisplayStringAt
 3406              	.LVL212:
 126:graphics.c    **** 	}
 3407              		.loc 4 126 0
 3408 01d0 22E7     		b	.L195
 3409              	.L206:
 133:graphics.c    **** 	}
 3410              		.loc 4 133 0
 3411 01d2 2448     		ldr	r0, .L208+68
 3412 01d4 FFF7FEFF 		bl	BSP_LCD_SetTextColor
 3413              	.LVL213:
 3414 01d8 44E7     		b	.L199
 3415              	.LVL214:
 3416              	.L201:
 3417              	.LBB30:
 3418              	.LBB29:
 141:graphics.c    **** 		for (int j = 0; j < Y_SIZE; j++){
 142:graphics.c    **** 			BSP_LCD_DrawRect(LCD_X_SIZE+i*10,LCD_Y_SIZE+j*10,10,10);
 3419              		.loc 4 142 0 discriminator 3
 3420 01da 04EB8403 		add	r3, r4, r4, lsl #2
 3421 01de 5900     		lsls	r1, r3, #1
 3422 01e0 01F58871 		add	r1, r1, #272
 3423 01e4 89B2     		uxth	r1, r1
 3424 01e6 05EB8503 		add	r3, r5, r5, lsl #2
 3425 01ea 5800     		lsls	r0, r3, #1
 3426 01ec 00F5F070 		add	r0, r0, #480
 3427 01f0 80B2     		uxth	r0, r0
 3428 01f2 0A23     		movs	r3, #10
 3429 01f4 1A46     		mov	r2, r3
 3430 01f6 FFF7FEFF 		bl	BSP_LCD_DrawRect
 3431              	.LVL215:
 141:graphics.c    **** 		for (int j = 0; j < Y_SIZE; j++){
 3432              		.loc 4 141 0 discriminator 3
 3433 01fa 0134     		adds	r4, r4, #1
 3434              	.LVL216:
 3435              	.L202:
 141:graphics.c    **** 		for (int j = 0; j < Y_SIZE; j++){
ARM GAS  C:\Users\lenovo\AppData\Local\Temp\ccfgRfuq.s 			page 106


 3436              		.loc 4 141 0 is_stmt 0 discriminator 1
 3437 01fc 1A2C     		cmp	r4, #26
 3438 01fe ECDD     		ble	.L201
 3439              	.LBE29:
 140:graphics.c    **** 		for (int j = 0; j < Y_SIZE; j++){
 3440              		.loc 4 140 0 is_stmt 1 discriminator 2
 3441 0200 0135     		adds	r5, r5, #1
 3442              	.LVL217:
 3443              	.L200:
 140:graphics.c    **** 		for (int j = 0; j < Y_SIZE; j++){
 3444              		.loc 4 140 0 is_stmt 0 discriminator 1
 3445 0202 1A2D     		cmp	r5, #26
 3446 0204 01DC     		bgt	.L207
 3447 0206 0024     		movs	r4, #0
 3448 0208 F8E7     		b	.L202
 3449              	.L207:
 3450              	.LBE30:
 143:graphics.c    **** 			
 144:graphics.c    **** 		}
 145:graphics.c    **** 	}
 146:graphics.c    **** 	
 147:graphics.c    **** 	BSP_LCD_SetTextColor(LCD_COLOR_BLUE);
 3451              		.loc 4 147 0 is_stmt 1
 3452 020a 1648     		ldr	r0, .L208+68
 3453 020c FFF7FEFF 		bl	BSP_LCD_SetTextColor
 3454              	.LVL218:
 148:graphics.c    **** 	BSP_LCD_DisplayStringAt(200,250,"DRAW",CENTER_MODE);
 3455              		.loc 4 148 0
 3456 0210 0123     		movs	r3, #1
 3457 0212 154A     		ldr	r2, .L208+72
 3458 0214 FA21     		movs	r1, #250
 3459 0216 C820     		movs	r0, #200
 3460 0218 FFF7FEFF 		bl	BSP_LCD_DisplayStringAt
 3461              	.LVL219:
 149:graphics.c    **** }
 3462              		.loc 4 149 0
 3463 021c 03B0     		add	sp, sp, #12
 3464              	.LCFI33:
 3465              		.cfi_def_cfa_offset 12
 3466              		@ sp needed
 3467 021e 30BD     		pop	{r4, r5, pc}
 3468              	.LVL220:
 3469              	.L209:
 3470              		.align	2
 3471              	.L208:
 3472 0220 00000000 		.word	.LANCHOR8
 3473 0224 00000000 		.word	.LANCHOR7
 3474 0228 00000000 		.word	.LC8
 3475 022c 08000000 		.word	.LC9
 3476 0230 14000000 		.word	.LC10
 3477 0234 20000000 		.word	.LC11
 3478 0238 0000FFFF 		.word	-65536
 3479 023c 2C000000 		.word	.LC12
 3480 0240 34000000 		.word	.LC13
 3481 0244 3C000000 		.word	.LC14
 3482 0248 48000000 		.word	.LC15
 3483 024c 50000000 		.word	.LC16
ARM GAS  C:\Users\lenovo\AppData\Local\Temp\ccfgRfuq.s 			page 107


 3484 0250 5C000000 		.word	.LC17
 3485 0254 64000000 		.word	.LC18
 3486 0258 6C000000 		.word	.LC19
 3487 025c 78000000 		.word	.LC20
 3488 0260 80000000 		.word	.LC21
 3489 0264 FF0000FF 		.word	-16776961
 3490 0268 8C000000 		.word	.LC22
 3491              		.cfi_endproc
 3492              	.LFE178:
 3494              		.section	.text.draw_background,"ax",%progbits
 3495              		.align	1
 3496              		.global	draw_background
 3497              		.syntax unified
 3498              		.thumb
 3499              		.thumb_func
 3500              		.fpu fpv5-sp-d16
 3502              	draw_background:
 3503              	.LFB179:
 150:graphics.c    **** 
 151:graphics.c    **** void draw_background(void)
 152:graphics.c    **** {
 3504              		.loc 4 152 0
 3505              		.cfi_startproc
 3506              		@ args = 0, pretend = 0, frame = 0
 3507              		@ frame_needed = 0, uses_anonymous_args = 0
 3508 0000 38B5     		push	{r3, r4, r5, lr}
 3509              	.LCFI34:
 3510              		.cfi_def_cfa_offset 16
 3511              		.cfi_offset 3, -16
 3512              		.cfi_offset 4, -12
 3513              		.cfi_offset 5, -8
 3514              		.cfi_offset 14, -4
 153:graphics.c    ****   /* Select the LCD Background Layer  */
 154:graphics.c    ****   BSP_LCD_SelectLayer(0);
 3515              		.loc 4 154 0
 3516 0002 0020     		movs	r0, #0
 3517 0004 FFF7FEFF 		bl	BSP_LCD_SelectLayer
 3518              	.LVL221:
 155:graphics.c    ****   BSP_LCD_SetTextColor(LCD_COLOR_GREEN);
 3519              		.loc 4 155 0
 3520 0008 4FF0FF20 		mov	r0, #-16711936
 3521 000c FFF7FEFF 		bl	BSP_LCD_SetTextColor
 3522              	.LVL222:
 156:graphics.c    ****   if(stopped){
 3523              		.loc 4 156 0
 3524 0010 364B     		ldr	r3, .L225
 3525 0012 1B68     		ldr	r3, [r3]
 3526 0014 7BB9     		cbnz	r3, .L220
 3527              	.L211:
 157:graphics.c    **** 	  BSP_LCD_SetTextColor(LCD_COLOR_BLUE);
 158:graphics.c    **** 	}
 159:graphics.c    **** 	BSP_LCD_FillRect(410,1,7,21);
 3528              		.loc 4 159 0
 3529 0016 1523     		movs	r3, #21
 3530 0018 0722     		movs	r2, #7
 3531 001a 0121     		movs	r1, #1
 3532 001c 4FF4CD70 		mov	r0, #410
ARM GAS  C:\Users\lenovo\AppData\Local\Temp\ccfgRfuq.s 			page 108


 3533 0020 FFF7FEFF 		bl	BSP_LCD_FillRect
 3534              	.LVL223:
 160:graphics.c    **** 	BSP_LCD_FillRect(423,1,7,21);
 3535              		.loc 4 160 0
 3536 0024 1523     		movs	r3, #21
 3537 0026 0722     		movs	r2, #7
 3538 0028 0121     		movs	r1, #1
 3539 002a 40F2A710 		movw	r0, #423
 3540 002e FFF7FEFF 		bl	BSP_LCD_FillRect
 3541              	.LVL224:
 3542              	.LBB31:
 161:graphics.c    ****   for (int i = 0; i < X_SIZE; i++){
 3543              		.loc 4 161 0
 3544 0032 0025     		movs	r5, #0
 3545 0034 4EE0     		b	.L212
 3546              	.LVL225:
 3547              	.L220:
 3548              	.LBE31:
 157:graphics.c    **** 	  BSP_LCD_SetTextColor(LCD_COLOR_BLUE);
 3549              		.loc 4 157 0
 3550 0036 2E48     		ldr	r0, .L225+4
 3551 0038 FFF7FEFF 		bl	BSP_LCD_SetTextColor
 3552              	.LVL226:
 3553 003c EBE7     		b	.L211
 3554              	.LVL227:
 3555              	.L222:
 3556              	.LBB33:
 3557              	.LBB32:
 162:graphics.c    **** 	for (int j = 0; j < Y_SIZE; j++){
 163:graphics.c    **** 		if(table[i][j] == 1) {
 164:graphics.c    **** 			BSP_LCD_SetTextColor(LCD_COLOR_GREEN);
 3558              		.loc 4 164 0
 3559 003e 4FF0FF20 		mov	r0, #-16711936
 3560 0042 FFF7FEFF 		bl	BSP_LCD_SetTextColor
 3561              	.LVL228:
 165:graphics.c    **** 			BSP_LCD_FillRect(LCD_X_SIZE+i*10,LCD_Y_SIZE+j*10,10,10);
 3562              		.loc 4 165 0
 3563 0046 04EB8403 		add	r3, r4, r4, lsl #2
 3564 004a 5900     		lsls	r1, r3, #1
 3565 004c 01F58871 		add	r1, r1, #272
 3566 0050 89B2     		uxth	r1, r1
 3567 0052 05EB8503 		add	r3, r5, r5, lsl #2
 3568 0056 5800     		lsls	r0, r3, #1
 3569 0058 00F5F070 		add	r0, r0, #480
 3570 005c 80B2     		uxth	r0, r0
 3571 005e 0A23     		movs	r3, #10
 3572 0060 1A46     		mov	r2, r3
 3573 0062 FFF7FEFF 		bl	BSP_LCD_FillRect
 3574              	.LVL229:
 3575              	.L214:
 166:graphics.c    **** 		}
 167:graphics.c    **** 		else 
 168:graphics.c    **** 		{
 169:graphics.c    **** 			BSP_LCD_SetTextColor(LCD_COLOR_WHITE);
 170:graphics.c    **** 			BSP_LCD_FillRect(LCD_X_SIZE+i*10,LCD_Y_SIZE+j*10,10,10);
 171:graphics.c    **** 		}
 172:graphics.c    **** 		BSP_LCD_SetTextColor(LCD_COLOR_GREEN);
ARM GAS  C:\Users\lenovo\AppData\Local\Temp\ccfgRfuq.s 			page 109


 3576              		.loc 4 172 0 discriminator 2
 3577 0066 4FF0FF20 		mov	r0, #-16711936
 3578 006a FFF7FEFF 		bl	BSP_LCD_SetTextColor
 3579              	.LVL230:
 173:graphics.c    **** 		BSP_LCD_DrawRect(LCD_X_SIZE+i*10,LCD_Y_SIZE+j*10,10,10);
 3580              		.loc 4 173 0 discriminator 2
 3581 006e 04EB8403 		add	r3, r4, r4, lsl #2
 3582 0072 5900     		lsls	r1, r3, #1
 3583 0074 01F58871 		add	r1, r1, #272
 3584 0078 89B2     		uxth	r1, r1
 3585 007a 05EB8503 		add	r3, r5, r5, lsl #2
 3586 007e 5800     		lsls	r0, r3, #1
 3587 0080 00F5F070 		add	r0, r0, #480
 3588 0084 80B2     		uxth	r0, r0
 3589 0086 0A23     		movs	r3, #10
 3590 0088 1A46     		mov	r2, r3
 3591 008a FFF7FEFF 		bl	BSP_LCD_DrawRect
 3592              	.LVL231:
 162:graphics.c    **** 		if(table[i][j] == 1) {
 3593              		.loc 4 162 0 discriminator 2
 3594 008e 0134     		adds	r4, r4, #1
 3595              	.LVL232:
 3596              	.L216:
 162:graphics.c    **** 		if(table[i][j] == 1) {
 3597              		.loc 4 162 0 is_stmt 0 discriminator 1
 3598 0090 1A2C     		cmp	r4, #26
 3599 0092 1EDC     		bgt	.L221
 163:graphics.c    **** 			BSP_LCD_SetTextColor(LCD_COLOR_GREEN);
 3600              		.loc 4 163 0 is_stmt 1
 3601 0094 05EB4503 		add	r3, r5, r5, lsl #1
 3602 0098 03EBC303 		add	r3, r3, r3, lsl #3
 3603 009c 2344     		add	r3, r3, r4
 3604 009e 154A     		ldr	r2, .L225+8
 3605 00a0 52F82330 		ldr	r3, [r2, r3, lsl #2]
 3606 00a4 012B     		cmp	r3, #1
 3607 00a6 CAD0     		beq	.L222
 169:graphics.c    **** 			BSP_LCD_FillRect(LCD_X_SIZE+i*10,LCD_Y_SIZE+j*10,10,10);
 3608              		.loc 4 169 0
 3609 00a8 4FF0FF30 		mov	r0, #-1
 3610 00ac FFF7FEFF 		bl	BSP_LCD_SetTextColor
 3611              	.LVL233:
 170:graphics.c    **** 		}
 3612              		.loc 4 170 0
 3613 00b0 04EB8403 		add	r3, r4, r4, lsl #2
 3614 00b4 5900     		lsls	r1, r3, #1
 3615 00b6 01F58871 		add	r1, r1, #272
 3616 00ba 89B2     		uxth	r1, r1
 3617 00bc 05EB8503 		add	r3, r5, r5, lsl #2
 3618 00c0 5800     		lsls	r0, r3, #1
 3619 00c2 00F5F070 		add	r0, r0, #480
 3620 00c6 80B2     		uxth	r0, r0
 3621 00c8 0A23     		movs	r3, #10
 3622 00ca 1A46     		mov	r2, r3
 3623 00cc FFF7FEFF 		bl	BSP_LCD_FillRect
 3624              	.LVL234:
 3625 00d0 C9E7     		b	.L214
 3626              	.L221:
ARM GAS  C:\Users\lenovo\AppData\Local\Temp\ccfgRfuq.s 			page 110


 3627              	.LBE32:
 161:graphics.c    **** 	for (int j = 0; j < Y_SIZE; j++){
 3628              		.loc 4 161 0 discriminator 2
 3629 00d2 0135     		adds	r5, r5, #1
 3630              	.LVL235:
 3631              	.L212:
 161:graphics.c    **** 	for (int j = 0; j < Y_SIZE; j++){
 3632              		.loc 4 161 0 is_stmt 0 discriminator 1
 3633 00d4 1A2D     		cmp	r5, #26
 3634 00d6 01DC     		bgt	.L223
 3635 00d8 0024     		movs	r4, #0
 3636 00da D9E7     		b	.L216
 3637              	.L223:
 3638              	.LBE33:
 174:graphics.c    **** 	}
 175:graphics.c    ****   }
 176:graphics.c    ****   if(!stopped){
 3639              		.loc 4 176 0 is_stmt 1
 3640 00dc 034B     		ldr	r3, .L225
 3641 00de 1B68     		ldr	r3, [r3]
 3642 00e0 03B1     		cbz	r3, .L224
 3643              	.L210:
 3644 00e2 38BD     		pop	{r3, r4, r5, pc}
 3645              	.LVL236:
 3646              	.L224:
 177:graphics.c    **** 	update_table();
 3647              		.loc 4 177 0
 3648 00e4 FFF7FEFF 		bl	update_table
 3649              	.LVL237:
 178:graphics.c    ****   } 
 179:graphics.c    **** }
 3650              		.loc 4 179 0
 3651 00e8 FBE7     		b	.L210
 3652              	.L226:
 3653 00ea 00BF     		.align	2
 3654              	.L225:
 3655 00ec 00000000 		.word	.LANCHOR7
 3656 00f0 FF0000FF 		.word	-16776961
 3657 00f4 00000000 		.word	.LANCHOR2
 3658              		.cfi_endproc
 3659              	.LFE179:
 3661              		.section	.text.init_drawingbackground,"ax",%progbits
 3662              		.align	1
 3663              		.global	init_drawingbackground
 3664              		.syntax unified
 3665              		.thumb
 3666              		.thumb_func
 3667              		.fpu fpv5-sp-d16
 3669              	init_drawingbackground:
 3670              	.LFB180:
 180:graphics.c    **** 
 181:graphics.c    **** void init_drawingbackground(){
 3671              		.loc 4 181 0
 3672              		.cfi_startproc
 3673              		@ args = 0, pretend = 0, frame = 0
 3674              		@ frame_needed = 0, uses_anonymous_args = 0
 3675 0000 F0B5     		push	{r4, r5, r6, r7, lr}
ARM GAS  C:\Users\lenovo\AppData\Local\Temp\ccfgRfuq.s 			page 111


 3676              	.LCFI35:
 3677              		.cfi_def_cfa_offset 20
 3678              		.cfi_offset 4, -20
 3679              		.cfi_offset 5, -16
 3680              		.cfi_offset 6, -12
 3681              		.cfi_offset 7, -8
 3682              		.cfi_offset 14, -4
 3683 0002 83B0     		sub	sp, sp, #12
 3684              	.LCFI36:
 3685              		.cfi_def_cfa_offset 32
 182:graphics.c    **** 	/* Select the LCD Background Layer  */
 183:graphics.c    ****   delay = 100;
 3686              		.loc 4 183 0
 3687 0004 6422     		movs	r2, #100
 3688 0006 704B     		ldr	r3, .L249
 3689 0008 1A60     		str	r2, [r3]
 184:graphics.c    ****   stopped = 0;
 3690              		.loc 4 184 0
 3691 000a 0027     		movs	r7, #0
 3692 000c 6F4B     		ldr	r3, .L249+4
 3693 000e 1F60     		str	r7, [r3]
 185:graphics.c    ****   BSP_LCD_SelectLayer(0);  
 3694              		.loc 4 185 0
 3695 0010 3846     		mov	r0, r7
 3696 0012 FFF7FEFF 		bl	BSP_LCD_SelectLayer
 3697              	.LVL238:
 186:graphics.c    ****   BSP_LCD_Clear(LCD_COLOR_WHITE);
 3698              		.loc 4 186 0
 3699 0016 4FF0FF30 		mov	r0, #-1
 3700 001a FFF7FEFF 		bl	BSP_LCD_Clear
 3701              	.LVL239:
 187:graphics.c    ****   BSP_LCD_SetTextColor(LCD_COLOR_GREEN);
 3702              		.loc 4 187 0
 3703 001e 4FF0FF20 		mov	r0, #-16711936
 3704 0022 FFF7FEFF 		bl	BSP_LCD_SetTextColor
 3705              	.LVL240:
 3706              	.LBB34:
 188:graphics.c    ****   for (int i = 0; i < X_SIZE; i++){
 3707              		.loc 4 188 0
 3708 0026 23E0     		b	.L228
 3709              	.LVL241:
 3710              	.L229:
 3711              	.LBB35:
 189:graphics.c    **** 	for (int j = 0; j < Y_SIZE; j++){
 190:graphics.c    **** 		BSP_LCD_SetTextColor(LCD_COLOR_WHITE);
 3712              		.loc 4 190 0 discriminator 3
 3713 0028 4FF0FF30 		mov	r0, #-1
 3714 002c FFF7FEFF 		bl	BSP_LCD_SetTextColor
 3715              	.LVL242:
 191:graphics.c    **** 		BSP_LCD_FillRect(LCD_X_SIZE+i*10,LCD_Y_SIZE+j*10,10,10);
 3716              		.loc 4 191 0 discriminator 3
 3717 0030 07EB8703 		add	r3, r7, r7, lsl #2
 3718 0034 5C00     		lsls	r4, r3, #1
 3719 0036 04F5F074 		add	r4, r4, #480
 3720 003a A4B2     		uxth	r4, r4
 3721 003c 06EB8603 		add	r3, r6, r6, lsl #2
 3722 0040 5D00     		lsls	r5, r3, #1
ARM GAS  C:\Users\lenovo\AppData\Local\Temp\ccfgRfuq.s 			page 112


 3723 0042 05F58875 		add	r5, r5, #272
 3724 0046 ADB2     		uxth	r5, r5
 3725 0048 0A23     		movs	r3, #10
 3726 004a 1A46     		mov	r2, r3
 3727 004c 2946     		mov	r1, r5
 3728 004e 2046     		mov	r0, r4
 3729 0050 FFF7FEFF 		bl	BSP_LCD_FillRect
 3730              	.LVL243:
 192:graphics.c    **** 		BSP_LCD_SetTextColor(LCD_COLOR_GREEN);
 3731              		.loc 4 192 0 discriminator 3
 3732 0054 4FF0FF20 		mov	r0, #-16711936
 3733 0058 FFF7FEFF 		bl	BSP_LCD_SetTextColor
 3734              	.LVL244:
 193:graphics.c    **** 		BSP_LCD_DrawRect(LCD_X_SIZE+i*10,LCD_Y_SIZE+j*10,10,10);
 3735              		.loc 4 193 0 discriminator 3
 3736 005c 0A23     		movs	r3, #10
 3737 005e 1A46     		mov	r2, r3
 3738 0060 2946     		mov	r1, r5
 3739 0062 2046     		mov	r0, r4
 3740 0064 FFF7FEFF 		bl	BSP_LCD_DrawRect
 3741              	.LVL245:
 189:graphics.c    **** 		BSP_LCD_SetTextColor(LCD_COLOR_WHITE);
 3742              		.loc 4 189 0 discriminator 3
 3743 0068 0136     		adds	r6, r6, #1
 3744              	.LVL246:
 3745              	.L230:
 189:graphics.c    **** 		BSP_LCD_SetTextColor(LCD_COLOR_WHITE);
 3746              		.loc 4 189 0 is_stmt 0 discriminator 1
 3747 006a 1A2E     		cmp	r6, #26
 3748 006c DCDD     		ble	.L229
 3749              	.LBE35:
 188:graphics.c    **** 	for (int j = 0; j < Y_SIZE; j++){
 3750              		.loc 4 188 0 is_stmt 1 discriminator 2
 3751 006e 0137     		adds	r7, r7, #1
 3752              	.LVL247:
 3753              	.L228:
 188:graphics.c    **** 	for (int j = 0; j < Y_SIZE; j++){
 3754              		.loc 4 188 0 is_stmt 0 discriminator 1
 3755 0070 1A2F     		cmp	r7, #26
 3756 0072 01DC     		bgt	.L245
 3757 0074 0026     		movs	r6, #0
 3758 0076 F8E7     		b	.L230
 3759              	.L245:
 3760              	.LBE34:
 194:graphics.c    **** 	}
 195:graphics.c    ****   }
 196:graphics.c    ****   
 197:graphics.c    **** 	BSP_LCD_SetTextColor(LCD_COLOR_BLUE);
 3761              		.loc 4 197 0 is_stmt 1
 3762 0078 5548     		ldr	r0, .L249+8
 3763 007a FFF7FEFF 		bl	BSP_LCD_SetTextColor
 3764              	.LVL248:
 3765              	.LBB36:
 198:graphics.c    **** 	for (int i = 9; i < 18; i++){
 3766              		.loc 4 198 0
 3767 007e 0925     		movs	r5, #9
 3768 0080 13E0     		b	.L231
ARM GAS  C:\Users\lenovo\AppData\Local\Temp\ccfgRfuq.s 			page 113


 3769              	.LVL249:
 3770              	.L232:
 3771              	.LBB37:
 199:graphics.c    **** 		for (int j = 9; j < 18; j++){
 200:graphics.c    **** 			BSP_LCD_DrawRect(LCD_X_SIZE+i*10,LCD_Y_SIZE+j*10,10,10);
 3772              		.loc 4 200 0 discriminator 3
 3773 0082 04EB8403 		add	r3, r4, r4, lsl #2
 3774 0086 5900     		lsls	r1, r3, #1
 3775 0088 01F58871 		add	r1, r1, #272
 3776 008c 89B2     		uxth	r1, r1
 3777 008e 05EB8503 		add	r3, r5, r5, lsl #2
 3778 0092 5800     		lsls	r0, r3, #1
 3779 0094 00F5F070 		add	r0, r0, #480
 3780 0098 80B2     		uxth	r0, r0
 3781 009a 0A23     		movs	r3, #10
 3782 009c 1A46     		mov	r2, r3
 3783 009e FFF7FEFF 		bl	BSP_LCD_DrawRect
 3784              	.LVL250:
 199:graphics.c    **** 		for (int j = 9; j < 18; j++){
 3785              		.loc 4 199 0 discriminator 3
 3786 00a2 0134     		adds	r4, r4, #1
 3787              	.LVL251:
 3788              	.L233:
 199:graphics.c    **** 		for (int j = 9; j < 18; j++){
 3789              		.loc 4 199 0 is_stmt 0 discriminator 1
 3790 00a4 112C     		cmp	r4, #17
 3791 00a6 ECDD     		ble	.L232
 3792              	.LBE37:
 198:graphics.c    **** 	for (int i = 9; i < 18; i++){
 3793              		.loc 4 198 0 is_stmt 1 discriminator 2
 3794 00a8 0135     		adds	r5, r5, #1
 3795              	.LVL252:
 3796              	.L231:
 198:graphics.c    **** 	for (int i = 9; i < 18; i++){
 3797              		.loc 4 198 0 is_stmt 0 discriminator 1
 3798 00aa 112D     		cmp	r5, #17
 3799 00ac 01DC     		bgt	.L246
 3800 00ae 0924     		movs	r4, #9
 3801 00b0 F8E7     		b	.L233
 3802              	.L246:
 3803              	.LBE36:
 201:graphics.c    **** 		}
 202:graphics.c    **** 	}
 203:graphics.c    **** 	
 204:graphics.c    **** 	vTaskDelay(1000);
 3804              		.loc 4 204 0 is_stmt 1
 3805 00b2 4FF47A70 		mov	r0, #1000
 3806 00b6 FFF7FEFF 		bl	vTaskDelay
 3807              	.LVL253:
 205:graphics.c    **** 	BSP_LCD_SetTextColor(LCD_COLOR_WHITE);
 3808              		.loc 4 205 0
 3809 00ba 4FF0FF30 		mov	r0, #-1
 3810 00be FFF7FEFF 		bl	BSP_LCD_SetTextColor
 3811              	.LVL254:
 3812              	.LBB38:
 206:graphics.c    **** 	for (int i = 0; i < X_SIZE; i++){
 3813              		.loc 4 206 0
ARM GAS  C:\Users\lenovo\AppData\Local\Temp\ccfgRfuq.s 			page 114


 3814 00c2 0025     		movs	r5, #0
 3815              	.LVL255:
 3816 00c4 13E0     		b	.L234
 3817              	.LVL256:
 3818              	.L235:
 3819              	.LBB39:
 207:graphics.c    **** 		for (int j = 0; j < Y_SIZE; j++){
 208:graphics.c    **** 			BSP_LCD_DrawRect(LCD_X_SIZE+i*10,LCD_Y_SIZE+j*10,10,10);
 3820              		.loc 4 208 0 discriminator 3
 3821 00c6 04EB8403 		add	r3, r4, r4, lsl #2
 3822 00ca 5900     		lsls	r1, r3, #1
 3823 00cc 01F58871 		add	r1, r1, #272
 3824 00d0 89B2     		uxth	r1, r1
 3825 00d2 05EB8503 		add	r3, r5, r5, lsl #2
 3826 00d6 5800     		lsls	r0, r3, #1
 3827 00d8 00F5F070 		add	r0, r0, #480
 3828 00dc 80B2     		uxth	r0, r0
 3829 00de 0A23     		movs	r3, #10
 3830 00e0 1A46     		mov	r2, r3
 3831 00e2 FFF7FEFF 		bl	BSP_LCD_DrawRect
 3832              	.LVL257:
 207:graphics.c    **** 		for (int j = 0; j < Y_SIZE; j++){
 3833              		.loc 4 207 0 discriminator 3
 3834 00e6 0134     		adds	r4, r4, #1
 3835              	.LVL258:
 3836              	.L236:
 207:graphics.c    **** 		for (int j = 0; j < Y_SIZE; j++){
 3837              		.loc 4 207 0 is_stmt 0 discriminator 1
 3838 00e8 1A2C     		cmp	r4, #26
 3839 00ea ECDD     		ble	.L235
 3840              	.LBE39:
 206:graphics.c    **** 	for (int i = 0; i < X_SIZE; i++){
 3841              		.loc 4 206 0 is_stmt 1 discriminator 2
 3842 00ec 0135     		adds	r5, r5, #1
 3843              	.LVL259:
 3844              	.L234:
 206:graphics.c    **** 	for (int i = 0; i < X_SIZE; i++){
 3845              		.loc 4 206 0 is_stmt 0 discriminator 1
 3846 00ee 1A2D     		cmp	r5, #26
 3847 00f0 01DC     		bgt	.L247
 3848 00f2 0024     		movs	r4, #0
 3849 00f4 F8E7     		b	.L236
 3850              	.L247:
 3851              	.LBE38:
 209:graphics.c    **** 		}
 210:graphics.c    **** 	}
 211:graphics.c    **** 	clearTable();
 3852              		.loc 4 211 0 is_stmt 1
 3853 00f6 FFF7FEFF 		bl	clearTable
 3854              	.LVL260:
 212:graphics.c    **** 	drawing_state = 1;
 3855              		.loc 4 212 0
 3856 00fa 0122     		movs	r2, #1
 3857 00fc 354B     		ldr	r3, .L249+12
 3858 00fe 1A60     		str	r2, [r3]
 213:graphics.c    **** 	BSP_LCD_SetTextColor(LCD_COLOR_BLUE);
 3859              		.loc 4 213 0
ARM GAS  C:\Users\lenovo\AppData\Local\Temp\ccfgRfuq.s 			page 115


 3860 0100 3348     		ldr	r0, .L249+8
 3861 0102 FFF7FEFF 		bl	BSP_LCD_SetTextColor
 3862              	.LVL261:
 3863              	.LBB40:
 214:graphics.c    **** 	for (int i = 0; i < 9; i++){
 3864              		.loc 4 214 0
 3865 0106 0025     		movs	r5, #0
 3866              	.LVL262:
 3867 0108 13E0     		b	.L237
 3868              	.LVL263:
 3869              	.L238:
 3870              	.LBB41:
 215:graphics.c    **** 		for (int j = 0; j < 9; j++){
 216:graphics.c    **** 			BSP_LCD_DrawRect(LCD_X_SIZE+i*30,LCD_Y_SIZE+j*30,30,30);
 3871              		.loc 4 216 0 discriminator 3
 3872 010a C4EB0413 		rsb	r3, r4, r4, lsl #4
 3873 010e 5900     		lsls	r1, r3, #1
 3874 0110 01F58871 		add	r1, r1, #272
 3875 0114 89B2     		uxth	r1, r1
 3876 0116 C5EB0513 		rsb	r3, r5, r5, lsl #4
 3877 011a 5800     		lsls	r0, r3, #1
 3878 011c 00F5F070 		add	r0, r0, #480
 3879 0120 80B2     		uxth	r0, r0
 3880 0122 1E23     		movs	r3, #30
 3881 0124 1A46     		mov	r2, r3
 3882 0126 FFF7FEFF 		bl	BSP_LCD_DrawRect
 3883              	.LVL264:
 215:graphics.c    **** 		for (int j = 0; j < 9; j++){
 3884              		.loc 4 215 0 discriminator 3
 3885 012a 0134     		adds	r4, r4, #1
 3886              	.LVL265:
 3887              	.L239:
 215:graphics.c    **** 		for (int j = 0; j < 9; j++){
 3888              		.loc 4 215 0 is_stmt 0 discriminator 1
 3889 012c 082C     		cmp	r4, #8
 3890 012e ECDD     		ble	.L238
 3891              	.LBE41:
 214:graphics.c    **** 	for (int i = 0; i < 9; i++){
 3892              		.loc 4 214 0 is_stmt 1 discriminator 2
 3893 0130 0135     		adds	r5, r5, #1
 3894              	.LVL266:
 3895              	.L237:
 214:graphics.c    **** 	for (int i = 0; i < 9; i++){
 3896              		.loc 4 214 0 is_stmt 0 discriminator 1
 3897 0132 082D     		cmp	r5, #8
 3898 0134 01DC     		bgt	.L248
 3899 0136 0024     		movs	r4, #0
 3900 0138 F8E7     		b	.L239
 3901              	.L248:
 3902              	.LBE40:
 217:graphics.c    **** 		}
 218:graphics.c    **** 	}
 219:graphics.c    **** 	BSP_LCD_SetTextColor(LCD_COLOR_GREEN);
 3903              		.loc 4 219 0 is_stmt 1
 3904 013a 4FF0FF20 		mov	r0, #-16711936
 3905 013e FFF7FEFF 		bl	BSP_LCD_SetTextColor
 3906              	.LVL267:
ARM GAS  C:\Users\lenovo\AppData\Local\Temp\ccfgRfuq.s 			page 116


 220:graphics.c    **** 	FillTriangle(400,400,385,1,21,11);
 3907              		.loc 4 220 0
 3908 0142 0B25     		movs	r5, #11
 3909              	.LVL268:
 3910 0144 0195     		str	r5, [sp, #4]
 3911 0146 1524     		movs	r4, #21
 3912 0148 0094     		str	r4, [sp]
 3913 014a 0123     		movs	r3, #1
 3914 014c 40F28112 		movw	r2, #385
 3915 0150 4FF4C871 		mov	r1, #400
 3916 0154 0846     		mov	r0, r1
 3917 0156 FFF7FEFF 		bl	FillTriangle
 3918              	.LVL269:
 221:graphics.c    **** 	FillTriangle(380,380,365,1,21,11);
 3919              		.loc 4 221 0
 3920 015a 0195     		str	r5, [sp, #4]
 3921 015c 0094     		str	r4, [sp]
 3922 015e 0123     		movs	r3, #1
 3923 0160 40F26D12 		movw	r2, #365
 3924 0164 4FF4BE71 		mov	r1, #380
 3925 0168 0846     		mov	r0, r1
 3926 016a FFF7FEFF 		bl	FillTriangle
 3927              	.LVL270:
 222:graphics.c    **** 	FillTriangle(460,460,475,1,21,11);
 3928              		.loc 4 222 0
 3929 016e 0195     		str	r5, [sp, #4]
 3930 0170 0094     		str	r4, [sp]
 3931 0172 0123     		movs	r3, #1
 3932 0174 40F2DB12 		movw	r2, #475
 3933 0178 4FF4E671 		mov	r1, #460
 3934 017c 0846     		mov	r0, r1
 3935 017e FFF7FEFF 		bl	FillTriangle
 3936              	.LVL271:
 223:graphics.c    **** 	FillTriangle(440,440,455,1,21,11);
 3937              		.loc 4 223 0
 3938 0182 0195     		str	r5, [sp, #4]
 3939 0184 0094     		str	r4, [sp]
 3940 0186 0123     		movs	r3, #1
 3941 0188 40F2C712 		movw	r2, #455
 3942 018c 4FF4DC71 		mov	r1, #440
 3943 0190 0846     		mov	r0, r1
 3944 0192 FFF7FEFF 		bl	FillTriangle
 3945              	.LVL272:
 224:graphics.c    **** 	BSP_LCD_FillRect(410,1,7,21);
 3946              		.loc 4 224 0
 3947 0196 2346     		mov	r3, r4
 3948 0198 0722     		movs	r2, #7
 3949 019a 0121     		movs	r1, #1
 3950 019c 4FF4CD70 		mov	r0, #410
 3951 01a0 FFF7FEFF 		bl	BSP_LCD_FillRect
 3952              	.LVL273:
 225:graphics.c    **** 	BSP_LCD_FillRect(423,1,7,21);
 3953              		.loc 4 225 0
 3954 01a4 2346     		mov	r3, r4
 3955 01a6 0722     		movs	r2, #7
 3956 01a8 0121     		movs	r1, #1
 3957 01aa 40F2A710 		movw	r0, #423
ARM GAS  C:\Users\lenovo\AppData\Local\Temp\ccfgRfuq.s 			page 117


 3958 01ae FFF7FEFF 		bl	BSP_LCD_FillRect
 3959              	.LVL274:
 226:graphics.c    **** 	BSP_LCD_SetTextColor(LCD_COLOR_BLUE);
 3960              		.loc 4 226 0
 3961 01b2 0748     		ldr	r0, .L249+8
 3962 01b4 FFF7FEFF 		bl	BSP_LCD_SetTextColor
 3963              	.LVL275:
 227:graphics.c    **** 	BSP_LCD_DisplayStringAt(200,250,"DONE",CENTER_MODE);
 3964              		.loc 4 227 0
 3965 01b8 0123     		movs	r3, #1
 3966 01ba 074A     		ldr	r2, .L249+16
 3967 01bc FA21     		movs	r1, #250
 3968 01be C820     		movs	r0, #200
 3969 01c0 FFF7FEFF 		bl	BSP_LCD_DisplayStringAt
 3970              	.LVL276:
 228:graphics.c    **** }
 3971              		.loc 4 228 0
 3972 01c4 03B0     		add	sp, sp, #12
 3973              	.LCFI37:
 3974              		.cfi_def_cfa_offset 20
 3975              		@ sp needed
 3976 01c6 F0BD     		pop	{r4, r5, r6, r7, pc}
 3977              	.LVL277:
 3978              	.L250:
 3979              		.align	2
 3980              	.L249:
 3981 01c8 00000000 		.word	.LANCHOR3
 3982 01cc 00000000 		.word	.LANCHOR7
 3983 01d0 FF0000FF 		.word	-16776961
 3984 01d4 00000000 		.word	.LANCHOR6
 3985 01d8 00000000 		.word	.LC23
 3986              		.cfi_endproc
 3987              	.LFE180:
 3989              		.section	.text.draw_drawingbackground,"ax",%progbits
 3990              		.align	1
 3991              		.global	draw_drawingbackground
 3992              		.syntax unified
 3993              		.thumb
 3994              		.thumb_func
 3995              		.fpu fpv5-sp-d16
 3997              	draw_drawingbackground:
 3998              	.LFB181:
 229:graphics.c    **** 
 230:graphics.c    **** void draw_drawingbackground(){
 3999              		.loc 4 230 0
 4000              		.cfi_startproc
 4001              		@ args = 0, pretend = 0, frame = 8
 4002              		@ frame_needed = 0, uses_anonymous_args = 0
 4003 0000 F0B5     		push	{r4, r5, r6, r7, lr}
 4004              	.LCFI38:
 4005              		.cfi_def_cfa_offset 20
 4006              		.cfi_offset 4, -20
 4007              		.cfi_offset 5, -16
 4008              		.cfi_offset 6, -12
 4009              		.cfi_offset 7, -8
 4010              		.cfi_offset 14, -4
 4011 0002 83B0     		sub	sp, sp, #12
ARM GAS  C:\Users\lenovo\AppData\Local\Temp\ccfgRfuq.s 			page 118


 4012              	.LCFI39:
 4013              		.cfi_def_cfa_offset 32
 231:graphics.c    ****     char bufor[] = {0};
 4014              		.loc 4 231 0
 4015 0004 02AC     		add	r4, sp, #8
 4016 0006 0023     		movs	r3, #0
 4017 0008 04F8043D 		strb	r3, [r4, #-4]!
 232:graphics.c    ****     sprintf(bufor, "Delay: %d", delay);
 4018              		.loc 4 232 0
 4019 000c 374B     		ldr	r3, .L264
 4020 000e 1A68     		ldr	r2, [r3]
 4021 0010 3749     		ldr	r1, .L264+4
 4022 0012 2046     		mov	r0, r4
 4023 0014 FFF7FEFF 		bl	sprintf
 4024              	.LVL278:
 233:graphics.c    **** 	BSP_LCD_SetTextColor(LCD_COLOR_WHITE);
 4025              		.loc 4 233 0
 4026 0018 4FF0FF30 		mov	r0, #-1
 4027 001c FFF7FEFF 		bl	BSP_LCD_SetTextColor
 4028              	.LVL279:
 234:graphics.c    **** 	BSP_LCD_FillRect(270,60,200,30);
 4029              		.loc 4 234 0
 4030 0020 1E23     		movs	r3, #30
 4031 0022 C822     		movs	r2, #200
 4032 0024 3C21     		movs	r1, #60
 4033 0026 4FF48770 		mov	r0, #270
 4034 002a FFF7FEFF 		bl	BSP_LCD_FillRect
 4035              	.LVL280:
 235:graphics.c    **** 	BSP_LCD_SetTextColor(LCD_COLOR_GREEN);
 4036              		.loc 4 235 0
 4037 002e 4FF0FF20 		mov	r0, #-16711936
 4038 0032 FFF7FEFF 		bl	BSP_LCD_SetTextColor
 4039              	.LVL281:
 236:graphics.c    ****     BSP_LCD_DisplayStringAt(130, 65, (uint8_t*) bufor, CENTER_MODE);
 4040              		.loc 4 236 0
 4041 0036 0123     		movs	r3, #1
 4042 0038 2246     		mov	r2, r4
 4043 003a 4121     		movs	r1, #65
 4044 003c 8220     		movs	r0, #130
 4045 003e FFF7FEFF 		bl	BSP_LCD_DisplayStringAt
 4046              	.LVL282:
 237:graphics.c    **** 	if(stopped){
 4047              		.loc 4 237 0
 4048 0042 2C4B     		ldr	r3, .L264+8
 4049 0044 1B68     		ldr	r3, [r3]
 4050 0046 7BB9     		cbnz	r3, .L260
 4051              	.L252:
 238:graphics.c    **** 	  BSP_LCD_SetTextColor(LCD_COLOR_BLUE);
 239:graphics.c    **** 	}
 240:graphics.c    **** 	BSP_LCD_FillRect(410,1,7,21);
 4052              		.loc 4 240 0
 4053 0048 1523     		movs	r3, #21
 4054 004a 0722     		movs	r2, #7
 4055 004c 0121     		movs	r1, #1
 4056 004e 4FF4CD70 		mov	r0, #410
 4057 0052 FFF7FEFF 		bl	BSP_LCD_FillRect
 4058              	.LVL283:
ARM GAS  C:\Users\lenovo\AppData\Local\Temp\ccfgRfuq.s 			page 119


 241:graphics.c    **** 	BSP_LCD_FillRect(423,1,7,21);
 4059              		.loc 4 241 0
 4060 0056 1523     		movs	r3, #21
 4061 0058 0722     		movs	r2, #7
 4062 005a 0121     		movs	r1, #1
 4063 005c 40F2A710 		movw	r0, #423
 4064 0060 FFF7FEFF 		bl	BSP_LCD_FillRect
 4065              	.LVL284:
 4066              	.LBB42:
 242:graphics.c    **** 	for (int i = 0; i < 9; i++){
 4067              		.loc 4 242 0
 4068 0064 0026     		movs	r6, #0
 4069 0066 3AE0     		b	.L253
 4070              	.LVL285:
 4071              	.L260:
 4072              	.LBE42:
 238:graphics.c    **** 	  BSP_LCD_SetTextColor(LCD_COLOR_BLUE);
 4073              		.loc 4 238 0
 4074 0068 2348     		ldr	r0, .L264+12
 4075 006a FFF7FEFF 		bl	BSP_LCD_SetTextColor
 4076              	.LVL286:
 4077 006e EBE7     		b	.L252
 4078              	.LVL287:
 4079              	.L262:
 4080              	.LBB44:
 4081              	.LBB43:
 243:graphics.c    **** 		for (int j = 0; j < 9; j++){
 244:graphics.c    **** 			if(table[9+i][9+j] == 1) 
 245:graphics.c    **** 				BSP_LCD_SetTextColor(LCD_COLOR_GREEN);
 4082              		.loc 4 245 0
 4083 0070 4FF0FF20 		mov	r0, #-16711936
 4084 0074 FFF7FEFF 		bl	BSP_LCD_SetTextColor
 4085              	.LVL288:
 4086              	.L255:
 246:graphics.c    **** 			else 
 247:graphics.c    **** 				BSP_LCD_SetTextColor(LCD_COLOR_WHITE);
 248:graphics.c    **** 			BSP_LCD_FillRect(LCD_X_SIZE+i*30,LCD_Y_SIZE+j*30,30,30);
 4087              		.loc 4 248 0 discriminator 2
 4088 0078 C6EB0613 		rsb	r3, r6, r6, lsl #4
 4089 007c 5C00     		lsls	r4, r3, #1
 4090 007e 04F5F074 		add	r4, r4, #480
 4091 0082 A4B2     		uxth	r4, r4
 4092 0084 C5EB0513 		rsb	r3, r5, r5, lsl #4
 4093 0088 5F00     		lsls	r7, r3, #1
 4094 008a 07F58877 		add	r7, r7, #272
 4095 008e BFB2     		uxth	r7, r7
 4096 0090 1E23     		movs	r3, #30
 4097 0092 1A46     		mov	r2, r3
 4098 0094 3946     		mov	r1, r7
 4099 0096 2046     		mov	r0, r4
 4100 0098 FFF7FEFF 		bl	BSP_LCD_FillRect
 4101              	.LVL289:
 249:graphics.c    **** 			BSP_LCD_SetTextColor(LCD_COLOR_BLUE);
 4102              		.loc 4 249 0 discriminator 2
 4103 009c 1648     		ldr	r0, .L264+12
 4104 009e FFF7FEFF 		bl	BSP_LCD_SetTextColor
 4105              	.LVL290:
ARM GAS  C:\Users\lenovo\AppData\Local\Temp\ccfgRfuq.s 			page 120


 250:graphics.c    **** 			BSP_LCD_DrawRect(LCD_X_SIZE+i*30,LCD_Y_SIZE+j*30,30,30);
 4106              		.loc 4 250 0 discriminator 2
 4107 00a2 1E23     		movs	r3, #30
 4108 00a4 1A46     		mov	r2, r3
 4109 00a6 3946     		mov	r1, r7
 4110 00a8 2046     		mov	r0, r4
 4111 00aa FFF7FEFF 		bl	BSP_LCD_DrawRect
 4112              	.LVL291:
 243:graphics.c    **** 			if(table[9+i][9+j] == 1) 
 4113              		.loc 4 243 0 discriminator 2
 4114 00ae 0135     		adds	r5, r5, #1
 4115              	.LVL292:
 4116              	.L257:
 243:graphics.c    **** 			if(table[9+i][9+j] == 1) 
 4117              		.loc 4 243 0 is_stmt 0 discriminator 1
 4118 00b0 082D     		cmp	r5, #8
 4119 00b2 13DC     		bgt	.L261
 244:graphics.c    **** 				BSP_LCD_SetTextColor(LCD_COLOR_GREEN);
 4120              		.loc 4 244 0 is_stmt 1
 4121 00b4 06F10903 		add	r3, r6, #9
 4122 00b8 05F10901 		add	r1, r5, #9
 4123 00bc 03EB4303 		add	r3, r3, r3, lsl #1
 4124 00c0 03EBC302 		add	r2, r3, r3, lsl #3
 4125 00c4 0B46     		mov	r3, r1
 4126 00c6 1344     		add	r3, r3, r2
 4127 00c8 0C4A     		ldr	r2, .L264+16
 4128 00ca 52F82330 		ldr	r3, [r2, r3, lsl #2]
 4129 00ce 012B     		cmp	r3, #1
 4130 00d0 CED0     		beq	.L262
 247:graphics.c    **** 			BSP_LCD_FillRect(LCD_X_SIZE+i*30,LCD_Y_SIZE+j*30,30,30);
 4131              		.loc 4 247 0
 4132 00d2 4FF0FF30 		mov	r0, #-1
 4133 00d6 FFF7FEFF 		bl	BSP_LCD_SetTextColor
 4134              	.LVL293:
 4135 00da CDE7     		b	.L255
 4136              	.L261:
 4137              	.LBE43:
 242:graphics.c    **** 		for (int j = 0; j < 9; j++){
 4138              		.loc 4 242 0 discriminator 2
 4139 00dc 0136     		adds	r6, r6, #1
 4140              	.LVL294:
 4141              	.L253:
 242:graphics.c    **** 		for (int j = 0; j < 9; j++){
 4142              		.loc 4 242 0 is_stmt 0 discriminator 1
 4143 00de 082E     		cmp	r6, #8
 4144 00e0 01DC     		bgt	.L263
 4145 00e2 0025     		movs	r5, #0
 4146 00e4 E4E7     		b	.L257
 4147              	.L263:
 4148              	.LBE44:
 251:graphics.c    **** 		}
 252:graphics.c    **** 	}
 253:graphics.c    **** }...
 4149              		.loc 4 253 0 is_stmt 1
 4150 00e6 03B0     		add	sp, sp, #12
 4151              	.LCFI40:
 4152              		.cfi_def_cfa_offset 20
ARM GAS  C:\Users\lenovo\AppData\Local\Temp\ccfgRfuq.s 			page 121


 4153              		@ sp needed
 4154 00e8 F0BD     		pop	{r4, r5, r6, r7, pc}
 4155              	.LVL295:
 4156              	.L265:
 4157 00ea 00BF     		.align	2
 4158              	.L264:
 4159 00ec 00000000 		.word	.LANCHOR3
 4160 00f0 00000000 		.word	.LC24
 4161 00f4 00000000 		.word	.LANCHOR7
 4162 00f8 FF0000FF 		.word	-16776961
 4163 00fc 00000000 		.word	.LANCHOR2
 4164              		.cfi_endproc
 4165              	.LFE181:
 4167              		.section	.text.StartTableTask,"ax",%progbits
 4168              		.align	1
 4169              		.global	StartTableTask
 4170              		.syntax unified
 4171              		.thumb
 4172              		.thumb_func
 4173              		.fpu fpv5-sp-d16
 4175              	StartTableTask:
 4176              	.LFB213:
1600:main.c        ****   lcd_start();
 4177              		.loc 1 1600 0
 4178              		.cfi_startproc
 4179              		@ Volatile: function does not return.
 4180              		@ args = 0, pretend = 0, frame = 0
 4181              		@ frame_needed = 0, uses_anonymous_args = 0
 4182 0000 08B5     		push	{r3, lr}
 4183              	.LCFI41:
 4184              		.cfi_def_cfa_offset 8
 4185              		.cfi_offset 3, -8
 4186              		.cfi_offset 14, -4
1601:main.c        ****   init_background();
 4187              		.loc 1 1601 0
 4188 0002 FFF7FEFF 		bl	lcd_start
 4189              	.LVL296:
1602:main.c        ****   for(;;)
 4190              		.loc 1 1602 0
 4191 0006 FFF7FEFF 		bl	init_background
 4192              	.LVL297:
 4193 000a 14E0     		b	.L267
 4194              	.L274:
1606:main.c        **** 		while(drawing_state == 1){
 4195              		.loc 1 1606 0
 4196 000c FFF7FEFF 		bl	init_drawingbackground
 4197              	.LVL298:
1607:main.c        **** 			draw_drawingbackground();
 4198              		.loc 1 1607 0
 4199 0010 04E0     		b	.L269
 4200              	.L270:
1608:main.c        **** 			vTaskDelay(100);
 4201              		.loc 1 1608 0
 4202 0012 FFF7FEFF 		bl	draw_drawingbackground
 4203              	.LVL299:
1609:main.c        **** 		}
 4204              		.loc 1 1609 0
ARM GAS  C:\Users\lenovo\AppData\Local\Temp\ccfgRfuq.s 			page 122


 4205 0016 6420     		movs	r0, #100
 4206 0018 FFF7FEFF 		bl	vTaskDelay
 4207              	.LVL300:
 4208              	.L269:
1607:main.c        **** 			draw_drawingbackground();
 4209              		.loc 1 1607 0
 4210 001c 0D4B     		ldr	r3, .L275
 4211 001e 1B68     		ldr	r3, [r3]
 4212 0020 012B     		cmp	r3, #1
 4213 0022 F6D0     		beq	.L270
1611:main.c        **** 	}
 4214              		.loc 1 1611 0
 4215 0024 FFF7FEFF 		bl	init_background
 4216              	.LVL301:
 4217 0028 05E0     		b	.L267
 4218              	.L272:
1618:main.c        **** 		vTaskDelay(delay);
 4219              		.loc 1 1618 0
 4220 002a FFF7FEFF 		bl	draw_background
 4221              	.LVL302:
1619:main.c        **** 	}
 4222              		.loc 1 1619 0
 4223 002e 0A4B     		ldr	r3, .L275+4
 4224 0030 1868     		ldr	r0, [r3]
 4225 0032 FFF7FEFF 		bl	vTaskDelay
 4226              	.LVL303:
 4227              	.L267:
1605:main.c        **** 		init_drawingbackground();
 4228              		.loc 1 1605 0
 4229 0036 074B     		ldr	r3, .L275
 4230 0038 1B68     		ldr	r3, [r3]
 4231 003a B3F1FF3F 		cmp	r3, #-1
 4232 003e E5D0     		beq	.L274
1614:main.c        **** 			init_background();
 4233              		.loc 1 1614 0
 4234 0040 064B     		ldr	r3, .L275+8
 4235 0042 1B68     		ldr	r3, [r3]
 4236 0044 002B     		cmp	r3, #0
 4237 0046 F0D0     		beq	.L272
1615:main.c        **** 			state_changed = 0;
 4238              		.loc 1 1615 0
 4239 0048 FFF7FEFF 		bl	init_background
 4240              	.LVL304:
1616:main.c        **** 		}
 4241              		.loc 1 1616 0
 4242 004c 0022     		movs	r2, #0
 4243 004e 034B     		ldr	r3, .L275+8
 4244 0050 1A60     		str	r2, [r3]
 4245 0052 EAE7     		b	.L272
 4246              	.L276:
 4247              		.align	2
 4248              	.L275:
 4249 0054 00000000 		.word	.LANCHOR6
 4250 0058 00000000 		.word	.LANCHOR3
 4251 005c 00000000 		.word	.LANCHOR9
 4252              		.cfi_endproc
 4253              	.LFE213:
ARM GAS  C:\Users\lenovo\AppData\Local\Temp\ccfgRfuq.s 			page 123


 4255              		.section	.text.__io_putchar,"ax",%progbits
 4256              		.align	1
 4257              		.global	__io_putchar
 4258              		.syntax unified
 4259              		.thumb
 4260              		.thumb_func
 4261              		.fpu fpv5-sp-d16
 4263              	__io_putchar:
 4264              	.LFB182:
 193:main.c        ****   uint8_t data = ch;
 4265              		.loc 1 193 0
 4266              		.cfi_startproc
 4267              		@ args = 0, pretend = 0, frame = 0
 4268              		@ frame_needed = 0, uses_anonymous_args = 0
 4269              		@ link register save eliminated.
 4270              	.LVL305:
 4271              	.L278:
 198:main.c        ****     huart1.Instance->TDR = (uint16_t)data;
 4272              		.loc 1 198 0 discriminator 1
 4273 0000 044B     		ldr	r3, .L279
 4274 0002 1B68     		ldr	r3, [r3]
 4275 0004 DA69     		ldr	r2, [r3, #28]
 4276 0006 12F0800F 		tst	r2, #128
 4277 000a F9D0     		beq	.L278
 199:main.c        ****   #endif
 4278              		.loc 1 199 0
 4279 000c C0B2     		uxtb	r0, r0
 4280              	.LVL306:
 4281 000e 9862     		str	r0, [r3, #40]
 202:main.c        **** 
 4282              		.loc 1 202 0
 4283 0010 0020     		movs	r0, #0
 4284 0012 7047     		bx	lr
 4285              	.L280:
 4286              		.align	2
 4287              	.L279:
 4288 0014 00000000 		.word	huart1
 4289              		.cfi_endproc
 4290              	.LFE182:
 4292              		.section	.text.inkey,"ax",%progbits
 4293              		.align	1
 4294              		.global	inkey
 4295              		.syntax unified
 4296              		.thumb
 4297              		.thumb_func
 4298              		.fpu fpv5-sp-d16
 4300              	inkey:
 4301              	.LFB183:
 205:main.c        ****   uint32_t flags = huart1.Instance->ISR;
 4302              		.loc 1 205 0
 4303              		.cfi_startproc
 4304              		@ args = 0, pretend = 0, frame = 0
 4305              		@ frame_needed = 0, uses_anonymous_args = 0
 4306              		@ link register save eliminated.
 206:main.c        ****   
 4307              		.loc 1 206 0
 4308 0000 064B     		ldr	r3, .L284
ARM GAS  C:\Users\lenovo\AppData\Local\Temp\ccfgRfuq.s 			page 124


 4309 0002 1B68     		ldr	r3, [r3]
 4310 0004 DA69     		ldr	r2, [r3, #28]
 4311              	.LVL307:
 208:main.c        ****   {
 4312              		.loc 1 208 0
 4313 0006 12F0280F 		tst	r2, #40
 4314 000a 04D0     		beq	.L283
 210:main.c        ****     return (huart1.Instance->RDR);
 4315              		.loc 1 210 0
 4316 000c 0822     		movs	r2, #8
 4317              	.LVL308:
 4318 000e 1A62     		str	r2, [r3, #32]
 211:main.c        ****   }
 4319              		.loc 1 211 0
 4320 0010 586A     		ldr	r0, [r3, #36]
 4321 0012 C0B2     		uxtb	r0, r0
 4322 0014 7047     		bx	lr
 4323              	.LVL309:
 4324              	.L283:
 214:main.c        **** }
 4325              		.loc 1 214 0
 4326 0016 0020     		movs	r0, #0
 215:main.c        **** 
 4327              		.loc 1 215 0
 4328 0018 7047     		bx	lr
 4329              	.L285:
 4330 001a 00BF     		.align	2
 4331              	.L284:
 4332 001c 00000000 		.word	huart1
 4333              		.cfi_endproc
 4334              	.LFE183:
 4336              		.section	.text.BSP_AUDIO_OUT_TransferComplete_CallBack,"ax",%progbits
 4337              		.align	1
 4338              		.global	BSP_AUDIO_OUT_TransferComplete_CallBack
 4339              		.syntax unified
 4340              		.thumb
 4341              		.thumb_func
 4342              		.fpu fpv5-sp-d16
 4344              	BSP_AUDIO_OUT_TransferComplete_CallBack:
 4345              	.LFB211:
1587:main.c        ****     buf_offs = BUFFER_OFFSET_FULL;
 4346              		.loc 1 1587 0
 4347              		.cfi_startproc
 4348              		@ args = 0, pretend = 0, frame = 0
 4349              		@ frame_needed = 0, uses_anonymous_args = 0
 4350              		@ link register save eliminated.
 4351 0000 7047     		bx	lr
 4352              		.cfi_endproc
 4353              	.LFE211:
 4355              		.section	.text.BSP_AUDIO_OUT_HalfTransfer_CallBack,"ax",%progbits
 4356              		.align	1
 4357              		.global	BSP_AUDIO_OUT_HalfTransfer_CallBack
 4358              		.syntax unified
 4359              		.thumb
 4360              		.thumb_func
 4361              		.fpu fpv5-sp-d16
 4363              	BSP_AUDIO_OUT_HalfTransfer_CallBack:
ARM GAS  C:\Users\lenovo\AppData\Local\Temp\ccfgRfuq.s 			page 125


 4364              	.LFB212:
1592:main.c        ****     buf_offs = BUFFER_OFFSET_HALF;
 4365              		.loc 1 1592 0
 4366              		.cfi_startproc
 4367              		@ args = 0, pretend = 0, frame = 0
 4368              		@ frame_needed = 0, uses_anonymous_args = 0
 4369              		@ link register save eliminated.
 4370 0000 7047     		bx	lr
 4371              		.cfi_endproc
 4372              	.LFE212:
 4374              		.section	.text.HAL_TIM_PeriodElapsedCallback,"ax",%progbits
 4375              		.align	1
 4376              		.global	HAL_TIM_PeriodElapsedCallback
 4377              		.syntax unified
 4378              		.thumb
 4379              		.thumb_func
 4380              		.fpu fpv5-sp-d16
 4382              	HAL_TIM_PeriodElapsedCallback:
 4383              	.LFB215:
1759:main.c        **** 			}
1760:main.c        **** 		}
1761:main.c        **** 	}
1762:main.c        ****   }
1763:main.c        **** 
1764:main.c        ****   /* USER CODE END 5 */ 
1765:main.c        **** }
1766:main.c        **** }
1767:main.c        **** 
1768:main.c        **** /**
1769:main.c        ****   * @brief  Period elapsed callback in non blocking mode
1770:main.c        ****   * @note   This function is called  when TIM6 interrupt took place, inside
1771:main.c        ****   * HAL_TIM_IRQHandler(). It makes a direct call to HAL_IncTick() to increment
1772:main.c        ****   * a global variable "uwTick" used as application time base.
1773:main.c        ****   * @param  htim : TIM handle
1774:main.c        ****   * @retval None
1775:main.c        ****   */
1776:main.c        **** void HAL_TIM_PeriodElapsedCallback(TIM_HandleTypeDef *htim)
1777:main.c        **** {
 4384              		.loc 1 1777 0
 4385              		.cfi_startproc
 4386              		@ args = 0, pretend = 0, frame = 0
 4387              		@ frame_needed = 0, uses_anonymous_args = 0
 4388              	.LVL310:
 4389              		.loc 1 1777 0
 4390 0000 08B5     		push	{r3, lr}
 4391              	.LCFI42:
 4392              		.cfi_def_cfa_offset 8
 4393              		.cfi_offset 3, -8
 4394              		.cfi_offset 14, -4
1778:main.c        ****   /* USER CODE BEGIN Callback 0 */
1779:main.c        **** 
1780:main.c        ****   /* USER CODE END Callback 0 */
1781:main.c        ****   if (htim->Instance == TIM6) {
 4395              		.loc 1 1781 0
 4396 0002 0268     		ldr	r2, [r0]
 4397 0004 034B     		ldr	r3, .L292
 4398 0006 9A42     		cmp	r2, r3
ARM GAS  C:\Users\lenovo\AppData\Local\Temp\ccfgRfuq.s 			page 126


 4399 0008 00D0     		beq	.L291
 4400              	.LVL311:
 4401              	.L288:
 4402 000a 08BD     		pop	{r3, pc}
 4403              	.LVL312:
 4404              	.L291:
1782:main.c        ****     HAL_IncTick();
 4405              		.loc 1 1782 0
 4406 000c FFF7FEFF 		bl	HAL_IncTick
 4407              	.LVL313:
1783:main.c        ****   }
1784:main.c        ****   /* USER CODE BEGIN Callback 1 */
1785:main.c        **** 
1786:main.c        ****   /* USER CODE END Callback 1 */
1787:main.c        **** }
 4408              		.loc 1 1787 0
 4409 0010 FBE7     		b	.L288
 4410              	.L293:
 4411 0012 00BF     		.align	2
 4412              	.L292:
 4413 0014 00100040 		.word	1073745920
 4414              		.cfi_endproc
 4415              	.LFE215:
 4417              		.section	.text._Error_Handler,"ax",%progbits
 4418              		.align	1
 4419              		.global	_Error_Handler
 4420              		.syntax unified
 4421              		.thumb
 4422              		.thumb_func
 4423              		.fpu fpv5-sp-d16
 4425              	_Error_Handler:
 4426              	.LFB216:
1788:main.c        **** 
1789:main.c        **** /**
1790:main.c        ****   * @brief  This function is executed in case of error occurrence.
1791:main.c        ****   * @param  file: The file name as string.
1792:main.c        ****   * @param  line: The line in file as a number.
1793:main.c        ****   * @retval None
1794:main.c        ****   */
1795:main.c        **** void _Error_Handler(char *file, int line)
1796:main.c        **** {
 4427              		.loc 1 1796 0
 4428              		.cfi_startproc
 4429              		@ Volatile: function does not return.
 4430              		@ args = 0, pretend = 0, frame = 0
 4431              		@ frame_needed = 0, uses_anonymous_args = 0
 4432              		@ link register save eliminated.
 4433              	.LVL314:
 4434              	.L295:
 4435 0000 FEE7     		b	.L295
 4436              		.cfi_endproc
 4437              	.LFE216:
 4439              		.section	.text.MX_ADC3_Init,"ax",%progbits
 4440              		.align	1
 4441              		.syntax unified
 4442              		.thumb
 4443              		.thumb_func
ARM GAS  C:\Users\lenovo\AppData\Local\Temp\ccfgRfuq.s 			page 127


 4444              		.fpu fpv5-sp-d16
 4446              	MX_ADC3_Init:
 4447              	.LFB187:
 466:main.c        **** 
 4448              		.loc 1 466 0
 4449              		.cfi_startproc
 4450              		@ args = 0, pretend = 0, frame = 16
 4451              		@ frame_needed = 0, uses_anonymous_args = 0
 466:main.c        **** 
 4452              		.loc 1 466 0
 4453 0000 00B5     		push	{lr}
 4454              	.LCFI43:
 4455              		.cfi_def_cfa_offset 4
 4456              		.cfi_offset 14, -4
 4457 0002 85B0     		sub	sp, sp, #20
 4458              	.LCFI44:
 4459              		.cfi_def_cfa_offset 24
 472:main.c        ****   hadc3.Init.ClockPrescaler = ADC_CLOCK_SYNC_PCLK_DIV4;
 4460              		.loc 1 472 0
 4461 0004 1648     		ldr	r0, .L302
 4462 0006 174B     		ldr	r3, .L302+4
 4463 0008 0360     		str	r3, [r0]
 473:main.c        ****   hadc3.Init.Resolution = ADC_RESOLUTION_12B;
 4464              		.loc 1 473 0
 4465 000a 4FF48033 		mov	r3, #65536
 4466 000e 4360     		str	r3, [r0, #4]
 474:main.c        ****   hadc3.Init.ScanConvMode = ADC_SCAN_DISABLE;
 4467              		.loc 1 474 0
 4468 0010 0023     		movs	r3, #0
 4469 0012 8360     		str	r3, [r0, #8]
 475:main.c        ****   hadc3.Init.ContinuousConvMode = DISABLE;
 4470              		.loc 1 475 0
 4471 0014 0361     		str	r3, [r0, #16]
 476:main.c        ****   hadc3.Init.DiscontinuousConvMode = DISABLE;
 4472              		.loc 1 476 0
 4473 0016 8361     		str	r3, [r0, #24]
 477:main.c        ****   hadc3.Init.ExternalTrigConvEdge = ADC_EXTERNALTRIGCONVEDGE_NONE;
 4474              		.loc 1 477 0
 4475 0018 0362     		str	r3, [r0, #32]
 478:main.c        ****   hadc3.Init.ExternalTrigConv = ADC_SOFTWARE_START;
 4476              		.loc 1 478 0
 4477 001a C362     		str	r3, [r0, #44]
 479:main.c        ****   hadc3.Init.DataAlign = ADC_DATAALIGN_RIGHT;
 4478              		.loc 1 479 0
 4479 001c 124A     		ldr	r2, .L302+8
 4480 001e 8262     		str	r2, [r0, #40]
 480:main.c        ****   hadc3.Init.NbrOfConversion = 1;
 4481              		.loc 1 480 0
 4482 0020 C360     		str	r3, [r0, #12]
 481:main.c        ****   hadc3.Init.DMAContinuousRequests = DISABLE;
 4483              		.loc 1 481 0
 4484 0022 0122     		movs	r2, #1
 4485 0024 C261     		str	r2, [r0, #28]
 482:main.c        ****   hadc3.Init.EOCSelection = ADC_EOC_SINGLE_CONV;
 4486              		.loc 1 482 0
 4487 0026 0363     		str	r3, [r0, #48]
 483:main.c        ****   if (HAL_ADC_Init(&hadc3) != HAL_OK)
ARM GAS  C:\Users\lenovo\AppData\Local\Temp\ccfgRfuq.s 			page 128


 4488              		.loc 1 483 0
 4489 0028 4261     		str	r2, [r0, #20]
 484:main.c        ****   {
 4490              		.loc 1 484 0
 4491 002a FFF7FEFF 		bl	HAL_ADC_Init
 4492              	.LVL315:
 4493 002e 68B9     		cbnz	r0, .L300
 491:main.c        ****   sConfig.Rank = ADC_REGULAR_RANK_1;
 4494              		.loc 1 491 0
 4495 0030 0423     		movs	r3, #4
 4496 0032 0093     		str	r3, [sp]
 492:main.c        ****   sConfig.SamplingTime = ADC_SAMPLETIME_3CYCLES;
 4497              		.loc 1 492 0
 4498 0034 0123     		movs	r3, #1
 4499 0036 0193     		str	r3, [sp, #4]
 493:main.c        ****   if (HAL_ADC_ConfigChannel(&hadc3, &sConfig) != HAL_OK)
 4500              		.loc 1 493 0
 4501 0038 0023     		movs	r3, #0
 4502 003a 0293     		str	r3, [sp, #8]
 494:main.c        ****   {
 4503              		.loc 1 494 0
 4504 003c 6946     		mov	r1, sp
 4505 003e 0848     		ldr	r0, .L302
 4506 0040 FFF7FEFF 		bl	HAL_ADC_ConfigChannel
 4507              	.LVL316:
 4508 0044 38B9     		cbnz	r0, .L301
 499:main.c        **** 
 4509              		.loc 1 499 0
 4510 0046 05B0     		add	sp, sp, #20
 4511              	.LCFI45:
 4512              		.cfi_remember_state
 4513              		.cfi_def_cfa_offset 4
 4514              		@ sp needed
 4515 0048 5DF804FB 		ldr	pc, [sp], #4
 4516              	.L300:
 4517              	.LCFI46:
 4518              		.cfi_restore_state
 486:main.c        ****   }
 4519              		.loc 1 486 0
 4520 004c 4FF4F371 		mov	r1, #486
 4521 0050 0648     		ldr	r0, .L302+12
 4522 0052 FFF7FEFF 		bl	_Error_Handler
 4523              	.LVL317:
 4524              	.L301:
 496:main.c        ****   }
 4525              		.loc 1 496 0
 4526 0056 4FF4F871 		mov	r1, #496
 4527 005a 0448     		ldr	r0, .L302+12
 4528 005c FFF7FEFF 		bl	_Error_Handler
 4529              	.LVL318:
 4530              	.L303:
 4531              		.align	2
 4532              	.L302:
 4533 0060 00000000 		.word	hadc3
 4534 0064 00220140 		.word	1073816064
 4535 0068 0100000F 		.word	251658241
 4536 006c 00000000 		.word	.LC25
ARM GAS  C:\Users\lenovo\AppData\Local\Temp\ccfgRfuq.s 			page 129


 4537              		.cfi_endproc
 4538              	.LFE187:
 4540              		.section	.text.MX_CRC_Init,"ax",%progbits
 4541              		.align	1
 4542              		.syntax unified
 4543              		.thumb
 4544              		.thumb_func
 4545              		.fpu fpv5-sp-d16
 4547              	MX_CRC_Init:
 4548              	.LFB188:
 503:main.c        **** 
 4549              		.loc 1 503 0
 4550              		.cfi_startproc
 4551              		@ args = 0, pretend = 0, frame = 0
 4552              		@ frame_needed = 0, uses_anonymous_args = 0
 4553 0000 08B5     		push	{r3, lr}
 4554              	.LCFI47:
 4555              		.cfi_def_cfa_offset 8
 4556              		.cfi_offset 3, -8
 4557              		.cfi_offset 14, -4
 505:main.c        ****   hcrc.Init.DefaultPolynomialUse = DEFAULT_POLYNOMIAL_ENABLE;
 4558              		.loc 1 505 0
 4559 0002 0948     		ldr	r0, .L308
 4560 0004 094B     		ldr	r3, .L308+4
 4561 0006 0360     		str	r3, [r0]
 506:main.c        ****   hcrc.Init.DefaultInitValueUse = DEFAULT_INIT_VALUE_ENABLE;
 4562              		.loc 1 506 0
 4563 0008 0023     		movs	r3, #0
 4564 000a 0371     		strb	r3, [r0, #4]
 507:main.c        ****   hcrc.Init.InputDataInversionMode = CRC_INPUTDATA_INVERSION_NONE;
 4565              		.loc 1 507 0
 4566 000c 4371     		strb	r3, [r0, #5]
 508:main.c        ****   hcrc.Init.OutputDataInversionMode = CRC_OUTPUTDATA_INVERSION_DISABLE;
 4567              		.loc 1 508 0
 4568 000e 4361     		str	r3, [r0, #20]
 509:main.c        ****   hcrc.InputDataFormat = CRC_INPUTDATA_FORMAT_BYTES;
 4569              		.loc 1 509 0
 4570 0010 8361     		str	r3, [r0, #24]
 510:main.c        ****   if (HAL_CRC_Init(&hcrc) != HAL_OK)
 4571              		.loc 1 510 0
 4572 0012 0123     		movs	r3, #1
 4573 0014 0362     		str	r3, [r0, #32]
 511:main.c        ****   {
 4574              		.loc 1 511 0
 4575 0016 FFF7FEFF 		bl	HAL_CRC_Init
 4576              	.LVL319:
 4577 001a 00B9     		cbnz	r0, .L307
 4578 001c 08BD     		pop	{r3, pc}
 4579              	.L307:
 513:main.c        ****   }
 4580              		.loc 1 513 0
 4581 001e 40F20121 		movw	r1, #513
 4582 0022 0348     		ldr	r0, .L308+8
 4583 0024 FFF7FEFF 		bl	_Error_Handler
 4584              	.LVL320:
 4585              	.L309:
 4586              		.align	2
ARM GAS  C:\Users\lenovo\AppData\Local\Temp\ccfgRfuq.s 			page 130


 4587              	.L308:
 4588 0028 00000000 		.word	hcrc
 4589 002c 00300240 		.word	1073885184
 4590 0030 00000000 		.word	.LC25
 4591              		.cfi_endproc
 4592              	.LFE188:
 4594              		.section	.text.MX_DCMI_Init,"ax",%progbits
 4595              		.align	1
 4596              		.syntax unified
 4597              		.thumb
 4598              		.thumb_func
 4599              		.fpu fpv5-sp-d16
 4601              	MX_DCMI_Init:
 4602              	.LFB189:
 520:main.c        **** 
 4603              		.loc 1 520 0
 4604              		.cfi_startproc
 4605              		@ args = 0, pretend = 0, frame = 0
 4606              		@ frame_needed = 0, uses_anonymous_args = 0
 4607 0000 08B5     		push	{r3, lr}
 4608              	.LCFI48:
 4609              		.cfi_def_cfa_offset 8
 4610              		.cfi_offset 3, -8
 4611              		.cfi_offset 14, -4
 522:main.c        ****   hdcmi.Init.SynchroMode = DCMI_SYNCHRO_HARDWARE;
 4612              		.loc 1 522 0
 4613 0002 0C48     		ldr	r0, .L314
 4614 0004 0C4B     		ldr	r3, .L314+4
 4615 0006 0360     		str	r3, [r0]
 523:main.c        ****   hdcmi.Init.PCKPolarity = DCMI_PCKPOLARITY_FALLING;
 4616              		.loc 1 523 0
 4617 0008 0023     		movs	r3, #0
 4618 000a 4360     		str	r3, [r0, #4]
 524:main.c        ****   hdcmi.Init.VSPolarity = DCMI_VSPOLARITY_LOW;
 4619              		.loc 1 524 0
 4620 000c 8360     		str	r3, [r0, #8]
 525:main.c        ****   hdcmi.Init.HSPolarity = DCMI_HSPOLARITY_LOW;
 4621              		.loc 1 525 0
 4622 000e C360     		str	r3, [r0, #12]
 526:main.c        ****   hdcmi.Init.CaptureRate = DCMI_CR_ALL_FRAME;
 4623              		.loc 1 526 0
 4624 0010 0361     		str	r3, [r0, #16]
 527:main.c        ****   hdcmi.Init.ExtendedDataMode = DCMI_EXTEND_DATA_8B;
 4625              		.loc 1 527 0
 4626 0012 4361     		str	r3, [r0, #20]
 528:main.c        ****   hdcmi.Init.JPEGMode = DCMI_JPEG_DISABLE;
 4627              		.loc 1 528 0
 4628 0014 8361     		str	r3, [r0, #24]
 529:main.c        ****   hdcmi.Init.ByteSelectMode = DCMI_BSM_ALL;
 4629              		.loc 1 529 0
 4630 0016 0362     		str	r3, [r0, #32]
 530:main.c        ****   hdcmi.Init.ByteSelectStart = DCMI_OEBS_ODD;
 4631              		.loc 1 530 0
 4632 0018 4362     		str	r3, [r0, #36]
 531:main.c        ****   hdcmi.Init.LineSelectMode = DCMI_LSM_ALL;
 4633              		.loc 1 531 0
 4634 001a 8362     		str	r3, [r0, #40]
ARM GAS  C:\Users\lenovo\AppData\Local\Temp\ccfgRfuq.s 			page 131


 532:main.c        ****   hdcmi.Init.LineSelectStart = DCMI_OELS_ODD;
 4635              		.loc 1 532 0
 4636 001c C362     		str	r3, [r0, #44]
 533:main.c        ****   if (HAL_DCMI_Init(&hdcmi) != HAL_OK)
 4637              		.loc 1 533 0
 4638 001e 0363     		str	r3, [r0, #48]
 534:main.c        ****   {
 4639              		.loc 1 534 0
 4640 0020 FFF7FEFF 		bl	HAL_DCMI_Init
 4641              	.LVL321:
 4642 0024 00B9     		cbnz	r0, .L313
 4643 0026 08BD     		pop	{r3, pc}
 4644              	.L313:
 536:main.c        ****   }
 4645              		.loc 1 536 0
 4646 0028 4FF40671 		mov	r1, #536
 4647 002c 0348     		ldr	r0, .L314+8
 4648 002e FFF7FEFF 		bl	_Error_Handler
 4649              	.LVL322:
 4650              	.L315:
 4651 0032 00BF     		.align	2
 4652              	.L314:
 4653 0034 00000000 		.word	hdcmi
 4654 0038 00000550 		.word	1342504960
 4655 003c 00000000 		.word	.LC25
 4656              		.cfi_endproc
 4657              	.LFE189:
 4659              		.section	.text.MX_DMA2D_Init,"ax",%progbits
 4660              		.align	1
 4661              		.syntax unified
 4662              		.thumb
 4663              		.thumb_func
 4664              		.fpu fpv5-sp-d16
 4666              	MX_DMA2D_Init:
 4667              	.LFB190:
 543:main.c        **** 
 4668              		.loc 1 543 0
 4669              		.cfi_startproc
 4670              		@ args = 0, pretend = 0, frame = 0
 4671              		@ frame_needed = 0, uses_anonymous_args = 0
 4672 0000 08B5     		push	{r3, lr}
 4673              	.LCFI49:
 4674              		.cfi_def_cfa_offset 8
 4675              		.cfi_offset 3, -8
 4676              		.cfi_offset 14, -4
 545:main.c        ****   hdma2d.Init.Mode = DMA2D_M2M;
 4677              		.loc 1 545 0
 4678 0002 0F48     		ldr	r0, .L322
 4679 0004 0F4B     		ldr	r3, .L322+4
 4680 0006 0360     		str	r3, [r0]
 546:main.c        ****   hdma2d.Init.ColorMode = DMA2D_OUTPUT_ARGB8888;
 4681              		.loc 1 546 0
 4682 0008 0023     		movs	r3, #0
 4683 000a 4360     		str	r3, [r0, #4]
 547:main.c        ****   hdma2d.Init.OutputOffset = 0;
 4684              		.loc 1 547 0
 4685 000c 8360     		str	r3, [r0, #8]
ARM GAS  C:\Users\lenovo\AppData\Local\Temp\ccfgRfuq.s 			page 132


 548:main.c        ****   hdma2d.LayerCfg[1].InputOffset = 0;
 4686              		.loc 1 548 0
 4687 000e C360     		str	r3, [r0, #12]
 549:main.c        ****   hdma2d.LayerCfg[1].InputColorMode = DMA2D_INPUT_ARGB8888;
 4688              		.loc 1 549 0
 4689 0010 8362     		str	r3, [r0, #40]
 550:main.c        ****   hdma2d.LayerCfg[1].AlphaMode = DMA2D_NO_MODIF_ALPHA;
 4690              		.loc 1 550 0
 4691 0012 C362     		str	r3, [r0, #44]
 551:main.c        ****   hdma2d.LayerCfg[1].InputAlpha = 0;
 4692              		.loc 1 551 0
 4693 0014 0363     		str	r3, [r0, #48]
 552:main.c        ****   if (HAL_DMA2D_Init(&hdma2d) != HAL_OK)
 4694              		.loc 1 552 0
 4695 0016 4363     		str	r3, [r0, #52]
 553:main.c        ****   {
 4696              		.loc 1 553 0
 4697 0018 FFF7FEFF 		bl	HAL_DMA2D_Init
 4698              	.LVL323:
 4699 001c 28B9     		cbnz	r0, .L320
 558:main.c        ****   {
 4700              		.loc 1 558 0
 4701 001e 0121     		movs	r1, #1
 4702 0020 0748     		ldr	r0, .L322
 4703 0022 FFF7FEFF 		bl	HAL_DMA2D_ConfigLayer
 4704              	.LVL324:
 4705 0026 28B9     		cbnz	r0, .L321
 4706 0028 08BD     		pop	{r3, pc}
 4707              	.L320:
 555:main.c        ****   }
 4708              		.loc 1 555 0
 4709 002a 40F22B21 		movw	r1, #555
 4710 002e 0648     		ldr	r0, .L322+8
 4711 0030 FFF7FEFF 		bl	_Error_Handler
 4712              	.LVL325:
 4713              	.L321:
 560:main.c        ****   }
 4714              		.loc 1 560 0
 4715 0034 4FF40C71 		mov	r1, #560
 4716 0038 0348     		ldr	r0, .L322+8
 4717 003a FFF7FEFF 		bl	_Error_Handler
 4718              	.LVL326:
 4719              	.L323:
 4720 003e 00BF     		.align	2
 4721              	.L322:
 4722 0040 00000000 		.word	hdma2d
 4723 0044 00B00240 		.word	1073917952
 4724 0048 00000000 		.word	.LC25
 4725              		.cfi_endproc
 4726              	.LFE190:
 4728              		.section	.text.MX_FMC_Init,"ax",%progbits
 4729              		.align	1
 4730              		.syntax unified
 4731              		.thumb
 4732              		.thumb_func
 4733              		.fpu fpv5-sp-d16
 4735              	MX_FMC_Init:
ARM GAS  C:\Users\lenovo\AppData\Local\Temp\ccfgRfuq.s 			page 133


 4736              	.LFB209:
1271:main.c        ****   FMC_SDRAM_TimingTypeDef SdramTiming;
 4737              		.loc 1 1271 0
 4738              		.cfi_startproc
 4739              		@ args = 0, pretend = 0, frame = 32
 4740              		@ frame_needed = 0, uses_anonymous_args = 0
 4741 0000 00B5     		push	{lr}
 4742              	.LCFI50:
 4743              		.cfi_def_cfa_offset 4
 4744              		.cfi_offset 14, -4
 4745 0002 89B0     		sub	sp, sp, #36
 4746              	.LCFI51:
 4747              		.cfi_def_cfa_offset 40
1276:main.c        ****   /* hsdram1.Init */
 4748              		.loc 1 1276 0
 4749 0004 1648     		ldr	r0, .L328
 4750 0006 174B     		ldr	r3, .L328+4
 4751 0008 0360     		str	r3, [r0]
1278:main.c        ****   hsdram1.Init.ColumnBitsNumber = FMC_SDRAM_COLUMN_BITS_NUM_8;
 4752              		.loc 1 1278 0
 4753 000a 0023     		movs	r3, #0
 4754 000c 4360     		str	r3, [r0, #4]
1279:main.c        ****   hsdram1.Init.RowBitsNumber = FMC_SDRAM_ROW_BITS_NUM_12;
 4755              		.loc 1 1279 0
 4756 000e 8360     		str	r3, [r0, #8]
1280:main.c        ****   hsdram1.Init.MemoryDataWidth = FMC_SDRAM_MEM_BUS_WIDTH_16;
 4757              		.loc 1 1280 0
 4758 0010 0421     		movs	r1, #4
 4759 0012 C160     		str	r1, [r0, #12]
1281:main.c        ****   hsdram1.Init.InternalBankNumber = FMC_SDRAM_INTERN_BANKS_NUM_4;
 4760              		.loc 1 1281 0
 4761 0014 1022     		movs	r2, #16
 4762 0016 0261     		str	r2, [r0, #16]
1282:main.c        ****   hsdram1.Init.CASLatency = FMC_SDRAM_CAS_LATENCY_3;
 4763              		.loc 1 1282 0
 4764 0018 4022     		movs	r2, #64
 4765 001a 4261     		str	r2, [r0, #20]
1283:main.c        ****   hsdram1.Init.WriteProtection = FMC_SDRAM_WRITE_PROTECTION_DISABLE;
 4766              		.loc 1 1283 0
 4767 001c 4FF4C072 		mov	r2, #384
 4768 0020 8261     		str	r2, [r0, #24]
1284:main.c        ****   hsdram1.Init.SDClockPeriod = FMC_SDRAM_CLOCK_PERIOD_2;
 4769              		.loc 1 1284 0
 4770 0022 C361     		str	r3, [r0, #28]
1285:main.c        ****   hsdram1.Init.ReadBurst = FMC_SDRAM_RBURST_ENABLE;
 4771              		.loc 1 1285 0
 4772 0024 4FF40062 		mov	r2, #2048
 4773 0028 0262     		str	r2, [r0, #32]
1286:main.c        ****   hsdram1.Init.ReadPipeDelay = FMC_SDRAM_RPIPE_DELAY_0;
 4774              		.loc 1 1286 0
 4775 002a 4FF48052 		mov	r2, #4096
 4776 002e 4262     		str	r2, [r0, #36]
1287:main.c        ****   /* SdramTiming */
 4777              		.loc 1 1287 0
 4778 0030 8362     		str	r3, [r0, #40]
1289:main.c        ****   SdramTiming.ExitSelfRefreshDelay = 7;
 4779              		.loc 1 1289 0
ARM GAS  C:\Users\lenovo\AppData\Local\Temp\ccfgRfuq.s 			page 134


 4780 0032 0223     		movs	r3, #2
 4781 0034 0193     		str	r3, [sp, #4]
1290:main.c        ****   SdramTiming.SelfRefreshTime = 4;
 4782              		.loc 1 1290 0
 4783 0036 0722     		movs	r2, #7
 4784 0038 0292     		str	r2, [sp, #8]
1291:main.c        ****   SdramTiming.RowCycleDelay = 7;
 4785              		.loc 1 1291 0
 4786 003a 0391     		str	r1, [sp, #12]
1292:main.c        ****   SdramTiming.WriteRecoveryTime = 3;
 4787              		.loc 1 1292 0
 4788 003c 0492     		str	r2, [sp, #16]
1293:main.c        ****   SdramTiming.RPDelay = 2;
 4789              		.loc 1 1293 0
 4790 003e 0322     		movs	r2, #3
 4791 0040 0592     		str	r2, [sp, #20]
1294:main.c        ****   SdramTiming.RCDDelay = 2;
 4792              		.loc 1 1294 0
 4793 0042 0693     		str	r3, [sp, #24]
1295:main.c        **** 
 4794              		.loc 1 1295 0
 4795 0044 0793     		str	r3, [sp, #28]
1297:main.c        ****   {
 4796              		.loc 1 1297 0
 4797 0046 6944     		add	r1, sp, r1
 4798 0048 FFF7FEFF 		bl	HAL_SDRAM_Init
 4799              	.LVL327:
 4800 004c 10B9     		cbnz	r0, .L327
1302:main.c        **** 
 4801              		.loc 1 1302 0
 4802 004e 09B0     		add	sp, sp, #36
 4803              	.LCFI52:
 4804              		.cfi_remember_state
 4805              		.cfi_def_cfa_offset 4
 4806              		@ sp needed
 4807 0050 5DF804FB 		ldr	pc, [sp], #4
 4808              	.L327:
 4809              	.LCFI53:
 4810              		.cfi_restore_state
1299:main.c        ****   }
 4811              		.loc 1 1299 0
 4812 0054 40F21351 		movw	r1, #1299
 4813 0058 0348     		ldr	r0, .L328+8
 4814 005a FFF7FEFF 		bl	_Error_Handler
 4815              	.LVL328:
 4816              	.L329:
 4817 005e 00BF     		.align	2
 4818              	.L328:
 4819 0060 00000000 		.word	hsdram1
 4820 0064 400100A0 		.word	-1610612416
 4821 0068 00000000 		.word	.LC25
 4822              		.cfi_endproc
 4823              	.LFE209:
 4825              		.section	.text.MX_I2C1_Init,"ax",%progbits
 4826              		.align	1
 4827              		.syntax unified
 4828              		.thumb
ARM GAS  C:\Users\lenovo\AppData\Local\Temp\ccfgRfuq.s 			page 135


 4829              		.thumb_func
 4830              		.fpu fpv5-sp-d16
 4832              	MX_I2C1_Init:
 4833              	.LFB191:
 567:main.c        **** 
 4834              		.loc 1 567 0
 4835              		.cfi_startproc
 4836              		@ args = 0, pretend = 0, frame = 0
 4837              		@ frame_needed = 0, uses_anonymous_args = 0
 4838 0000 08B5     		push	{r3, lr}
 4839              	.LCFI54:
 4840              		.cfi_def_cfa_offset 8
 4841              		.cfi_offset 3, -8
 4842              		.cfi_offset 14, -4
 569:main.c        ****   hi2c1.Init.Timing = 0x00C0EAFF;
 4843              		.loc 1 569 0
 4844 0002 1548     		ldr	r0, .L338
 4845 0004 154B     		ldr	r3, .L338+4
 4846 0006 0360     		str	r3, [r0]
 570:main.c        ****   hi2c1.Init.OwnAddress1 = 0;
 4847              		.loc 1 570 0
 4848 0008 154B     		ldr	r3, .L338+8
 4849 000a 4360     		str	r3, [r0, #4]
 571:main.c        ****   hi2c1.Init.AddressingMode = I2C_ADDRESSINGMODE_7BIT;
 4850              		.loc 1 571 0
 4851 000c 0023     		movs	r3, #0
 4852 000e 8360     		str	r3, [r0, #8]
 572:main.c        ****   hi2c1.Init.DualAddressMode = I2C_DUALADDRESS_DISABLE;
 4853              		.loc 1 572 0
 4854 0010 0122     		movs	r2, #1
 4855 0012 C260     		str	r2, [r0, #12]
 573:main.c        ****   hi2c1.Init.OwnAddress2 = 0;
 4856              		.loc 1 573 0
 4857 0014 0361     		str	r3, [r0, #16]
 574:main.c        ****   hi2c1.Init.OwnAddress2Masks = I2C_OA2_NOMASK;
 4858              		.loc 1 574 0
 4859 0016 4361     		str	r3, [r0, #20]
 575:main.c        ****   hi2c1.Init.GeneralCallMode = I2C_GENERALCALL_DISABLE;
 4860              		.loc 1 575 0
 4861 0018 8361     		str	r3, [r0, #24]
 576:main.c        ****   hi2c1.Init.NoStretchMode = I2C_NOSTRETCH_DISABLE;
 4862              		.loc 1 576 0
 4863 001a C361     		str	r3, [r0, #28]
 577:main.c        ****   if (HAL_I2C_Init(&hi2c1) != HAL_OK)
 4864              		.loc 1 577 0
 4865 001c 0362     		str	r3, [r0, #32]
 578:main.c        ****   {
 4866              		.loc 1 578 0
 4867 001e FFF7FEFF 		bl	HAL_I2C_Init
 4868              	.LVL329:
 4869 0022 50B9     		cbnz	r0, .L335
 585:main.c        ****   {
 4870              		.loc 1 585 0
 4871 0024 0021     		movs	r1, #0
 4872 0026 0C48     		ldr	r0, .L338
 4873 0028 FFF7FEFF 		bl	HAL_I2CEx_ConfigAnalogFilter
 4874              	.LVL330:
ARM GAS  C:\Users\lenovo\AppData\Local\Temp\ccfgRfuq.s 			page 136


 4875 002c 50B9     		cbnz	r0, .L336
 592:main.c        ****   {
 4876              		.loc 1 592 0
 4877 002e 0021     		movs	r1, #0
 4878 0030 0948     		ldr	r0, .L338
 4879 0032 FFF7FEFF 		bl	HAL_I2CEx_ConfigDigitalFilter
 4880              	.LVL331:
 4881 0036 50B9     		cbnz	r0, .L337
 4882 0038 08BD     		pop	{r3, pc}
 4883              	.L335:
 580:main.c        ****   }
 4884              		.loc 1 580 0
 4885 003a 4FF41171 		mov	r1, #580
 4886 003e 0948     		ldr	r0, .L338+12
 4887 0040 FFF7FEFF 		bl	_Error_Handler
 4888              	.LVL332:
 4889              	.L336:
 587:main.c        ****   }
 4890              		.loc 1 587 0
 4891 0044 40F24B21 		movw	r1, #587
 4892 0048 0648     		ldr	r0, .L338+12
 4893 004a FFF7FEFF 		bl	_Error_Handler
 4894              	.LVL333:
 4895              	.L337:
 594:main.c        ****   }
 4896              		.loc 1 594 0
 4897 004e 40F25221 		movw	r1, #594
 4898 0052 0448     		ldr	r0, .L338+12
 4899 0054 FFF7FEFF 		bl	_Error_Handler
 4900              	.LVL334:
 4901              	.L339:
 4902              		.align	2
 4903              	.L338:
 4904 0058 00000000 		.word	hi2c1
 4905 005c 00540040 		.word	1073763328
 4906 0060 FFEAC000 		.word	12643071
 4907 0064 00000000 		.word	.LC25
 4908              		.cfi_endproc
 4909              	.LFE191:
 4911              		.section	.text.MX_I2C3_Init,"ax",%progbits
 4912              		.align	1
 4913              		.syntax unified
 4914              		.thumb
 4915              		.thumb_func
 4916              		.fpu fpv5-sp-d16
 4918              	MX_I2C3_Init:
 4919              	.LFB192:
 601:main.c        **** 
 4920              		.loc 1 601 0
 4921              		.cfi_startproc
 4922              		@ args = 0, pretend = 0, frame = 0
 4923              		@ frame_needed = 0, uses_anonymous_args = 0
 4924 0000 08B5     		push	{r3, lr}
 4925              	.LCFI55:
 4926              		.cfi_def_cfa_offset 8
 4927              		.cfi_offset 3, -8
 4928              		.cfi_offset 14, -4
ARM GAS  C:\Users\lenovo\AppData\Local\Temp\ccfgRfuq.s 			page 137


 603:main.c        ****   hi2c3.Init.Timing = 0x00C0EAFF;
 4929              		.loc 1 603 0
 4930 0002 1548     		ldr	r0, .L348
 4931 0004 154B     		ldr	r3, .L348+4
 4932 0006 0360     		str	r3, [r0]
 604:main.c        ****   hi2c3.Init.OwnAddress1 = 0;
 4933              		.loc 1 604 0
 4934 0008 154B     		ldr	r3, .L348+8
 4935 000a 4360     		str	r3, [r0, #4]
 605:main.c        ****   hi2c3.Init.AddressingMode = I2C_ADDRESSINGMODE_7BIT;
 4936              		.loc 1 605 0
 4937 000c 0023     		movs	r3, #0
 4938 000e 8360     		str	r3, [r0, #8]
 606:main.c        ****   hi2c3.Init.DualAddressMode = I2C_DUALADDRESS_DISABLE;
 4939              		.loc 1 606 0
 4940 0010 0122     		movs	r2, #1
 4941 0012 C260     		str	r2, [r0, #12]
 607:main.c        ****   hi2c3.Init.OwnAddress2 = 0;
 4942              		.loc 1 607 0
 4943 0014 0361     		str	r3, [r0, #16]
 608:main.c        ****   hi2c3.Init.OwnAddress2Masks = I2C_OA2_NOMASK;
 4944              		.loc 1 608 0
 4945 0016 4361     		str	r3, [r0, #20]
 609:main.c        ****   hi2c3.Init.GeneralCallMode = I2C_GENERALCALL_DISABLE;
 4946              		.loc 1 609 0
 4947 0018 8361     		str	r3, [r0, #24]
 610:main.c        ****   hi2c3.Init.NoStretchMode = I2C_NOSTRETCH_DISABLE;
 4948              		.loc 1 610 0
 4949 001a C361     		str	r3, [r0, #28]
 611:main.c        ****   if (HAL_I2C_Init(&hi2c3) != HAL_OK)
 4950              		.loc 1 611 0
 4951 001c 0362     		str	r3, [r0, #32]
 612:main.c        ****   {
 4952              		.loc 1 612 0
 4953 001e FFF7FEFF 		bl	HAL_I2C_Init
 4954              	.LVL335:
 4955 0022 50B9     		cbnz	r0, .L345
 619:main.c        ****   {
 4956              		.loc 1 619 0
 4957 0024 0021     		movs	r1, #0
 4958 0026 0C48     		ldr	r0, .L348
 4959 0028 FFF7FEFF 		bl	HAL_I2CEx_ConfigAnalogFilter
 4960              	.LVL336:
 4961 002c 50B9     		cbnz	r0, .L346
 626:main.c        ****   {
 4962              		.loc 1 626 0
 4963 002e 0021     		movs	r1, #0
 4964 0030 0948     		ldr	r0, .L348
 4965 0032 FFF7FEFF 		bl	HAL_I2CEx_ConfigDigitalFilter
 4966              	.LVL337:
 4967 0036 50B9     		cbnz	r0, .L347
 4968 0038 08BD     		pop	{r3, pc}
 4969              	.L345:
 614:main.c        ****   }
 4970              		.loc 1 614 0
 4971 003a 40F26621 		movw	r1, #614
 4972 003e 0948     		ldr	r0, .L348+12
ARM GAS  C:\Users\lenovo\AppData\Local\Temp\ccfgRfuq.s 			page 138


 4973 0040 FFF7FEFF 		bl	_Error_Handler
 4974              	.LVL338:
 4975              	.L346:
 621:main.c        ****   }
 4976              		.loc 1 621 0
 4977 0044 40F26D21 		movw	r1, #621
 4978 0048 0648     		ldr	r0, .L348+12
 4979 004a FFF7FEFF 		bl	_Error_Handler
 4980              	.LVL339:
 4981              	.L347:
 628:main.c        ****   }
 4982              		.loc 1 628 0
 4983 004e 4FF41D71 		mov	r1, #628
 4984 0052 0448     		ldr	r0, .L348+12
 4985 0054 FFF7FEFF 		bl	_Error_Handler
 4986              	.LVL340:
 4987              	.L349:
 4988              		.align	2
 4989              	.L348:
 4990 0058 00000000 		.word	hi2c3
 4991 005c 005C0040 		.word	1073765376
 4992 0060 FFEAC000 		.word	12643071
 4993 0064 00000000 		.word	.LC25
 4994              		.cfi_endproc
 4995              	.LFE192:
 4997              		.section	.text.MX_LTDC_Init,"ax",%progbits
 4998              		.align	1
 4999              		.syntax unified
 5000              		.thumb
 5001              		.thumb_func
 5002              		.fpu fpv5-sp-d16
 5004              	MX_LTDC_Init:
 5005              	.LFB193:
 635:main.c        **** 
 5006              		.loc 1 635 0
 5007              		.cfi_startproc
 5008              		@ args = 0, pretend = 0, frame = 56
 5009              		@ frame_needed = 0, uses_anonymous_args = 0
 5010 0000 00B5     		push	{lr}
 5011              	.LCFI56:
 5012              		.cfi_def_cfa_offset 4
 5013              		.cfi_offset 14, -4
 5014 0002 8FB0     		sub	sp, sp, #60
 5015              	.LCFI57:
 5016              		.cfi_def_cfa_offset 64
 639:main.c        ****   hltdc.Init.HSPolarity = LTDC_HSPOLARITY_AL;
 5017              		.loc 1 639 0
 5018 0004 2948     		ldr	r0, .L356
 5019 0006 2A4B     		ldr	r3, .L356+4
 5020 0008 0360     		str	r3, [r0]
 640:main.c        ****   hltdc.Init.VSPolarity = LTDC_VSPOLARITY_AL;
 5021              		.loc 1 640 0
 5022 000a 0023     		movs	r3, #0
 5023 000c 4360     		str	r3, [r0, #4]
 641:main.c        ****   hltdc.Init.DEPolarity = LTDC_DEPOLARITY_AL;
 5024              		.loc 1 641 0
 5025 000e 8360     		str	r3, [r0, #8]
ARM GAS  C:\Users\lenovo\AppData\Local\Temp\ccfgRfuq.s 			page 139


 642:main.c        ****   hltdc.Init.PCPolarity = LTDC_PCPOLARITY_IPC;
 5026              		.loc 1 642 0
 5027 0010 C360     		str	r3, [r0, #12]
 643:main.c        ****   hltdc.Init.HorizontalSync = 40;
 5028              		.loc 1 643 0
 5029 0012 0361     		str	r3, [r0, #16]
 644:main.c        ****   hltdc.Init.VerticalSync = 9;
 5030              		.loc 1 644 0
 5031 0014 2822     		movs	r2, #40
 5032 0016 4261     		str	r2, [r0, #20]
 645:main.c        ****   hltdc.Init.AccumulatedHBP = 53;
 5033              		.loc 1 645 0
 5034 0018 0922     		movs	r2, #9
 5035 001a 8261     		str	r2, [r0, #24]
 646:main.c        ****   hltdc.Init.AccumulatedVBP = 11;
 5036              		.loc 1 646 0
 5037 001c 3522     		movs	r2, #53
 5038 001e C261     		str	r2, [r0, #28]
 647:main.c        ****   hltdc.Init.AccumulatedActiveW = 533;
 5039              		.loc 1 647 0
 5040 0020 0B22     		movs	r2, #11
 5041 0022 0262     		str	r2, [r0, #32]
 648:main.c        ****   hltdc.Init.AccumulatedActiveH = 283;
 5042              		.loc 1 648 0
 5043 0024 40F21522 		movw	r2, #533
 5044 0028 4262     		str	r2, [r0, #36]
 649:main.c        ****   hltdc.Init.TotalWidth = 565;
 5045              		.loc 1 649 0
 5046 002a 40F21B12 		movw	r2, #283
 5047 002e 8262     		str	r2, [r0, #40]
 650:main.c        ****   hltdc.Init.TotalHeigh = 285;
 5048              		.loc 1 650 0
 5049 0030 40F23522 		movw	r2, #565
 5050 0034 C262     		str	r2, [r0, #44]
 651:main.c        ****   hltdc.Init.Backcolor.Blue = 0;
 5051              		.loc 1 651 0
 5052 0036 40F21D12 		movw	r2, #285
 5053 003a 0263     		str	r2, [r0, #48]
 652:main.c        ****   hltdc.Init.Backcolor.Green = 0;
 5054              		.loc 1 652 0
 5055 003c 80F83430 		strb	r3, [r0, #52]
 653:main.c        ****   hltdc.Init.Backcolor.Red = 0;
 5056              		.loc 1 653 0
 5057 0040 80F83530 		strb	r3, [r0, #53]
 654:main.c        ****   if (HAL_LTDC_Init(&hltdc) != HAL_OK)
 5058              		.loc 1 654 0
 5059 0044 80F83630 		strb	r3, [r0, #54]
 655:main.c        ****   {
 5060              		.loc 1 655 0
 5061 0048 FFF7FEFF 		bl	HAL_LTDC_Init
 5062              	.LVL341:
 5063 004c 20BB     		cbnz	r0, .L354
 660:main.c        ****   pLayerCfg.WindowX1 = 480;
 5064              		.loc 1 660 0
 5065 004e 0022     		movs	r2, #0
 5066 0050 0192     		str	r2, [sp, #4]
 661:main.c        ****   pLayerCfg.WindowY0 = 0;
ARM GAS  C:\Users\lenovo\AppData\Local\Temp\ccfgRfuq.s 			page 140


 5067              		.loc 1 661 0
 5068 0052 4FF4F071 		mov	r1, #480
 5069 0056 0291     		str	r1, [sp, #8]
 662:main.c        ****   pLayerCfg.WindowY1 = 272;
 5070              		.loc 1 662 0
 5071 0058 0392     		str	r2, [sp, #12]
 663:main.c        ****   pLayerCfg.PixelFormat = LTDC_PIXEL_FORMAT_ARGB8888;
 5072              		.loc 1 663 0
 5073 005a 4FF48873 		mov	r3, #272
 5074 005e 0493     		str	r3, [sp, #16]
 664:main.c        ****   pLayerCfg.Alpha = 255;
 5075              		.loc 1 664 0
 5076 0060 0592     		str	r2, [sp, #20]
 665:main.c        ****   pLayerCfg.Alpha0 = 0;
 5077              		.loc 1 665 0
 5078 0062 FF20     		movs	r0, #255
 5079 0064 0690     		str	r0, [sp, #24]
 666:main.c        ****   pLayerCfg.BlendingFactor1 = LTDC_BLENDING_FACTOR1_PAxCA;
 5080              		.loc 1 666 0
 5081 0066 0792     		str	r2, [sp, #28]
 667:main.c        ****   pLayerCfg.BlendingFactor2 = LTDC_BLENDING_FACTOR2_PAxCA;
 5082              		.loc 1 667 0
 5083 0068 4FF4C060 		mov	r0, #1536
 5084 006c 0890     		str	r0, [sp, #32]
 668:main.c        ****   pLayerCfg.FBStartAdress = 0xC0000000;
 5085              		.loc 1 668 0
 5086 006e 0720     		movs	r0, #7
 5087 0070 0990     		str	r0, [sp, #36]
 669:main.c        ****   pLayerCfg.ImageWidth = 480;
 5088              		.loc 1 669 0
 5089 0072 4FF04040 		mov	r0, #-1073741824
 5090 0076 0A90     		str	r0, [sp, #40]
 670:main.c        ****   pLayerCfg.ImageHeight = 272;
 5091              		.loc 1 670 0
 5092 0078 0B91     		str	r1, [sp, #44]
 671:main.c        ****   pLayerCfg.Backcolor.Blue = 0;
 5093              		.loc 1 671 0
 5094 007a 0C93     		str	r3, [sp, #48]
 672:main.c        ****   pLayerCfg.Backcolor.Green = 0;
 5095              		.loc 1 672 0
 5096 007c 8DF83420 		strb	r2, [sp, #52]
 673:main.c        ****   pLayerCfg.Backcolor.Red = 0;
 5097              		.loc 1 673 0
 5098 0080 8DF83520 		strb	r2, [sp, #53]
 674:main.c        ****   if (HAL_LTDC_ConfigLayer(&hltdc, &pLayerCfg, 0) != HAL_OK)
 5099              		.loc 1 674 0
 5100 0084 8DF83620 		strb	r2, [sp, #54]
 675:main.c        ****   {
 5101              		.loc 1 675 0
 5102 0088 01A9     		add	r1, sp, #4
 5103 008a 0848     		ldr	r0, .L356
 5104 008c FFF7FEFF 		bl	HAL_LTDC_ConfigLayer
 5105              	.LVL342:
 5106 0090 38B9     		cbnz	r0, .L355
 680:main.c        **** 
 5107              		.loc 1 680 0
 5108 0092 0FB0     		add	sp, sp, #60
ARM GAS  C:\Users\lenovo\AppData\Local\Temp\ccfgRfuq.s 			page 141


 5109              	.LCFI58:
 5110              		.cfi_remember_state
 5111              		.cfi_def_cfa_offset 4
 5112              		@ sp needed
 5113 0094 5DF804FB 		ldr	pc, [sp], #4
 5114              	.L354:
 5115              	.LCFI59:
 5116              		.cfi_restore_state
 657:main.c        ****   }
 5117              		.loc 1 657 0
 5118 0098 40F29121 		movw	r1, #657
 5119 009c 0548     		ldr	r0, .L356+8
 5120 009e FFF7FEFF 		bl	_Error_Handler
 5121              	.LVL343:
 5122              	.L355:
 677:main.c        ****   }
 5123              		.loc 1 677 0
 5124 00a2 40F2A521 		movw	r1, #677
 5125 00a6 0348     		ldr	r0, .L356+8
 5126 00a8 FFF7FEFF 		bl	_Error_Handler
 5127              	.LVL344:
 5128              	.L357:
 5129              		.align	2
 5130              	.L356:
 5131 00ac 00000000 		.word	hltdc
 5132 00b0 00680140 		.word	1073833984
 5133 00b4 00000000 		.word	.LC25
 5134              		.cfi_endproc
 5135              	.LFE193:
 5137              		.section	.text.MX_QUADSPI_Init,"ax",%progbits
 5138              		.align	1
 5139              		.syntax unified
 5140              		.thumb
 5141              		.thumb_func
 5142              		.fpu fpv5-sp-d16
 5144              	MX_QUADSPI_Init:
 5145              	.LFB194:
 684:main.c        **** 
 5146              		.loc 1 684 0
 5147              		.cfi_startproc
 5148              		@ args = 0, pretend = 0, frame = 0
 5149              		@ frame_needed = 0, uses_anonymous_args = 0
 5150 0000 08B5     		push	{r3, lr}
 5151              	.LCFI60:
 5152              		.cfi_def_cfa_offset 8
 5153              		.cfi_offset 3, -8
 5154              		.cfi_offset 14, -4
 687:main.c        ****   hqspi.Init.ClockPrescaler = 255;
 5155              		.loc 1 687 0
 5156 0002 0B48     		ldr	r0, .L362
 5157 0004 0B4B     		ldr	r3, .L362+4
 5158 0006 0360     		str	r3, [r0]
 688:main.c        ****   hqspi.Init.FifoThreshold = 1;
 5159              		.loc 1 688 0
 5160 0008 FF23     		movs	r3, #255
 5161 000a 4360     		str	r3, [r0, #4]
 689:main.c        ****   hqspi.Init.SampleShifting = QSPI_SAMPLE_SHIFTING_NONE;
ARM GAS  C:\Users\lenovo\AppData\Local\Temp\ccfgRfuq.s 			page 142


 5162              		.loc 1 689 0
 5163 000c 0122     		movs	r2, #1
 5164 000e 8260     		str	r2, [r0, #8]
 690:main.c        ****   hqspi.Init.FlashSize = 1;
 5165              		.loc 1 690 0
 5166 0010 0023     		movs	r3, #0
 5167 0012 C360     		str	r3, [r0, #12]
 691:main.c        ****   hqspi.Init.ChipSelectHighTime = QSPI_CS_HIGH_TIME_1_CYCLE;
 5168              		.loc 1 691 0
 5169 0014 0261     		str	r2, [r0, #16]
 692:main.c        ****   hqspi.Init.ClockMode = QSPI_CLOCK_MODE_0;
 5170              		.loc 1 692 0
 5171 0016 4361     		str	r3, [r0, #20]
 693:main.c        ****   hqspi.Init.FlashID = QSPI_FLASH_ID_1;
 5172              		.loc 1 693 0
 5173 0018 8361     		str	r3, [r0, #24]
 694:main.c        ****   hqspi.Init.DualFlash = QSPI_DUALFLASH_DISABLE;
 5174              		.loc 1 694 0
 5175 001a C361     		str	r3, [r0, #28]
 695:main.c        ****   if (HAL_QSPI_Init(&hqspi) != HAL_OK)
 5176              		.loc 1 695 0
 5177 001c 0362     		str	r3, [r0, #32]
 696:main.c        ****   {
 5178              		.loc 1 696 0
 5179 001e FFF7FEFF 		bl	HAL_QSPI_Init
 5180              	.LVL345:
 5181 0022 00B9     		cbnz	r0, .L361
 5182 0024 08BD     		pop	{r3, pc}
 5183              	.L361:
 698:main.c        ****   }
 5184              		.loc 1 698 0
 5185 0026 40F2BA21 		movw	r1, #698
 5186 002a 0348     		ldr	r0, .L362+8
 5187 002c FFF7FEFF 		bl	_Error_Handler
 5188              	.LVL346:
 5189              	.L363:
 5190              		.align	2
 5191              	.L362:
 5192 0030 00000000 		.word	hqspi
 5193 0034 001000A0 		.word	-1610608640
 5194 0038 00000000 		.word	.LC25
 5195              		.cfi_endproc
 5196              	.LFE194:
 5198              		.section	.text.MX_RTC_Init,"ax",%progbits
 5199              		.align	1
 5200              		.syntax unified
 5201              		.thumb
 5202              		.thumb_func
 5203              		.fpu fpv5-sp-d16
 5205              	MX_RTC_Init:
 5206              	.LFB195:
 705:main.c        **** 
 5207              		.loc 1 705 0
 5208              		.cfi_startproc
 5209              		@ args = 0, pretend = 0, frame = 72
 5210              		@ frame_needed = 0, uses_anonymous_args = 0
 5211 0000 00B5     		push	{lr}
ARM GAS  C:\Users\lenovo\AppData\Local\Temp\ccfgRfuq.s 			page 143


 5212              	.LCFI61:
 5213              		.cfi_def_cfa_offset 4
 5214              		.cfi_offset 14, -4
 5215 0002 93B0     		sub	sp, sp, #76
 5216              	.LCFI62:
 5217              		.cfi_def_cfa_offset 80
 721:main.c        ****   hrtc.Init.HourFormat = RTC_HOURFORMAT_24;
 5218              		.loc 1 721 0
 5219 0004 3C48     		ldr	r0, .L378
 5220 0006 3D4B     		ldr	r3, .L378+4
 5221 0008 0360     		str	r3, [r0]
 722:main.c        ****   hrtc.Init.AsynchPrediv = 127;
 5222              		.loc 1 722 0
 5223 000a 0023     		movs	r3, #0
 5224 000c 4360     		str	r3, [r0, #4]
 723:main.c        ****   hrtc.Init.SynchPrediv = 255;
 5225              		.loc 1 723 0
 5226 000e 7F22     		movs	r2, #127
 5227 0010 8260     		str	r2, [r0, #8]
 724:main.c        ****   hrtc.Init.OutPut = RTC_OUTPUT_DISABLE;
 5228              		.loc 1 724 0
 5229 0012 FF22     		movs	r2, #255
 5230 0014 C260     		str	r2, [r0, #12]
 725:main.c        ****   hrtc.Init.OutPutPolarity = RTC_OUTPUT_POLARITY_HIGH;
 5231              		.loc 1 725 0
 5232 0016 0361     		str	r3, [r0, #16]
 726:main.c        ****   hrtc.Init.OutPutType = RTC_OUTPUT_TYPE_OPENDRAIN;
 5233              		.loc 1 726 0
 5234 0018 4361     		str	r3, [r0, #20]
 727:main.c        ****   if (HAL_RTC_Init(&hrtc) != HAL_OK)
 5235              		.loc 1 727 0
 5236 001a 8361     		str	r3, [r0, #24]
 728:main.c        ****   {
 5237              		.loc 1 728 0
 5238 001c FFF7FEFF 		bl	HAL_RTC_Init
 5239              	.LVL347:
 5240 0020 0028     		cmp	r0, #0
 5241 0022 4BD1     		bne	.L372
 735:main.c        ****   sTime.Minutes = 0x0;
 5242              		.loc 1 735 0
 5243 0024 0023     		movs	r3, #0
 5244 0026 8DF83030 		strb	r3, [sp, #48]
 736:main.c        ****   sTime.Seconds = 0x0;
 5245              		.loc 1 736 0
 5246 002a 8DF83130 		strb	r3, [sp, #49]
 737:main.c        ****   sTime.DayLightSaving = RTC_DAYLIGHTSAVING_NONE;
 5247              		.loc 1 737 0
 5248 002e 8DF83230 		strb	r3, [sp, #50]
 738:main.c        ****   sTime.StoreOperation = RTC_STOREOPERATION_RESET;
 5249              		.loc 1 738 0
 5250 0032 1093     		str	r3, [sp, #64]
 739:main.c        ****   if (HAL_RTC_SetTime(&hrtc, &sTime, RTC_FORMAT_BCD) != HAL_OK)
 5251              		.loc 1 739 0
 5252 0034 1193     		str	r3, [sp, #68]
 740:main.c        ****   {
 5253              		.loc 1 740 0
 5254 0036 0122     		movs	r2, #1
ARM GAS  C:\Users\lenovo\AppData\Local\Temp\ccfgRfuq.s 			page 144


 5255 0038 0CA9     		add	r1, sp, #48
 5256 003a 2F48     		ldr	r0, .L378
 5257 003c FFF7FEFF 		bl	HAL_RTC_SetTime
 5258              	.LVL348:
 5259 0040 0028     		cmp	r0, #0
 5260 0042 40D1     		bne	.L373
 745:main.c        ****   sDate.Month = RTC_MONTH_JANUARY;
 5261              		.loc 1 745 0
 5262 0044 0122     		movs	r2, #1
 5263 0046 8DF82C20 		strb	r2, [sp, #44]
 746:main.c        ****   sDate.Date = 0x1;
 5264              		.loc 1 746 0
 5265 004a 8DF82D20 		strb	r2, [sp, #45]
 747:main.c        ****   sDate.Year = 0x0;
 5266              		.loc 1 747 0
 5267 004e 8DF82E20 		strb	r2, [sp, #46]
 748:main.c        **** 
 5268              		.loc 1 748 0
 5269 0052 0023     		movs	r3, #0
 5270 0054 8DF82F30 		strb	r3, [sp, #47]
 750:main.c        ****   {
 5271              		.loc 1 750 0
 5272 0058 0BA9     		add	r1, sp, #44
 5273 005a 2748     		ldr	r0, .L378
 5274 005c FFF7FEFF 		bl	HAL_RTC_SetDate
 5275              	.LVL349:
 5276 0060 0028     		cmp	r0, #0
 5277 0062 35D1     		bne	.L374
 757:main.c        ****   sAlarm.AlarmTime.Minutes = 0x0;
 5278              		.loc 1 757 0
 5279 0064 0023     		movs	r3, #0
 5280 0066 8DF80030 		strb	r3, [sp]
 758:main.c        ****   sAlarm.AlarmTime.Seconds = 0x0;
 5281              		.loc 1 758 0
 5282 006a 8DF80130 		strb	r3, [sp, #1]
 759:main.c        ****   sAlarm.AlarmTime.SubSeconds = 0x0;
 5283              		.loc 1 759 0
 5284 006e 8DF80230 		strb	r3, [sp, #2]
 760:main.c        ****   sAlarm.AlarmTime.DayLightSaving = RTC_DAYLIGHTSAVING_NONE;
 5285              		.loc 1 760 0
 5286 0072 0193     		str	r3, [sp, #4]
 761:main.c        ****   sAlarm.AlarmTime.StoreOperation = RTC_STOREOPERATION_RESET;
 5287              		.loc 1 761 0
 5288 0074 0493     		str	r3, [sp, #16]
 762:main.c        ****   sAlarm.AlarmMask = RTC_ALARMMASK_NONE;
 5289              		.loc 1 762 0
 5290 0076 0593     		str	r3, [sp, #20]
 763:main.c        ****   sAlarm.AlarmSubSecondMask = RTC_ALARMSUBSECONDMASK_ALL;
 5291              		.loc 1 763 0
 5292 0078 0693     		str	r3, [sp, #24]
 764:main.c        ****   sAlarm.AlarmDateWeekDaySel = RTC_ALARMDATEWEEKDAYSEL_DATE;
 5293              		.loc 1 764 0
 5294 007a 0793     		str	r3, [sp, #28]
 765:main.c        ****   sAlarm.AlarmDateWeekDay = 0x1;
 5295              		.loc 1 765 0
 5296 007c 0893     		str	r3, [sp, #32]
 766:main.c        ****   sAlarm.Alarm = RTC_ALARM_A;
ARM GAS  C:\Users\lenovo\AppData\Local\Temp\ccfgRfuq.s 			page 145


 5297              		.loc 1 766 0
 5298 007e 0122     		movs	r2, #1
 5299 0080 8DF82420 		strb	r2, [sp, #36]
 767:main.c        ****   if (HAL_RTC_SetAlarm(&hrtc, &sAlarm, RTC_FORMAT_BCD) != HAL_OK)
 5300              		.loc 1 767 0
 5301 0084 4FF48073 		mov	r3, #256
 5302 0088 0A93     		str	r3, [sp, #40]
 768:main.c        ****   {
 5303              		.loc 1 768 0
 5304 008a 6946     		mov	r1, sp
 5305 008c 1A48     		ldr	r0, .L378
 5306 008e FFF7FEFF 		bl	HAL_RTC_SetAlarm
 5307              	.LVL350:
 5308 0092 10BB     		cbnz	r0, .L375
 775:main.c        ****   sAlarm.Alarm = RTC_ALARM_B;
 5309              		.loc 1 775 0
 5310 0094 0122     		movs	r2, #1
 5311 0096 8DF82420 		strb	r2, [sp, #36]
 776:main.c        ****   if (HAL_RTC_SetAlarm(&hrtc, &sAlarm, RTC_FORMAT_BCD) != HAL_OK)
 5312              		.loc 1 776 0
 5313 009a 4FF40073 		mov	r3, #512
 5314 009e 0A93     		str	r3, [sp, #40]
 777:main.c        ****   {
 5315              		.loc 1 777 0
 5316 00a0 6946     		mov	r1, sp
 5317 00a2 1548     		ldr	r0, .L378
 5318 00a4 FFF7FEFF 		bl	HAL_RTC_SetAlarm
 5319              	.LVL351:
 5320 00a8 E0B9     		cbnz	r0, .L376
 784:main.c        ****   {
 5321              		.loc 1 784 0
 5322 00aa 0222     		movs	r2, #2
 5323 00ac 0021     		movs	r1, #0
 5324 00ae 1248     		ldr	r0, .L378
 5325 00b0 FFF7FEFF 		bl	HAL_RTCEx_SetTimeStamp
 5326              	.LVL352:
 5327 00b4 D8B9     		cbnz	r0, .L377
 789:main.c        **** 
 5328              		.loc 1 789 0
 5329 00b6 13B0     		add	sp, sp, #76
 5330              	.LCFI63:
 5331              		.cfi_remember_state
 5332              		.cfi_def_cfa_offset 4
 5333              		@ sp needed
 5334 00b8 5DF804FB 		ldr	pc, [sp], #4
 5335              	.L372:
 5336              	.LCFI64:
 5337              		.cfi_restore_state
 730:main.c        ****   }
 5338              		.loc 1 730 0
 5339 00bc 40F2DA21 		movw	r1, #730
 5340 00c0 0F48     		ldr	r0, .L378+8
 5341 00c2 FFF7FEFF 		bl	_Error_Handler
 5342              	.LVL353:
 5343              	.L373:
 742:main.c        ****   }
 5344              		.loc 1 742 0
ARM GAS  C:\Users\lenovo\AppData\Local\Temp\ccfgRfuq.s 			page 146


 5345 00c6 40F2E621 		movw	r1, #742
 5346 00ca 0D48     		ldr	r0, .L378+8
 5347 00cc FFF7FEFF 		bl	_Error_Handler
 5348              	.LVL354:
 5349              	.L374:
 752:main.c        ****   }
 5350              		.loc 1 752 0
 5351 00d0 4FF43C71 		mov	r1, #752
 5352 00d4 0A48     		ldr	r0, .L378+8
 5353 00d6 FFF7FEFF 		bl	_Error_Handler
 5354              	.LVL355:
 5355              	.L375:
 770:main.c        ****   }
 5356              		.loc 1 770 0
 5357 00da 40F20231 		movw	r1, #770
 5358 00de 0848     		ldr	r0, .L378+8
 5359 00e0 FFF7FEFF 		bl	_Error_Handler
 5360              	.LVL356:
 5361              	.L376:
 779:main.c        ****   }
 5362              		.loc 1 779 0
 5363 00e4 40F20B31 		movw	r1, #779
 5364 00e8 0548     		ldr	r0, .L378+8
 5365 00ea FFF7FEFF 		bl	_Error_Handler
 5366              	.LVL357:
 5367              	.L377:
 786:main.c        ****   }
 5368              		.loc 1 786 0
 5369 00ee 40F21231 		movw	r1, #786
 5370 00f2 0348     		ldr	r0, .L378+8
 5371 00f4 FFF7FEFF 		bl	_Error_Handler
 5372              	.LVL358:
 5373              	.L379:
 5374              		.align	2
 5375              	.L378:
 5376 00f8 00000000 		.word	hrtc
 5377 00fc 00280040 		.word	1073752064
 5378 0100 00000000 		.word	.LC25
 5379              		.cfi_endproc
 5380              	.LFE195:
 5382              		.section	.text.MX_SAI2_Init,"ax",%progbits
 5383              		.align	1
 5384              		.syntax unified
 5385              		.thumb
 5386              		.thumb_func
 5387              		.fpu fpv5-sp-d16
 5389              	MX_SAI2_Init:
 5390              	.LFB196:
 793:main.c        **** 
 5391              		.loc 1 793 0
 5392              		.cfi_startproc
 5393              		@ args = 0, pretend = 0, frame = 0
 5394              		@ frame_needed = 0, uses_anonymous_args = 0
 5395 0000 08B5     		push	{r3, lr}
 5396              	.LCFI65:
 5397              		.cfi_def_cfa_offset 8
 5398              		.cfi_offset 3, -8
ARM GAS  C:\Users\lenovo\AppData\Local\Temp\ccfgRfuq.s 			page 147


 5399              		.cfi_offset 14, -4
 795:main.c        ****   hsai_BlockA2.Init.Protocol = SAI_FREE_PROTOCOL;
 5400              		.loc 1 795 0
 5401 0002 2648     		ldr	r0, .L386
 5402 0004 264B     		ldr	r3, .L386+4
 5403 0006 0360     		str	r3, [r0]
 796:main.c        ****   hsai_BlockA2.Init.AudioMode = SAI_MODEMASTER_TX;
 5404              		.loc 1 796 0
 5405 0008 0023     		movs	r3, #0
 5406 000a 0363     		str	r3, [r0, #48]
 797:main.c        ****   hsai_BlockA2.Init.DataSize = SAI_DATASIZE_24;
 5407              		.loc 1 797 0
 5408 000c 4360     		str	r3, [r0, #4]
 798:main.c        ****   hsai_BlockA2.Init.FirstBit = SAI_FIRSTBIT_MSB;
 5409              		.loc 1 798 0
 5410 000e C022     		movs	r2, #192
 5411 0010 4263     		str	r2, [r0, #52]
 799:main.c        ****   hsai_BlockA2.Init.ClockStrobing = SAI_CLOCKSTROBING_FALLINGEDGE;
 5412              		.loc 1 799 0
 5413 0012 8363     		str	r3, [r0, #56]
 800:main.c        ****   hsai_BlockA2.Init.Synchro = SAI_ASYNCHRONOUS;
 5414              		.loc 1 800 0
 5415 0014 C363     		str	r3, [r0, #60]
 801:main.c        ****   hsai_BlockA2.Init.OutputDrive = SAI_OUTPUTDRIVE_DISABLE;
 5416              		.loc 1 801 0
 5417 0016 8360     		str	r3, [r0, #8]
 802:main.c        ****   hsai_BlockA2.Init.NoDivider = SAI_MASTERDIVIDER_ENABLE;
 5418              		.loc 1 802 0
 5419 0018 0361     		str	r3, [r0, #16]
 803:main.c        ****   hsai_BlockA2.Init.FIFOThreshold = SAI_FIFOTHRESHOLD_EMPTY;
 5420              		.loc 1 803 0
 5421 001a 4361     		str	r3, [r0, #20]
 804:main.c        ****   hsai_BlockA2.Init.AudioFrequency = SAI_AUDIO_FREQUENCY_192K;
 5422              		.loc 1 804 0
 5423 001c 8361     		str	r3, [r0, #24]
 805:main.c        ****   hsai_BlockA2.Init.SynchroExt = SAI_SYNCEXT_DISABLE;
 5424              		.loc 1 805 0
 5425 001e 214A     		ldr	r2, .L386+8
 5426 0020 C261     		str	r2, [r0, #28]
 806:main.c        ****   hsai_BlockA2.Init.MonoStereoMode = SAI_STEREOMODE;
 5427              		.loc 1 806 0
 5428 0022 C360     		str	r3, [r0, #12]
 807:main.c        ****   hsai_BlockA2.Init.CompandingMode = SAI_NOCOMPANDING;
 5429              		.loc 1 807 0
 5430 0024 4362     		str	r3, [r0, #36]
 808:main.c        ****   hsai_BlockA2.Init.TriState = SAI_OUTPUT_NOTRELEASED;
 5431              		.loc 1 808 0
 5432 0026 8362     		str	r3, [r0, #40]
 809:main.c        ****   hsai_BlockA2.FrameInit.FrameLength = 8;
 5433              		.loc 1 809 0
 5434 0028 C362     		str	r3, [r0, #44]
 810:main.c        ****   hsai_BlockA2.FrameInit.ActiveFrameLength = 1;
 5435              		.loc 1 810 0
 5436 002a 0822     		movs	r2, #8
 5437 002c 0264     		str	r2, [r0, #64]
 811:main.c        ****   hsai_BlockA2.FrameInit.FSDefinition = SAI_FS_STARTFRAME;
 5438              		.loc 1 811 0
ARM GAS  C:\Users\lenovo\AppData\Local\Temp\ccfgRfuq.s 			page 148


 5439 002e 0122     		movs	r2, #1
 5440 0030 4264     		str	r2, [r0, #68]
 812:main.c        ****   hsai_BlockA2.FrameInit.FSPolarity = SAI_FS_ACTIVE_LOW;
 5441              		.loc 1 812 0
 5442 0032 8364     		str	r3, [r0, #72]
 813:main.c        ****   hsai_BlockA2.FrameInit.FSOffset = SAI_FS_FIRSTBIT;
 5443              		.loc 1 813 0
 5444 0034 C364     		str	r3, [r0, #76]
 814:main.c        ****   hsai_BlockA2.SlotInit.FirstBitOffset = 0;
 5445              		.loc 1 814 0
 5446 0036 0365     		str	r3, [r0, #80]
 815:main.c        ****   hsai_BlockA2.SlotInit.SlotSize = SAI_SLOTSIZE_DATASIZE;
 5447              		.loc 1 815 0
 5448 0038 4365     		str	r3, [r0, #84]
 816:main.c        ****   hsai_BlockA2.SlotInit.SlotNumber = 1;
 5449              		.loc 1 816 0
 5450 003a 8365     		str	r3, [r0, #88]
 817:main.c        ****   hsai_BlockA2.SlotInit.SlotActive = 0x00000000;
 5451              		.loc 1 817 0
 5452 003c C265     		str	r2, [r0, #92]
 818:main.c        ****   if (HAL_SAI_Init(&hsai_BlockA2) != HAL_OK)
 5453              		.loc 1 818 0
 5454 003e 0366     		str	r3, [r0, #96]
 819:main.c        ****   {
 5455              		.loc 1 819 0
 5456 0040 FFF7FEFF 		bl	HAL_SAI_Init
 5457              	.LVL359:
 5458 0044 00BB     		cbnz	r0, .L384
 824:main.c        ****   hsai_BlockB2.Init.Protocol = SAI_FREE_PROTOCOL;
 5459              		.loc 1 824 0
 5460 0046 1848     		ldr	r0, .L386+12
 5461 0048 184B     		ldr	r3, .L386+16
 5462 004a 0360     		str	r3, [r0]
 825:main.c        ****   hsai_BlockB2.Init.AudioMode = SAI_MODESLAVE_RX;
 5463              		.loc 1 825 0
 5464 004c 0023     		movs	r3, #0
 5465 004e 0363     		str	r3, [r0, #48]
 826:main.c        ****   hsai_BlockB2.Init.DataSize = SAI_DATASIZE_24;
 5466              		.loc 1 826 0
 5467 0050 0322     		movs	r2, #3
 5468 0052 4260     		str	r2, [r0, #4]
 827:main.c        ****   hsai_BlockB2.Init.FirstBit = SAI_FIRSTBIT_MSB;
 5469              		.loc 1 827 0
 5470 0054 C022     		movs	r2, #192
 5471 0056 4263     		str	r2, [r0, #52]
 828:main.c        ****   hsai_BlockB2.Init.ClockStrobing = SAI_CLOCKSTROBING_FALLINGEDGE;
 5472              		.loc 1 828 0
 5473 0058 8363     		str	r3, [r0, #56]
 829:main.c        ****   hsai_BlockB2.Init.Synchro = SAI_SYNCHRONOUS;
 5474              		.loc 1 829 0
 5475 005a C363     		str	r3, [r0, #60]
 830:main.c        ****   hsai_BlockB2.Init.OutputDrive = SAI_OUTPUTDRIVE_DISABLE;
 5476              		.loc 1 830 0
 5477 005c 0122     		movs	r2, #1
 5478 005e 8260     		str	r2, [r0, #8]
 831:main.c        ****   hsai_BlockB2.Init.FIFOThreshold = SAI_FIFOTHRESHOLD_EMPTY;
 5479              		.loc 1 831 0
ARM GAS  C:\Users\lenovo\AppData\Local\Temp\ccfgRfuq.s 			page 149


 5480 0060 0361     		str	r3, [r0, #16]
 832:main.c        ****   hsai_BlockB2.Init.SynchroExt = SAI_SYNCEXT_DISABLE;
 5481              		.loc 1 832 0
 5482 0062 8361     		str	r3, [r0, #24]
 833:main.c        ****   hsai_BlockB2.Init.MonoStereoMode = SAI_STEREOMODE;
 5483              		.loc 1 833 0
 5484 0064 C360     		str	r3, [r0, #12]
 834:main.c        ****   hsai_BlockB2.Init.CompandingMode = SAI_NOCOMPANDING;
 5485              		.loc 1 834 0
 5486 0066 4362     		str	r3, [r0, #36]
 835:main.c        ****   hsai_BlockB2.Init.TriState = SAI_OUTPUT_NOTRELEASED;
 5487              		.loc 1 835 0
 5488 0068 8362     		str	r3, [r0, #40]
 836:main.c        ****   hsai_BlockB2.FrameInit.FrameLength = 8;
 5489              		.loc 1 836 0
 5490 006a C362     		str	r3, [r0, #44]
 837:main.c        ****   hsai_BlockB2.FrameInit.ActiveFrameLength = 1;
 5491              		.loc 1 837 0
 5492 006c 0821     		movs	r1, #8
 5493 006e 0164     		str	r1, [r0, #64]
 838:main.c        ****   hsai_BlockB2.FrameInit.FSDefinition = SAI_FS_STARTFRAME;
 5494              		.loc 1 838 0
 5495 0070 4264     		str	r2, [r0, #68]
 839:main.c        ****   hsai_BlockB2.FrameInit.FSPolarity = SAI_FS_ACTIVE_LOW;
 5496              		.loc 1 839 0
 5497 0072 8364     		str	r3, [r0, #72]
 840:main.c        ****   hsai_BlockB2.FrameInit.FSOffset = SAI_FS_FIRSTBIT;
 5498              		.loc 1 840 0
 5499 0074 C364     		str	r3, [r0, #76]
 841:main.c        ****   hsai_BlockB2.SlotInit.FirstBitOffset = 0;
 5500              		.loc 1 841 0
 5501 0076 0365     		str	r3, [r0, #80]
 842:main.c        ****   hsai_BlockB2.SlotInit.SlotSize = SAI_SLOTSIZE_DATASIZE;
 5502              		.loc 1 842 0
 5503 0078 4365     		str	r3, [r0, #84]
 843:main.c        ****   hsai_BlockB2.SlotInit.SlotNumber = 1;
 5504              		.loc 1 843 0
 5505 007a 8365     		str	r3, [r0, #88]
 844:main.c        ****   hsai_BlockB2.SlotInit.SlotActive = 0x00000000;
 5506              		.loc 1 844 0
 5507 007c C265     		str	r2, [r0, #92]
 845:main.c        ****   if (HAL_SAI_Init(&hsai_BlockB2) != HAL_OK)
 5508              		.loc 1 845 0
 5509 007e 0366     		str	r3, [r0, #96]
 846:main.c        ****   {
 5510              		.loc 1 846 0
 5511 0080 FFF7FEFF 		bl	HAL_SAI_Init
 5512              	.LVL360:
 5513 0084 28B9     		cbnz	r0, .L385
 5514 0086 08BD     		pop	{r3, pc}
 5515              	.L384:
 821:main.c        ****   }
 5516              		.loc 1 821 0
 5517 0088 40F23531 		movw	r1, #821
 5518 008c 0848     		ldr	r0, .L386+20
 5519 008e FFF7FEFF 		bl	_Error_Handler
 5520              	.LVL361:
ARM GAS  C:\Users\lenovo\AppData\Local\Temp\ccfgRfuq.s 			page 150


 5521              	.L385:
 848:main.c        ****   }
 5522              		.loc 1 848 0
 5523 0092 4FF45471 		mov	r1, #848
 5524 0096 0648     		ldr	r0, .L386+20
 5525 0098 FFF7FEFF 		bl	_Error_Handler
 5526              	.LVL362:
 5527              	.L387:
 5528              		.align	2
 5529              	.L386:
 5530 009c 00000000 		.word	hsai_BlockA2
 5531 00a0 045C0140 		.word	1073830916
 5532 00a4 00EE0200 		.word	192000
 5533 00a8 00000000 		.word	hsai_BlockB2
 5534 00ac 245C0140 		.word	1073830948
 5535 00b0 00000000 		.word	.LC25
 5536              		.cfi_endproc
 5537              	.LFE196:
 5539              		.section	.text.MX_SPDIFRX_Init,"ax",%progbits
 5540              		.align	1
 5541              		.syntax unified
 5542              		.thumb
 5543              		.thumb_func
 5544              		.fpu fpv5-sp-d16
 5546              	MX_SPDIFRX_Init:
 5547              	.LFB198:
 869:main.c        **** 
 5548              		.loc 1 869 0
 5549              		.cfi_startproc
 5550              		@ args = 0, pretend = 0, frame = 0
 5551              		@ frame_needed = 0, uses_anonymous_args = 0
 5552 0000 08B5     		push	{r3, lr}
 5553              	.LCFI66:
 5554              		.cfi_def_cfa_offset 8
 5555              		.cfi_offset 3, -8
 5556              		.cfi_offset 14, -4
 871:main.c        ****   hspdif.Init.InputSelection = SPDIFRX_INPUT_IN0;
 5557              		.loc 1 871 0
 5558 0002 0C48     		ldr	r0, .L392
 5559 0004 4FF04023 		mov	r3, #1073758208
 5560 0008 0360     		str	r3, [r0]
 872:main.c        ****   hspdif.Init.Retries = SPDIFRX_MAXRETRIES_NONE;
 5561              		.loc 1 872 0
 5562 000a 0023     		movs	r3, #0
 5563 000c 4360     		str	r3, [r0, #4]
 873:main.c        ****   hspdif.Init.WaitForActivity = SPDIFRX_WAITFORACTIVITY_OFF;
 5564              		.loc 1 873 0
 5565 000e 8360     		str	r3, [r0, #8]
 874:main.c        ****   hspdif.Init.ChannelSelection = SPDIFRX_CHANNEL_A;
 5566              		.loc 1 874 0
 5567 0010 C360     		str	r3, [r0, #12]
 875:main.c        ****   hspdif.Init.DataFormat = SPDIFRX_DATAFORMAT_LSB;
 5568              		.loc 1 875 0
 5569 0012 0361     		str	r3, [r0, #16]
 876:main.c        ****   hspdif.Init.StereoMode = SPDIFRX_STEREOMODE_DISABLE;
 5570              		.loc 1 876 0
 5571 0014 4361     		str	r3, [r0, #20]
ARM GAS  C:\Users\lenovo\AppData\Local\Temp\ccfgRfuq.s 			page 151


 877:main.c        ****   hspdif.Init.PreambleTypeMask = SPDIFRX_PREAMBLETYPEMASK_OFF;
 5572              		.loc 1 877 0
 5573 0016 8361     		str	r3, [r0, #24]
 878:main.c        ****   hspdif.Init.ChannelStatusMask = SPDIFRX_CHANNELSTATUS_OFF;
 5574              		.loc 1 878 0
 5575 0018 C361     		str	r3, [r0, #28]
 879:main.c        ****   hspdif.Init.ValidityBitMask = SPDIFRX_VALIDITYMASK_OFF;
 5576              		.loc 1 879 0
 5577 001a 0362     		str	r3, [r0, #32]
 880:main.c        ****   hspdif.Init.ParityErrorMask = SPDIFRX_PARITYERRORMASK_OFF;
 5578              		.loc 1 880 0
 5579 001c 4362     		str	r3, [r0, #36]
 881:main.c        ****   if (HAL_SPDIFRX_Init(&hspdif) != HAL_OK)
 5580              		.loc 1 881 0
 5581 001e 8362     		str	r3, [r0, #40]
 882:main.c        ****   {
 5582              		.loc 1 882 0
 5583 0020 FFF7FEFF 		bl	HAL_SPDIFRX_Init
 5584              	.LVL363:
 5585 0024 00B9     		cbnz	r0, .L391
 5586 0026 08BD     		pop	{r3, pc}
 5587              	.L391:
 884:main.c        ****   }
 5588              		.loc 1 884 0
 5589 0028 4FF45D71 		mov	r1, #884
 5590 002c 0248     		ldr	r0, .L392+4
 5591 002e FFF7FEFF 		bl	_Error_Handler
 5592              	.LVL364:
 5593              	.L393:
 5594 0032 00BF     		.align	2
 5595              	.L392:
 5596 0034 00000000 		.word	hspdif
 5597 0038 00000000 		.word	.LC25
 5598              		.cfi_endproc
 5599              	.LFE198:
 5601              		.section	.text.MX_SPI2_Init,"ax",%progbits
 5602              		.align	1
 5603              		.syntax unified
 5604              		.thumb
 5605              		.thumb_func
 5606              		.fpu fpv5-sp-d16
 5608              	MX_SPI2_Init:
 5609              	.LFB199:
 891:main.c        **** 
 5610              		.loc 1 891 0
 5611              		.cfi_startproc
 5612              		@ args = 0, pretend = 0, frame = 0
 5613              		@ frame_needed = 0, uses_anonymous_args = 0
 5614 0000 08B5     		push	{r3, lr}
 5615              	.LCFI67:
 5616              		.cfi_def_cfa_offset 8
 5617              		.cfi_offset 3, -8
 5618              		.cfi_offset 14, -4
 894:main.c        ****   hspi2.Init.Mode = SPI_MODE_MASTER;
 5619              		.loc 1 894 0
 5620 0002 1148     		ldr	r0, .L398
 5621 0004 114B     		ldr	r3, .L398+4
ARM GAS  C:\Users\lenovo\AppData\Local\Temp\ccfgRfuq.s 			page 152


 5622 0006 0360     		str	r3, [r0]
 895:main.c        ****   hspi2.Init.Direction = SPI_DIRECTION_2LINES;
 5623              		.loc 1 895 0
 5624 0008 4FF48273 		mov	r3, #260
 5625 000c 4360     		str	r3, [r0, #4]
 896:main.c        ****   hspi2.Init.DataSize = SPI_DATASIZE_4BIT;
 5626              		.loc 1 896 0
 5627 000e 0023     		movs	r3, #0
 5628 0010 8360     		str	r3, [r0, #8]
 897:main.c        ****   hspi2.Init.CLKPolarity = SPI_POLARITY_LOW;
 5629              		.loc 1 897 0
 5630 0012 4FF44072 		mov	r2, #768
 5631 0016 C260     		str	r2, [r0, #12]
 898:main.c        ****   hspi2.Init.CLKPhase = SPI_PHASE_1EDGE;
 5632              		.loc 1 898 0
 5633 0018 0361     		str	r3, [r0, #16]
 899:main.c        ****   hspi2.Init.NSS = SPI_NSS_SOFT;
 5634              		.loc 1 899 0
 5635 001a 4361     		str	r3, [r0, #20]
 900:main.c        ****   hspi2.Init.BaudRatePrescaler = SPI_BAUDRATEPRESCALER_2;
 5636              		.loc 1 900 0
 5637 001c 4FF40072 		mov	r2, #512
 5638 0020 8261     		str	r2, [r0, #24]
 901:main.c        ****   hspi2.Init.FirstBit = SPI_FIRSTBIT_MSB;
 5639              		.loc 1 901 0
 5640 0022 C361     		str	r3, [r0, #28]
 902:main.c        ****   hspi2.Init.TIMode = SPI_TIMODE_DISABLE;
 5641              		.loc 1 902 0
 5642 0024 0362     		str	r3, [r0, #32]
 903:main.c        ****   hspi2.Init.CRCCalculation = SPI_CRCCALCULATION_DISABLE;
 5643              		.loc 1 903 0
 5644 0026 4362     		str	r3, [r0, #36]
 904:main.c        ****   hspi2.Init.CRCPolynomial = 7;
 5645              		.loc 1 904 0
 5646 0028 8362     		str	r3, [r0, #40]
 905:main.c        ****   hspi2.Init.CRCLength = SPI_CRC_LENGTH_DATASIZE;
 5647              		.loc 1 905 0
 5648 002a 0722     		movs	r2, #7
 5649 002c C262     		str	r2, [r0, #44]
 906:main.c        ****   hspi2.Init.NSSPMode = SPI_NSS_PULSE_ENABLE;
 5650              		.loc 1 906 0
 5651 002e 0363     		str	r3, [r0, #48]
 907:main.c        ****   if (HAL_SPI_Init(&hspi2) != HAL_OK)
 5652              		.loc 1 907 0
 5653 0030 0823     		movs	r3, #8
 5654 0032 4363     		str	r3, [r0, #52]
 908:main.c        ****   {
 5655              		.loc 1 908 0
 5656 0034 FFF7FEFF 		bl	HAL_SPI_Init
 5657              	.LVL365:
 5658 0038 00B9     		cbnz	r0, .L397
 5659 003a 08BD     		pop	{r3, pc}
 5660              	.L397:
 910:main.c        ****   }
 5661              		.loc 1 910 0
 5662 003c 40F28E31 		movw	r1, #910
 5663 0040 0348     		ldr	r0, .L398+8
ARM GAS  C:\Users\lenovo\AppData\Local\Temp\ccfgRfuq.s 			page 153


 5664 0042 FFF7FEFF 		bl	_Error_Handler
 5665              	.LVL366:
 5666              	.L399:
 5667 0046 00BF     		.align	2
 5668              	.L398:
 5669 0048 00000000 		.word	hspi2
 5670 004c 00380040 		.word	1073756160
 5671 0050 00000000 		.word	.LC25
 5672              		.cfi_endproc
 5673              	.LFE199:
 5675              		.section	.text.MX_TIM1_Init,"ax",%progbits
 5676              		.align	1
 5677              		.syntax unified
 5678              		.thumb
 5679              		.thumb_func
 5680              		.fpu fpv5-sp-d16
 5682              	MX_TIM1_Init:
 5683              	.LFB200:
 917:main.c        **** 
 5684              		.loc 1 917 0
 5685              		.cfi_startproc
 5686              		@ args = 0, pretend = 0, frame = 104
 5687              		@ frame_needed = 0, uses_anonymous_args = 0
 5688 0000 00B5     		push	{lr}
 5689              	.LCFI68:
 5690              		.cfi_def_cfa_offset 4
 5691              		.cfi_offset 14, -4
 5692 0002 9BB0     		sub	sp, sp, #108
 5693              	.LCFI69:
 5694              		.cfi_def_cfa_offset 112
 924:main.c        ****   htim1.Init.Prescaler = 0;
 5695              		.loc 1 924 0
 5696 0004 3748     		ldr	r0, .L414
 5697 0006 384B     		ldr	r3, .L414+4
 5698 0008 0360     		str	r3, [r0]
 925:main.c        ****   htim1.Init.CounterMode = TIM_COUNTERMODE_UP;
 5699              		.loc 1 925 0
 5700 000a 0023     		movs	r3, #0
 5701 000c 4360     		str	r3, [r0, #4]
 926:main.c        ****   htim1.Init.Period = 0;
 5702              		.loc 1 926 0
 5703 000e 8360     		str	r3, [r0, #8]
 927:main.c        ****   htim1.Init.ClockDivision = TIM_CLOCKDIVISION_DIV1;
 5704              		.loc 1 927 0
 5705 0010 C360     		str	r3, [r0, #12]
 928:main.c        ****   htim1.Init.RepetitionCounter = 0;
 5706              		.loc 1 928 0
 5707 0012 0361     		str	r3, [r0, #16]
 929:main.c        ****   htim1.Init.AutoReloadPreload = TIM_AUTORELOAD_PRELOAD_DISABLE;
 5708              		.loc 1 929 0
 5709 0014 4361     		str	r3, [r0, #20]
 930:main.c        ****   if (HAL_TIM_Base_Init(&htim1) != HAL_OK)
 5710              		.loc 1 930 0
 5711 0016 8361     		str	r3, [r0, #24]
 931:main.c        ****   {
 5712              		.loc 1 931 0
 5713 0018 FFF7FEFF 		bl	HAL_TIM_Base_Init
ARM GAS  C:\Users\lenovo\AppData\Local\Temp\ccfgRfuq.s 			page 154


 5714              	.LVL367:
 5715 001c 0028     		cmp	r0, #0
 5716 001e 42D1     		bne	.L408
 936:main.c        ****   if (HAL_TIM_ConfigClockSource(&htim1, &sClockSourceConfig) != HAL_OK)
 5717              		.loc 1 936 0
 5718 0020 1AA9     		add	r1, sp, #104
 5719 0022 4FF48053 		mov	r3, #4096
 5720 0026 41F8103D 		str	r3, [r1, #-16]!
 937:main.c        ****   {
 5721              		.loc 1 937 0
 5722 002a 2E48     		ldr	r0, .L414
 5723 002c FFF7FEFF 		bl	HAL_TIM_ConfigClockSource
 5724              	.LVL368:
 5725 0030 0028     		cmp	r0, #0
 5726 0032 3DD1     		bne	.L409
 942:main.c        ****   {
 5727              		.loc 1 942 0
 5728 0034 2B48     		ldr	r0, .L414
 5729 0036 FFF7FEFF 		bl	HAL_TIM_PWM_Init
 5730              	.LVL369:
 5731 003a 0028     		cmp	r0, #0
 5732 003c 3DD1     		bne	.L410
 947:main.c        ****   sMasterConfig.MasterOutputTrigger2 = TIM_TRGO2_RESET;
 5733              		.loc 1 947 0
 5734 003e 0023     		movs	r3, #0
 5735 0040 1393     		str	r3, [sp, #76]
 948:main.c        ****   sMasterConfig.MasterSlaveMode = TIM_MASTERSLAVEMODE_DISABLE;
 5736              		.loc 1 948 0
 5737 0042 1493     		str	r3, [sp, #80]
 949:main.c        ****   if (HAL_TIMEx_MasterConfigSynchronization(&htim1, &sMasterConfig) != HAL_OK)
 5738              		.loc 1 949 0
 5739 0044 1593     		str	r3, [sp, #84]
 950:main.c        ****   {
 5740              		.loc 1 950 0
 5741 0046 13A9     		add	r1, sp, #76
 5742 0048 2648     		ldr	r0, .L414
 5743 004a FFF7FEFF 		bl	HAL_TIMEx_MasterConfigSynchronization
 5744              	.LVL370:
 5745 004e 0028     		cmp	r0, #0
 5746 0050 38D1     		bne	.L411
 955:main.c        ****   sConfigOC.Pulse = 0;
 5747              		.loc 1 955 0
 5748 0052 6023     		movs	r3, #96
 5749 0054 0C93     		str	r3, [sp, #48]
 956:main.c        ****   sConfigOC.OCPolarity = TIM_OCPOLARITY_HIGH;
 5750              		.loc 1 956 0
 5751 0056 0022     		movs	r2, #0
 5752 0058 0D92     		str	r2, [sp, #52]
 957:main.c        ****   sConfigOC.OCNPolarity = TIM_OCNPOLARITY_HIGH;
 5753              		.loc 1 957 0
 5754 005a 0E92     		str	r2, [sp, #56]
 958:main.c        ****   sConfigOC.OCFastMode = TIM_OCFAST_DISABLE;
 5755              		.loc 1 958 0
 5756 005c 0F92     		str	r2, [sp, #60]
 959:main.c        ****   sConfigOC.OCIdleState = TIM_OCIDLESTATE_RESET;
 5757              		.loc 1 959 0
 5758 005e 1092     		str	r2, [sp, #64]
ARM GAS  C:\Users\lenovo\AppData\Local\Temp\ccfgRfuq.s 			page 155


 960:main.c        ****   sConfigOC.OCNIdleState = TIM_OCNIDLESTATE_RESET;
 5759              		.loc 1 960 0
 5760 0060 1192     		str	r2, [sp, #68]
 961:main.c        ****   if (HAL_TIM_PWM_ConfigChannel(&htim1, &sConfigOC, TIM_CHANNEL_1) != HAL_OK)
 5761              		.loc 1 961 0
 5762 0062 1292     		str	r2, [sp, #72]
 962:main.c        ****   {
 5763              		.loc 1 962 0
 5764 0064 0CA9     		add	r1, sp, #48
 5765 0066 1F48     		ldr	r0, .L414
 5766 0068 FFF7FEFF 		bl	HAL_TIM_PWM_ConfigChannel
 5767              	.LVL371:
 5768 006c 0028     		cmp	r0, #0
 5769 006e 2ED1     		bne	.L412
 967:main.c        ****   sBreakDeadTimeConfig.OffStateIDLEMode = TIM_OSSI_DISABLE;
 5770              		.loc 1 967 0
 5771 0070 0023     		movs	r3, #0
 5772 0072 0193     		str	r3, [sp, #4]
 968:main.c        ****   sBreakDeadTimeConfig.LockLevel = TIM_LOCKLEVEL_OFF;
 5773              		.loc 1 968 0
 5774 0074 0293     		str	r3, [sp, #8]
 969:main.c        ****   sBreakDeadTimeConfig.DeadTime = 0;
 5775              		.loc 1 969 0
 5776 0076 0393     		str	r3, [sp, #12]
 970:main.c        ****   sBreakDeadTimeConfig.BreakState = TIM_BREAK_DISABLE;
 5777              		.loc 1 970 0
 5778 0078 0493     		str	r3, [sp, #16]
 971:main.c        ****   sBreakDeadTimeConfig.BreakPolarity = TIM_BREAKPOLARITY_HIGH;
 5779              		.loc 1 971 0
 5780 007a 0593     		str	r3, [sp, #20]
 972:main.c        ****   sBreakDeadTimeConfig.BreakFilter = 0;
 5781              		.loc 1 972 0
 5782 007c 4FF40052 		mov	r2, #8192
 5783 0080 0692     		str	r2, [sp, #24]
 973:main.c        ****   sBreakDeadTimeConfig.Break2State = TIM_BREAK2_DISABLE;
 5784              		.loc 1 973 0
 5785 0082 0793     		str	r3, [sp, #28]
 974:main.c        ****   sBreakDeadTimeConfig.Break2Polarity = TIM_BREAK2POLARITY_HIGH;
 5786              		.loc 1 974 0
 5787 0084 0893     		str	r3, [sp, #32]
 975:main.c        ****   sBreakDeadTimeConfig.Break2Filter = 0;
 5788              		.loc 1 975 0
 5789 0086 4FF00072 		mov	r2, #33554432
 5790 008a 0992     		str	r2, [sp, #36]
 976:main.c        ****   sBreakDeadTimeConfig.AutomaticOutput = TIM_AUTOMATICOUTPUT_DISABLE;
 5791              		.loc 1 976 0
 5792 008c 0A93     		str	r3, [sp, #40]
 977:main.c        ****   if (HAL_TIMEx_ConfigBreakDeadTime(&htim1, &sBreakDeadTimeConfig) != HAL_OK)
 5793              		.loc 1 977 0
 5794 008e 0B93     		str	r3, [sp, #44]
 978:main.c        ****   {
 5795              		.loc 1 978 0
 5796 0090 01A9     		add	r1, sp, #4
 5797 0092 1448     		ldr	r0, .L414
 5798 0094 FFF7FEFF 		bl	HAL_TIMEx_ConfigBreakDeadTime
 5799              	.LVL372:
 5800 0098 F0B9     		cbnz	r0, .L413
ARM GAS  C:\Users\lenovo\AppData\Local\Temp\ccfgRfuq.s 			page 156


 983:main.c        **** 
 5801              		.loc 1 983 0
 5802 009a 1248     		ldr	r0, .L414
 5803 009c FFF7FEFF 		bl	HAL_TIM_MspPostInit
 5804              	.LVL373:
 985:main.c        **** 
 5805              		.loc 1 985 0
 5806 00a0 1BB0     		add	sp, sp, #108
 5807              	.LCFI70:
 5808              		.cfi_remember_state
 5809              		.cfi_def_cfa_offset 4
 5810              		@ sp needed
 5811 00a2 5DF804FB 		ldr	pc, [sp], #4
 5812              	.L408:
 5813              	.LCFI71:
 5814              		.cfi_restore_state
 933:main.c        ****   }
 5815              		.loc 1 933 0
 5816 00a6 40F2A531 		movw	r1, #933
 5817 00aa 1048     		ldr	r0, .L414+8
 5818 00ac FFF7FEFF 		bl	_Error_Handler
 5819              	.LVL374:
 5820              	.L409:
 939:main.c        ****   }
 5821              		.loc 1 939 0
 5822 00b0 40F2AB31 		movw	r1, #939
 5823 00b4 0D48     		ldr	r0, .L414+8
 5824 00b6 FFF7FEFF 		bl	_Error_Handler
 5825              	.LVL375:
 5826              	.L410:
 944:main.c        ****   }
 5827              		.loc 1 944 0
 5828 00ba 4FF46C71 		mov	r1, #944
 5829 00be 0B48     		ldr	r0, .L414+8
 5830 00c0 FFF7FEFF 		bl	_Error_Handler
 5831              	.LVL376:
 5832              	.L411:
 952:main.c        ****   }
 5833              		.loc 1 952 0
 5834 00c4 4FF46E71 		mov	r1, #952
 5835 00c8 0848     		ldr	r0, .L414+8
 5836 00ca FFF7FEFF 		bl	_Error_Handler
 5837              	.LVL377:
 5838              	.L412:
 964:main.c        ****   }
 5839              		.loc 1 964 0
 5840 00ce 4FF47171 		mov	r1, #964
 5841 00d2 0648     		ldr	r0, .L414+8
 5842 00d4 FFF7FEFF 		bl	_Error_Handler
 5843              	.LVL378:
 5844              	.L413:
 980:main.c        ****   }
 5845              		.loc 1 980 0
 5846 00d8 4FF47571 		mov	r1, #980
 5847 00dc 0348     		ldr	r0, .L414+8
 5848 00de FFF7FEFF 		bl	_Error_Handler
 5849              	.LVL379:
ARM GAS  C:\Users\lenovo\AppData\Local\Temp\ccfgRfuq.s 			page 157


 5850              	.L415:
 5851 00e2 00BF     		.align	2
 5852              	.L414:
 5853 00e4 00000000 		.word	htim1
 5854 00e8 00000140 		.word	1073807360
 5855 00ec 00000000 		.word	.LC25
 5856              		.cfi_endproc
 5857              	.LFE200:
 5859              		.section	.text.MX_TIM2_Init,"ax",%progbits
 5860              		.align	1
 5861              		.syntax unified
 5862              		.thumb
 5863              		.thumb_func
 5864              		.fpu fpv5-sp-d16
 5866              	MX_TIM2_Init:
 5867              	.LFB201:
 989:main.c        **** 
 5868              		.loc 1 989 0
 5869              		.cfi_startproc
 5870              		@ args = 0, pretend = 0, frame = 56
 5871              		@ frame_needed = 0, uses_anonymous_args = 0
 5872 0000 00B5     		push	{lr}
 5873              	.LCFI72:
 5874              		.cfi_def_cfa_offset 4
 5875              		.cfi_offset 14, -4
 5876 0002 8FB0     		sub	sp, sp, #60
 5877              	.LCFI73:
 5878              		.cfi_def_cfa_offset 64
 995:main.c        ****   htim2.Init.Prescaler = 0;
 5879              		.loc 1 995 0
 5880 0004 2548     		ldr	r0, .L428
 5881 0006 4FF08043 		mov	r3, #1073741824
 5882 000a 0360     		str	r3, [r0]
 996:main.c        ****   htim2.Init.CounterMode = TIM_COUNTERMODE_UP;
 5883              		.loc 1 996 0
 5884 000c 0023     		movs	r3, #0
 5885 000e 4360     		str	r3, [r0, #4]
 997:main.c        ****   htim2.Init.Period = 0;
 5886              		.loc 1 997 0
 5887 0010 8360     		str	r3, [r0, #8]
 998:main.c        ****   htim2.Init.ClockDivision = TIM_CLOCKDIVISION_DIV1;
 5888              		.loc 1 998 0
 5889 0012 C360     		str	r3, [r0, #12]
 999:main.c        ****   htim2.Init.AutoReloadPreload = TIM_AUTORELOAD_PRELOAD_DISABLE;
 5890              		.loc 1 999 0
 5891 0014 0361     		str	r3, [r0, #16]
1000:main.c        ****   if (HAL_TIM_Base_Init(&htim2) != HAL_OK)
 5892              		.loc 1 1000 0
 5893 0016 8361     		str	r3, [r0, #24]
1001:main.c        ****   {
 5894              		.loc 1 1001 0
 5895 0018 FFF7FEFF 		bl	HAL_TIM_Base_Init
 5896              	.LVL380:
 5897 001c 28BB     		cbnz	r0, .L423
1006:main.c        ****   if (HAL_TIM_ConfigClockSource(&htim2, &sClockSourceConfig) != HAL_OK)
 5898              		.loc 1 1006 0
 5899 001e 0EA9     		add	r1, sp, #56
ARM GAS  C:\Users\lenovo\AppData\Local\Temp\ccfgRfuq.s 			page 158


 5900 0020 4FF48053 		mov	r3, #4096
 5901 0024 41F8103D 		str	r3, [r1, #-16]!
1007:main.c        ****   {
 5902              		.loc 1 1007 0
 5903 0028 1C48     		ldr	r0, .L428
 5904 002a FFF7FEFF 		bl	HAL_TIM_ConfigClockSource
 5905              	.LVL381:
 5906 002e 08BB     		cbnz	r0, .L424
1012:main.c        ****   {
 5907              		.loc 1 1012 0
 5908 0030 1A48     		ldr	r0, .L428
 5909 0032 FFF7FEFF 		bl	HAL_TIM_PWM_Init
 5910              	.LVL382:
 5911 0036 10BB     		cbnz	r0, .L425
1017:main.c        ****   sMasterConfig.MasterSlaveMode = TIM_MASTERSLAVEMODE_DISABLE;
 5912              		.loc 1 1017 0
 5913 0038 0023     		movs	r3, #0
 5914 003a 0793     		str	r3, [sp, #28]
1018:main.c        ****   if (HAL_TIMEx_MasterConfigSynchronization(&htim2, &sMasterConfig) != HAL_OK)
 5915              		.loc 1 1018 0
 5916 003c 0993     		str	r3, [sp, #36]
1019:main.c        ****   {
 5917              		.loc 1 1019 0
 5918 003e 07A9     		add	r1, sp, #28
 5919 0040 1648     		ldr	r0, .L428
 5920 0042 FFF7FEFF 		bl	HAL_TIMEx_MasterConfigSynchronization
 5921              	.LVL383:
 5922 0046 F8B9     		cbnz	r0, .L426
1024:main.c        ****   sConfigOC.Pulse = 0;
 5923              		.loc 1 1024 0
 5924 0048 6023     		movs	r3, #96
 5925 004a 0093     		str	r3, [sp]
1025:main.c        ****   sConfigOC.OCPolarity = TIM_OCPOLARITY_HIGH;
 5926              		.loc 1 1025 0
 5927 004c 0022     		movs	r2, #0
 5928 004e 0192     		str	r2, [sp, #4]
1026:main.c        ****   sConfigOC.OCFastMode = TIM_OCFAST_DISABLE;
 5929              		.loc 1 1026 0
 5930 0050 0292     		str	r2, [sp, #8]
1027:main.c        ****   if (HAL_TIM_PWM_ConfigChannel(&htim2, &sConfigOC, TIM_CHANNEL_1) != HAL_OK)
 5931              		.loc 1 1027 0
 5932 0052 0492     		str	r2, [sp, #16]
1028:main.c        ****   {
 5933              		.loc 1 1028 0
 5934 0054 6946     		mov	r1, sp
 5935 0056 1148     		ldr	r0, .L428
 5936 0058 FFF7FEFF 		bl	HAL_TIM_PWM_ConfigChannel
 5937              	.LVL384:
 5938 005c C8B9     		cbnz	r0, .L427
1033:main.c        **** 
 5939              		.loc 1 1033 0
 5940 005e 0F48     		ldr	r0, .L428
 5941 0060 FFF7FEFF 		bl	HAL_TIM_MspPostInit
 5942              	.LVL385:
1035:main.c        **** 
 5943              		.loc 1 1035 0
 5944 0064 0FB0     		add	sp, sp, #60
ARM GAS  C:\Users\lenovo\AppData\Local\Temp\ccfgRfuq.s 			page 159


 5945              	.LCFI74:
 5946              		.cfi_remember_state
 5947              		.cfi_def_cfa_offset 4
 5948              		@ sp needed
 5949 0066 5DF804FB 		ldr	pc, [sp], #4
 5950              	.L423:
 5951              	.LCFI75:
 5952              		.cfi_restore_state
1003:main.c        ****   }
 5953              		.loc 1 1003 0
 5954 006a 40F2EB31 		movw	r1, #1003
 5955 006e 0C48     		ldr	r0, .L428+4
 5956 0070 FFF7FEFF 		bl	_Error_Handler
 5957              	.LVL386:
 5958              	.L424:
1009:main.c        ****   }
 5959              		.loc 1 1009 0
 5960 0074 40F2F131 		movw	r1, #1009
 5961 0078 0948     		ldr	r0, .L428+4
 5962 007a FFF7FEFF 		bl	_Error_Handler
 5963              	.LVL387:
 5964              	.L425:
1014:main.c        ****   }
 5965              		.loc 1 1014 0
 5966 007e 40F2F631 		movw	r1, #1014
 5967 0082 0748     		ldr	r0, .L428+4
 5968 0084 FFF7FEFF 		bl	_Error_Handler
 5969              	.LVL388:
 5970              	.L426:
1021:main.c        ****   }
 5971              		.loc 1 1021 0
 5972 0088 40F2FD31 		movw	r1, #1021
 5973 008c 0448     		ldr	r0, .L428+4
 5974 008e FFF7FEFF 		bl	_Error_Handler
 5975              	.LVL389:
 5976              	.L427:
1030:main.c        ****   }
 5977              		.loc 1 1030 0
 5978 0092 40F20641 		movw	r1, #1030
 5979 0096 0248     		ldr	r0, .L428+4
 5980 0098 FFF7FEFF 		bl	_Error_Handler
 5981              	.LVL390:
 5982              	.L429:
 5983              		.align	2
 5984              	.L428:
 5985 009c 00000000 		.word	htim2
 5986 00a0 00000000 		.word	.LC25
 5987              		.cfi_endproc
 5988              	.LFE201:
 5990              		.section	.text.MX_TIM3_Init,"ax",%progbits
 5991              		.align	1
 5992              		.syntax unified
 5993              		.thumb
 5994              		.thumb_func
 5995              		.fpu fpv5-sp-d16
 5997              	MX_TIM3_Init:
 5998              	.LFB202:
ARM GAS  C:\Users\lenovo\AppData\Local\Temp\ccfgRfuq.s 			page 160


1039:main.c        **** 
 5999              		.loc 1 1039 0
 6000              		.cfi_startproc
 6001              		@ args = 0, pretend = 0, frame = 56
 6002              		@ frame_needed = 0, uses_anonymous_args = 0
 6003 0000 00B5     		push	{lr}
 6004              	.LCFI76:
 6005              		.cfi_def_cfa_offset 4
 6006              		.cfi_offset 14, -4
 6007 0002 8FB0     		sub	sp, sp, #60
 6008              	.LCFI77:
 6009              		.cfi_def_cfa_offset 64
1045:main.c        ****   htim3.Init.Prescaler = 0;
 6010              		.loc 1 1045 0
 6011 0004 2548     		ldr	r0, .L442
 6012 0006 264B     		ldr	r3, .L442+4
 6013 0008 0360     		str	r3, [r0]
1046:main.c        ****   htim3.Init.CounterMode = TIM_COUNTERMODE_UP;
 6014              		.loc 1 1046 0
 6015 000a 0023     		movs	r3, #0
 6016 000c 4360     		str	r3, [r0, #4]
1047:main.c        ****   htim3.Init.Period = 0;
 6017              		.loc 1 1047 0
 6018 000e 8360     		str	r3, [r0, #8]
1048:main.c        ****   htim3.Init.ClockDivision = TIM_CLOCKDIVISION_DIV1;
 6019              		.loc 1 1048 0
 6020 0010 C360     		str	r3, [r0, #12]
1049:main.c        ****   htim3.Init.AutoReloadPreload = TIM_AUTORELOAD_PRELOAD_DISABLE;
 6021              		.loc 1 1049 0
 6022 0012 0361     		str	r3, [r0, #16]
1050:main.c        ****   if (HAL_TIM_Base_Init(&htim3) != HAL_OK)
 6023              		.loc 1 1050 0
 6024 0014 8361     		str	r3, [r0, #24]
1051:main.c        ****   {
 6025              		.loc 1 1051 0
 6026 0016 FFF7FEFF 		bl	HAL_TIM_Base_Init
 6027              	.LVL391:
 6028 001a 28BB     		cbnz	r0, .L437
1056:main.c        ****   if (HAL_TIM_ConfigClockSource(&htim3, &sClockSourceConfig) != HAL_OK)
 6029              		.loc 1 1056 0
 6030 001c 0EA9     		add	r1, sp, #56
 6031 001e 4FF48053 		mov	r3, #4096
 6032 0022 41F8103D 		str	r3, [r1, #-16]!
1057:main.c        ****   {
 6033              		.loc 1 1057 0
 6034 0026 1D48     		ldr	r0, .L442
 6035 0028 FFF7FEFF 		bl	HAL_TIM_ConfigClockSource
 6036              	.LVL392:
 6037 002c 08BB     		cbnz	r0, .L438
1062:main.c        ****   {
 6038              		.loc 1 1062 0
 6039 002e 1B48     		ldr	r0, .L442
 6040 0030 FFF7FEFF 		bl	HAL_TIM_PWM_Init
 6041              	.LVL393:
 6042 0034 10BB     		cbnz	r0, .L439
1067:main.c        ****   sMasterConfig.MasterSlaveMode = TIM_MASTERSLAVEMODE_DISABLE;
 6043              		.loc 1 1067 0
ARM GAS  C:\Users\lenovo\AppData\Local\Temp\ccfgRfuq.s 			page 161


 6044 0036 0023     		movs	r3, #0
 6045 0038 0793     		str	r3, [sp, #28]
1068:main.c        ****   if (HAL_TIMEx_MasterConfigSynchronization(&htim3, &sMasterConfig) != HAL_OK)
 6046              		.loc 1 1068 0
 6047 003a 0993     		str	r3, [sp, #36]
1069:main.c        ****   {
 6048              		.loc 1 1069 0
 6049 003c 07A9     		add	r1, sp, #28
 6050 003e 1748     		ldr	r0, .L442
 6051 0040 FFF7FEFF 		bl	HAL_TIMEx_MasterConfigSynchronization
 6052              	.LVL394:
 6053 0044 F8B9     		cbnz	r0, .L440
1074:main.c        ****   sConfigOC.Pulse = 0;
 6054              		.loc 1 1074 0
 6055 0046 6023     		movs	r3, #96
 6056 0048 0093     		str	r3, [sp]
1075:main.c        ****   sConfigOC.OCPolarity = TIM_OCPOLARITY_HIGH;
 6057              		.loc 1 1075 0
 6058 004a 0022     		movs	r2, #0
 6059 004c 0192     		str	r2, [sp, #4]
1076:main.c        ****   sConfigOC.OCFastMode = TIM_OCFAST_DISABLE;
 6060              		.loc 1 1076 0
 6061 004e 0292     		str	r2, [sp, #8]
1077:main.c        ****   if (HAL_TIM_PWM_ConfigChannel(&htim3, &sConfigOC, TIM_CHANNEL_1) != HAL_OK)
 6062              		.loc 1 1077 0
 6063 0050 0492     		str	r2, [sp, #16]
1078:main.c        ****   {
 6064              		.loc 1 1078 0
 6065 0052 6946     		mov	r1, sp
 6066 0054 1148     		ldr	r0, .L442
 6067 0056 FFF7FEFF 		bl	HAL_TIM_PWM_ConfigChannel
 6068              	.LVL395:
 6069 005a C8B9     		cbnz	r0, .L441
1083:main.c        **** 
 6070              		.loc 1 1083 0
 6071 005c 0F48     		ldr	r0, .L442
 6072 005e FFF7FEFF 		bl	HAL_TIM_MspPostInit
 6073              	.LVL396:
1085:main.c        **** 
 6074              		.loc 1 1085 0
 6075 0062 0FB0     		add	sp, sp, #60
 6076              	.LCFI78:
 6077              		.cfi_remember_state
 6078              		.cfi_def_cfa_offset 4
 6079              		@ sp needed
 6080 0064 5DF804FB 		ldr	pc, [sp], #4
 6081              	.L437:
 6082              	.LCFI79:
 6083              		.cfi_restore_state
1053:main.c        ****   }
 6084              		.loc 1 1053 0
 6085 0068 40F21D41 		movw	r1, #1053
 6086 006c 0D48     		ldr	r0, .L442+8
 6087 006e FFF7FEFF 		bl	_Error_Handler
 6088              	.LVL397:
 6089              	.L438:
1059:main.c        ****   }
ARM GAS  C:\Users\lenovo\AppData\Local\Temp\ccfgRfuq.s 			page 162


 6090              		.loc 1 1059 0
 6091 0072 40F22341 		movw	r1, #1059
 6092 0076 0B48     		ldr	r0, .L442+8
 6093 0078 FFF7FEFF 		bl	_Error_Handler
 6094              	.LVL398:
 6095              	.L439:
1064:main.c        ****   }
 6096              		.loc 1 1064 0
 6097 007c 4FF48561 		mov	r1, #1064
 6098 0080 0848     		ldr	r0, .L442+8
 6099 0082 FFF7FEFF 		bl	_Error_Handler
 6100              	.LVL399:
 6101              	.L440:
1071:main.c        ****   }
 6102              		.loc 1 1071 0
 6103 0086 40F22F41 		movw	r1, #1071
 6104 008a 0648     		ldr	r0, .L442+8
 6105 008c FFF7FEFF 		bl	_Error_Handler
 6106              	.LVL400:
 6107              	.L441:
1080:main.c        ****   }
 6108              		.loc 1 1080 0
 6109 0090 4FF48761 		mov	r1, #1080
 6110 0094 0348     		ldr	r0, .L442+8
 6111 0096 FFF7FEFF 		bl	_Error_Handler
 6112              	.LVL401:
 6113              	.L443:
 6114 009a 00BF     		.align	2
 6115              	.L442:
 6116 009c 00000000 		.word	htim3
 6117 00a0 00040040 		.word	1073742848
 6118 00a4 00000000 		.word	.LC25
 6119              		.cfi_endproc
 6120              	.LFE202:
 6122              		.section	.text.MX_TIM5_Init,"ax",%progbits
 6123              		.align	1
 6124              		.syntax unified
 6125              		.thumb
 6126              		.thumb_func
 6127              		.fpu fpv5-sp-d16
 6129              	MX_TIM5_Init:
 6130              	.LFB203:
1089:main.c        **** 
 6131              		.loc 1 1089 0
 6132              		.cfi_startproc
 6133              		@ args = 0, pretend = 0, frame = 56
 6134              		@ frame_needed = 0, uses_anonymous_args = 0
 6135 0000 00B5     		push	{lr}
 6136              	.LCFI80:
 6137              		.cfi_def_cfa_offset 4
 6138              		.cfi_offset 14, -4
 6139 0002 8FB0     		sub	sp, sp, #60
 6140              	.LCFI81:
 6141              		.cfi_def_cfa_offset 64
1095:main.c        ****   htim5.Init.Prescaler = 0;
 6142              		.loc 1 1095 0
 6143 0004 2548     		ldr	r0, .L456
ARM GAS  C:\Users\lenovo\AppData\Local\Temp\ccfgRfuq.s 			page 163


 6144 0006 264B     		ldr	r3, .L456+4
 6145 0008 0360     		str	r3, [r0]
1096:main.c        ****   htim5.Init.CounterMode = TIM_COUNTERMODE_UP;
 6146              		.loc 1 1096 0
 6147 000a 0023     		movs	r3, #0
 6148 000c 4360     		str	r3, [r0, #4]
1097:main.c        ****   htim5.Init.Period = 0;
 6149              		.loc 1 1097 0
 6150 000e 8360     		str	r3, [r0, #8]
1098:main.c        ****   htim5.Init.ClockDivision = TIM_CLOCKDIVISION_DIV1;
 6151              		.loc 1 1098 0
 6152 0010 C360     		str	r3, [r0, #12]
1099:main.c        ****   htim5.Init.AutoReloadPreload = TIM_AUTORELOAD_PRELOAD_DISABLE;
 6153              		.loc 1 1099 0
 6154 0012 0361     		str	r3, [r0, #16]
1100:main.c        ****   if (HAL_TIM_Base_Init(&htim5) != HAL_OK)
 6155              		.loc 1 1100 0
 6156 0014 8361     		str	r3, [r0, #24]
1101:main.c        ****   {
 6157              		.loc 1 1101 0
 6158 0016 FFF7FEFF 		bl	HAL_TIM_Base_Init
 6159              	.LVL402:
 6160 001a 30BB     		cbnz	r0, .L451
1106:main.c        ****   if (HAL_TIM_ConfigClockSource(&htim5, &sClockSourceConfig) != HAL_OK)
 6161              		.loc 1 1106 0
 6162 001c 0EA9     		add	r1, sp, #56
 6163 001e 4FF48053 		mov	r3, #4096
 6164 0022 41F8103D 		str	r3, [r1, #-16]!
1107:main.c        ****   {
 6165              		.loc 1 1107 0
 6166 0026 1D48     		ldr	r0, .L456
 6167 0028 FFF7FEFF 		bl	HAL_TIM_ConfigClockSource
 6168              	.LVL403:
 6169 002c 10BB     		cbnz	r0, .L452
1112:main.c        ****   {
 6170              		.loc 1 1112 0
 6171 002e 1B48     		ldr	r0, .L456
 6172 0030 FFF7FEFF 		bl	HAL_TIM_PWM_Init
 6173              	.LVL404:
 6174 0034 18BB     		cbnz	r0, .L453
1117:main.c        ****   sMasterConfig.MasterSlaveMode = TIM_MASTERSLAVEMODE_DISABLE;
 6175              		.loc 1 1117 0
 6176 0036 0023     		movs	r3, #0
 6177 0038 0793     		str	r3, [sp, #28]
1118:main.c        ****   if (HAL_TIMEx_MasterConfigSynchronization(&htim5, &sMasterConfig) != HAL_OK)
 6178              		.loc 1 1118 0
 6179 003a 0993     		str	r3, [sp, #36]
1119:main.c        ****   {
 6180              		.loc 1 1119 0
 6181 003c 07A9     		add	r1, sp, #28
 6182 003e 1748     		ldr	r0, .L456
 6183 0040 FFF7FEFF 		bl	HAL_TIMEx_MasterConfigSynchronization
 6184              	.LVL405:
 6185 0044 00BB     		cbnz	r0, .L454
1124:main.c        ****   sConfigOC.Pulse = 0;
 6186              		.loc 1 1124 0
 6187 0046 6023     		movs	r3, #96
ARM GAS  C:\Users\lenovo\AppData\Local\Temp\ccfgRfuq.s 			page 164


 6188 0048 0093     		str	r3, [sp]
1125:main.c        ****   sConfigOC.OCPolarity = TIM_OCPOLARITY_HIGH;
 6189              		.loc 1 1125 0
 6190 004a 0023     		movs	r3, #0
 6191 004c 0193     		str	r3, [sp, #4]
1126:main.c        ****   sConfigOC.OCFastMode = TIM_OCFAST_DISABLE;
 6192              		.loc 1 1126 0
 6193 004e 0293     		str	r3, [sp, #8]
1127:main.c        ****   if (HAL_TIM_PWM_ConfigChannel(&htim5, &sConfigOC, TIM_CHANNEL_4) != HAL_OK)
 6194              		.loc 1 1127 0
 6195 0050 0493     		str	r3, [sp, #16]
1128:main.c        ****   {
 6196              		.loc 1 1128 0
 6197 0052 0C22     		movs	r2, #12
 6198 0054 6946     		mov	r1, sp
 6199 0056 1148     		ldr	r0, .L456
 6200 0058 FFF7FEFF 		bl	HAL_TIM_PWM_ConfigChannel
 6201              	.LVL406:
 6202 005c C8B9     		cbnz	r0, .L455
1133:main.c        **** 
 6203              		.loc 1 1133 0
 6204 005e 0F48     		ldr	r0, .L456
 6205 0060 FFF7FEFF 		bl	HAL_TIM_MspPostInit
 6206              	.LVL407:
1135:main.c        **** 
 6207              		.loc 1 1135 0
 6208 0064 0FB0     		add	sp, sp, #60
 6209              	.LCFI82:
 6210              		.cfi_remember_state
 6211              		.cfi_def_cfa_offset 4
 6212              		@ sp needed
 6213 0066 5DF804FB 		ldr	pc, [sp], #4
 6214              	.L451:
 6215              	.LCFI83:
 6216              		.cfi_restore_state
1103:main.c        ****   }
 6217              		.loc 1 1103 0
 6218 006a 40F24F41 		movw	r1, #1103
 6219 006e 0D48     		ldr	r0, .L456+8
 6220 0070 FFF7FEFF 		bl	_Error_Handler
 6221              	.LVL408:
 6222              	.L452:
1109:main.c        ****   }
 6223              		.loc 1 1109 0
 6224 0074 40F25541 		movw	r1, #1109
 6225 0078 0A48     		ldr	r0, .L456+8
 6226 007a FFF7FEFF 		bl	_Error_Handler
 6227              	.LVL409:
 6228              	.L453:
1114:main.c        ****   }
 6229              		.loc 1 1114 0
 6230 007e 40F25A41 		movw	r1, #1114
 6231 0082 0848     		ldr	r0, .L456+8
 6232 0084 FFF7FEFF 		bl	_Error_Handler
 6233              	.LVL410:
 6234              	.L454:
1121:main.c        ****   }
ARM GAS  C:\Users\lenovo\AppData\Local\Temp\ccfgRfuq.s 			page 165


 6235              		.loc 1 1121 0
 6236 0088 40F26141 		movw	r1, #1121
 6237 008c 0548     		ldr	r0, .L456+8
 6238 008e FFF7FEFF 		bl	_Error_Handler
 6239              	.LVL411:
 6240              	.L455:
1130:main.c        ****   }
 6241              		.loc 1 1130 0
 6242 0092 40F26A41 		movw	r1, #1130
 6243 0096 0348     		ldr	r0, .L456+8
 6244 0098 FFF7FEFF 		bl	_Error_Handler
 6245              	.LVL412:
 6246              	.L457:
 6247              		.align	2
 6248              	.L456:
 6249 009c 00000000 		.word	htim5
 6250 00a0 000C0040 		.word	1073744896
 6251 00a4 00000000 		.word	.LC25
 6252              		.cfi_endproc
 6253              	.LFE203:
 6255              		.section	.text.MX_TIM8_Init,"ax",%progbits
 6256              		.align	1
 6257              		.syntax unified
 6258              		.thumb
 6259              		.thumb_func
 6260              		.fpu fpv5-sp-d16
 6262              	MX_TIM8_Init:
 6263              	.LFB205:
1164:main.c        **** 
 6264              		.loc 1 1164 0
 6265              		.cfi_startproc
 6266              		@ args = 0, pretend = 0, frame = 32
 6267              		@ frame_needed = 0, uses_anonymous_args = 0
 6268 0000 00B5     		push	{lr}
 6269              	.LCFI84:
 6270              		.cfi_def_cfa_offset 4
 6271              		.cfi_offset 14, -4
 6272 0002 89B0     		sub	sp, sp, #36
 6273              	.LCFI85:
 6274              		.cfi_def_cfa_offset 40
1169:main.c        ****   htim8.Init.Prescaler = 0;
 6275              		.loc 1 1169 0
 6276 0004 1848     		ldr	r0, .L466
 6277 0006 194B     		ldr	r3, .L466+4
 6278 0008 0360     		str	r3, [r0]
1170:main.c        ****   htim8.Init.CounterMode = TIM_COUNTERMODE_UP;
 6279              		.loc 1 1170 0
 6280 000a 0023     		movs	r3, #0
 6281 000c 4360     		str	r3, [r0, #4]
1171:main.c        ****   htim8.Init.Period = 0;
 6282              		.loc 1 1171 0
 6283 000e 8360     		str	r3, [r0, #8]
1172:main.c        ****   htim8.Init.ClockDivision = TIM_CLOCKDIVISION_DIV1;
 6284              		.loc 1 1172 0
 6285 0010 C360     		str	r3, [r0, #12]
1173:main.c        ****   htim8.Init.RepetitionCounter = 0;
 6286              		.loc 1 1173 0
ARM GAS  C:\Users\lenovo\AppData\Local\Temp\ccfgRfuq.s 			page 166


 6287 0012 0361     		str	r3, [r0, #16]
1174:main.c        ****   htim8.Init.AutoReloadPreload = TIM_AUTORELOAD_PRELOAD_DISABLE;
 6288              		.loc 1 1174 0
 6289 0014 4361     		str	r3, [r0, #20]
1175:main.c        ****   if (HAL_TIM_Base_Init(&htim8) != HAL_OK)
 6290              		.loc 1 1175 0
 6291 0016 8361     		str	r3, [r0, #24]
1176:main.c        ****   {
 6292              		.loc 1 1176 0
 6293 0018 FFF7FEFF 		bl	HAL_TIM_Base_Init
 6294              	.LVL413:
 6295 001c A0B9     		cbnz	r0, .L463
1181:main.c        ****   if (HAL_TIM_ConfigClockSource(&htim8, &sClockSourceConfig) != HAL_OK)
 6296              		.loc 1 1181 0
 6297 001e 08A9     		add	r1, sp, #32
 6298 0020 4FF48053 		mov	r3, #4096
 6299 0024 41F8103D 		str	r3, [r1, #-16]!
1182:main.c        ****   {
 6300              		.loc 1 1182 0
 6301 0028 0F48     		ldr	r0, .L466
 6302 002a FFF7FEFF 		bl	HAL_TIM_ConfigClockSource
 6303              	.LVL414:
 6304 002e 80B9     		cbnz	r0, .L464
1187:main.c        ****   sMasterConfig.MasterOutputTrigger2 = TIM_TRGO2_RESET;
 6305              		.loc 1 1187 0
 6306 0030 0023     		movs	r3, #0
 6307 0032 0193     		str	r3, [sp, #4]
1188:main.c        ****   sMasterConfig.MasterSlaveMode = TIM_MASTERSLAVEMODE_DISABLE;
 6308              		.loc 1 1188 0
 6309 0034 0293     		str	r3, [sp, #8]
1189:main.c        ****   if (HAL_TIMEx_MasterConfigSynchronization(&htim8, &sMasterConfig) != HAL_OK)
 6310              		.loc 1 1189 0
 6311 0036 0393     		str	r3, [sp, #12]
1190:main.c        ****   {
 6312              		.loc 1 1190 0
 6313 0038 01A9     		add	r1, sp, #4
 6314 003a 0B48     		ldr	r0, .L466
 6315 003c FFF7FEFF 		bl	HAL_TIMEx_MasterConfigSynchronization
 6316              	.LVL415:
 6317 0040 60B9     		cbnz	r0, .L465
1195:main.c        **** 
 6318              		.loc 1 1195 0
 6319 0042 09B0     		add	sp, sp, #36
 6320              	.LCFI86:
 6321              		.cfi_remember_state
 6322              		.cfi_def_cfa_offset 4
 6323              		@ sp needed
 6324 0044 5DF804FB 		ldr	pc, [sp], #4
 6325              	.L463:
 6326              	.LCFI87:
 6327              		.cfi_restore_state
1178:main.c        ****   }
 6328              		.loc 1 1178 0
 6329 0048 40F29A41 		movw	r1, #1178
 6330 004c 0848     		ldr	r0, .L466+8
 6331 004e FFF7FEFF 		bl	_Error_Handler
 6332              	.LVL416:
ARM GAS  C:\Users\lenovo\AppData\Local\Temp\ccfgRfuq.s 			page 167


 6333              	.L464:
1184:main.c        ****   }
 6334              		.loc 1 1184 0
 6335 0052 4FF49461 		mov	r1, #1184
 6336 0056 0648     		ldr	r0, .L466+8
 6337 0058 FFF7FEFF 		bl	_Error_Handler
 6338              	.LVL417:
 6339              	.L465:
1192:main.c        ****   }
 6340              		.loc 1 1192 0
 6341 005c 4FF49561 		mov	r1, #1192
 6342 0060 0348     		ldr	r0, .L466+8
 6343 0062 FFF7FEFF 		bl	_Error_Handler
 6344              	.LVL418:
 6345              	.L467:
 6346 0066 00BF     		.align	2
 6347              	.L466:
 6348 0068 00000000 		.word	htim8
 6349 006c 00040140 		.word	1073808384
 6350 0070 00000000 		.word	.LC25
 6351              		.cfi_endproc
 6352              	.LFE205:
 6354              		.section	.text.MX_TIM12_Init,"ax",%progbits
 6355              		.align	1
 6356              		.syntax unified
 6357              		.thumb
 6358              		.thumb_func
 6359              		.fpu fpv5-sp-d16
 6361              	MX_TIM12_Init:
 6362              	.LFB206:
1199:main.c        **** 
 6363              		.loc 1 1199 0
 6364              		.cfi_startproc
 6365              		@ args = 0, pretend = 0, frame = 32
 6366              		@ frame_needed = 0, uses_anonymous_args = 0
 6367 0000 00B5     		push	{lr}
 6368              	.LCFI88:
 6369              		.cfi_def_cfa_offset 4
 6370              		.cfi_offset 14, -4
 6371 0002 89B0     		sub	sp, sp, #36
 6372              	.LCFI89:
 6373              		.cfi_def_cfa_offset 40
1203:main.c        ****   htim12.Init.Prescaler = 0;
 6374              		.loc 1 1203 0
 6375 0004 1348     		ldr	r0, .L474
 6376 0006 144B     		ldr	r3, .L474+4
 6377 0008 0360     		str	r3, [r0]
1204:main.c        ****   htim12.Init.CounterMode = TIM_COUNTERMODE_UP;
 6378              		.loc 1 1204 0
 6379 000a 0023     		movs	r3, #0
 6380 000c 4360     		str	r3, [r0, #4]
1205:main.c        ****   htim12.Init.Period = 0;
 6381              		.loc 1 1205 0
 6382 000e 8360     		str	r3, [r0, #8]
1206:main.c        ****   htim12.Init.ClockDivision = TIM_CLOCKDIVISION_DIV1;
 6383              		.loc 1 1206 0
 6384 0010 C360     		str	r3, [r0, #12]
ARM GAS  C:\Users\lenovo\AppData\Local\Temp\ccfgRfuq.s 			page 168


1207:main.c        ****   htim12.Init.AutoReloadPreload = TIM_AUTORELOAD_PRELOAD_DISABLE;
 6385              		.loc 1 1207 0
 6386 0012 0361     		str	r3, [r0, #16]
1208:main.c        ****   if (HAL_TIM_PWM_Init(&htim12) != HAL_OK)
 6387              		.loc 1 1208 0
 6388 0014 8361     		str	r3, [r0, #24]
1209:main.c        ****   {
 6389              		.loc 1 1209 0
 6390 0016 FFF7FEFF 		bl	HAL_TIM_PWM_Init
 6391              	.LVL419:
 6392 001a 80B9     		cbnz	r0, .L472
1214:main.c        ****   sConfigOC.Pulse = 0;
 6393              		.loc 1 1214 0
 6394 001c 6023     		movs	r3, #96
 6395 001e 0193     		str	r3, [sp, #4]
1215:main.c        ****   sConfigOC.OCPolarity = TIM_OCPOLARITY_HIGH;
 6396              		.loc 1 1215 0
 6397 0020 0022     		movs	r2, #0
 6398 0022 0292     		str	r2, [sp, #8]
1216:main.c        ****   sConfigOC.OCFastMode = TIM_OCFAST_DISABLE;
 6399              		.loc 1 1216 0
 6400 0024 0392     		str	r2, [sp, #12]
1217:main.c        ****   if (HAL_TIM_PWM_ConfigChannel(&htim12, &sConfigOC, TIM_CHANNEL_1) != HAL_OK)
 6401              		.loc 1 1217 0
 6402 0026 0592     		str	r2, [sp, #20]
1218:main.c        ****   {
 6403              		.loc 1 1218 0
 6404 0028 01A9     		add	r1, sp, #4
 6405 002a 0A48     		ldr	r0, .L474
 6406 002c FFF7FEFF 		bl	HAL_TIM_PWM_ConfigChannel
 6407              	.LVL420:
 6408 0030 50B9     		cbnz	r0, .L473
1223:main.c        **** 
 6409              		.loc 1 1223 0
 6410 0032 0848     		ldr	r0, .L474
 6411 0034 FFF7FEFF 		bl	HAL_TIM_MspPostInit
 6412              	.LVL421:
1225:main.c        **** 
 6413              		.loc 1 1225 0
 6414 0038 09B0     		add	sp, sp, #36
 6415              	.LCFI90:
 6416              		.cfi_remember_state
 6417              		.cfi_def_cfa_offset 4
 6418              		@ sp needed
 6419 003a 5DF804FB 		ldr	pc, [sp], #4
 6420              	.L472:
 6421              	.LCFI91:
 6422              		.cfi_restore_state
1211:main.c        ****   }
 6423              		.loc 1 1211 0
 6424 003e 40F2BB41 		movw	r1, #1211
 6425 0042 0648     		ldr	r0, .L474+8
 6426 0044 FFF7FEFF 		bl	_Error_Handler
 6427              	.LVL422:
 6428              	.L473:
1220:main.c        ****   }
 6429              		.loc 1 1220 0
ARM GAS  C:\Users\lenovo\AppData\Local\Temp\ccfgRfuq.s 			page 169


 6430 0048 40F2C441 		movw	r1, #1220
 6431 004c 0348     		ldr	r0, .L474+8
 6432 004e FFF7FEFF 		bl	_Error_Handler
 6433              	.LVL423:
 6434              	.L475:
 6435 0052 00BF     		.align	2
 6436              	.L474:
 6437 0054 00000000 		.word	htim12
 6438 0058 00180040 		.word	1073747968
 6439 005c 00000000 		.word	.LC25
 6440              		.cfi_endproc
 6441              	.LFE206:
 6443              		.section	.text.MX_USART1_UART_Init,"ax",%progbits
 6444              		.align	1
 6445              		.syntax unified
 6446              		.thumb
 6447              		.thumb_func
 6448              		.fpu fpv5-sp-d16
 6450              	MX_USART1_UART_Init:
 6451              	.LFB207:
1229:main.c        **** 
 6452              		.loc 1 1229 0
 6453              		.cfi_startproc
 6454              		@ args = 0, pretend = 0, frame = 0
 6455              		@ frame_needed = 0, uses_anonymous_args = 0
 6456 0000 08B5     		push	{r3, lr}
 6457              	.LCFI92:
 6458              		.cfi_def_cfa_offset 8
 6459              		.cfi_offset 3, -8
 6460              		.cfi_offset 14, -4
1231:main.c        ****   huart1.Init.BaudRate = 115200;
 6461              		.loc 1 1231 0
 6462 0002 0C48     		ldr	r0, .L480
 6463 0004 0C4B     		ldr	r3, .L480+4
 6464 0006 0360     		str	r3, [r0]
1232:main.c        ****   huart1.Init.WordLength = UART_WORDLENGTH_8B;
 6465              		.loc 1 1232 0
 6466 0008 4FF4E133 		mov	r3, #115200
 6467 000c 4360     		str	r3, [r0, #4]
1233:main.c        ****   huart1.Init.StopBits = UART_STOPBITS_1;
 6468              		.loc 1 1233 0
 6469 000e 0023     		movs	r3, #0
 6470 0010 8360     		str	r3, [r0, #8]
1234:main.c        ****   huart1.Init.Parity = UART_PARITY_NONE;
 6471              		.loc 1 1234 0
 6472 0012 C360     		str	r3, [r0, #12]
1235:main.c        ****   huart1.Init.Mode = UART_MODE_TX_RX;
 6473              		.loc 1 1235 0
 6474 0014 0361     		str	r3, [r0, #16]
1236:main.c        ****   huart1.Init.HwFlowCtl = UART_HWCONTROL_NONE;
 6475              		.loc 1 1236 0
 6476 0016 0C22     		movs	r2, #12
 6477 0018 4261     		str	r2, [r0, #20]
1237:main.c        ****   huart1.Init.OverSampling = UART_OVERSAMPLING_16;
 6478              		.loc 1 1237 0
 6479 001a 8361     		str	r3, [r0, #24]
1238:main.c        ****   huart1.Init.OneBitSampling = UART_ONE_BIT_SAMPLE_DISABLE;
ARM GAS  C:\Users\lenovo\AppData\Local\Temp\ccfgRfuq.s 			page 170


 6480              		.loc 1 1238 0
 6481 001c C361     		str	r3, [r0, #28]
1239:main.c        ****   huart1.AdvancedInit.AdvFeatureInit = UART_ADVFEATURE_NO_INIT;
 6482              		.loc 1 1239 0
 6483 001e 0362     		str	r3, [r0, #32]
1240:main.c        ****   if (HAL_UART_Init(&huart1) != HAL_OK)
 6484              		.loc 1 1240 0
 6485 0020 4362     		str	r3, [r0, #36]
1241:main.c        ****   {
 6486              		.loc 1 1241 0
 6487 0022 FFF7FEFF 		bl	HAL_UART_Init
 6488              	.LVL424:
 6489 0026 00B9     		cbnz	r0, .L479
 6490 0028 08BD     		pop	{r3, pc}
 6491              	.L479:
1243:main.c        ****   }
 6492              		.loc 1 1243 0
 6493 002a 40F2DB41 		movw	r1, #1243
 6494 002e 0348     		ldr	r0, .L480+8
 6495 0030 FFF7FEFF 		bl	_Error_Handler
 6496              	.LVL425:
 6497              	.L481:
 6498              		.align	2
 6499              	.L480:
 6500 0034 00000000 		.word	huart1
 6501 0038 00100140 		.word	1073811456
 6502 003c 00000000 		.word	.LC25
 6503              		.cfi_endproc
 6504              	.LFE207:
 6506              		.section	.text.MX_USART6_UART_Init,"ax",%progbits
 6507              		.align	1
 6508              		.syntax unified
 6509              		.thumb
 6510              		.thumb_func
 6511              		.fpu fpv5-sp-d16
 6513              	MX_USART6_UART_Init:
 6514              	.LFB208:
1250:main.c        **** 
 6515              		.loc 1 1250 0
 6516              		.cfi_startproc
 6517              		@ args = 0, pretend = 0, frame = 0
 6518              		@ frame_needed = 0, uses_anonymous_args = 0
 6519 0000 08B5     		push	{r3, lr}
 6520              	.LCFI93:
 6521              		.cfi_def_cfa_offset 8
 6522              		.cfi_offset 3, -8
 6523              		.cfi_offset 14, -4
1252:main.c        ****   huart6.Init.BaudRate = 115200;
 6524              		.loc 1 1252 0
 6525 0002 0C48     		ldr	r0, .L486
 6526 0004 0C4B     		ldr	r3, .L486+4
 6527 0006 0360     		str	r3, [r0]
1253:main.c        ****   huart6.Init.WordLength = UART_WORDLENGTH_8B;
 6528              		.loc 1 1253 0
 6529 0008 4FF4E133 		mov	r3, #115200
 6530 000c 4360     		str	r3, [r0, #4]
1254:main.c        ****   huart6.Init.StopBits = UART_STOPBITS_1;
ARM GAS  C:\Users\lenovo\AppData\Local\Temp\ccfgRfuq.s 			page 171


 6531              		.loc 1 1254 0
 6532 000e 0023     		movs	r3, #0
 6533 0010 8360     		str	r3, [r0, #8]
1255:main.c        ****   huart6.Init.Parity = UART_PARITY_NONE;
 6534              		.loc 1 1255 0
 6535 0012 C360     		str	r3, [r0, #12]
1256:main.c        ****   huart6.Init.Mode = UART_MODE_TX_RX;
 6536              		.loc 1 1256 0
 6537 0014 0361     		str	r3, [r0, #16]
1257:main.c        ****   huart6.Init.HwFlowCtl = UART_HWCONTROL_NONE;
 6538              		.loc 1 1257 0
 6539 0016 0C22     		movs	r2, #12
 6540 0018 4261     		str	r2, [r0, #20]
1258:main.c        ****   huart6.Init.OverSampling = UART_OVERSAMPLING_16;
 6541              		.loc 1 1258 0
 6542 001a 8361     		str	r3, [r0, #24]
1259:main.c        ****   huart6.Init.OneBitSampling = UART_ONE_BIT_SAMPLE_DISABLE;
 6543              		.loc 1 1259 0
 6544 001c C361     		str	r3, [r0, #28]
1260:main.c        ****   huart6.AdvancedInit.AdvFeatureInit = UART_ADVFEATURE_NO_INIT;
 6545              		.loc 1 1260 0
 6546 001e 0362     		str	r3, [r0, #32]
1261:main.c        ****   if (HAL_UART_Init(&huart6) != HAL_OK)
 6547              		.loc 1 1261 0
 6548 0020 4362     		str	r3, [r0, #36]
1262:main.c        ****   {
 6549              		.loc 1 1262 0
 6550 0022 FFF7FEFF 		bl	HAL_UART_Init
 6551              	.LVL426:
 6552 0026 00B9     		cbnz	r0, .L485
 6553 0028 08BD     		pop	{r3, pc}
 6554              	.L485:
1264:main.c        ****   }
 6555              		.loc 1 1264 0
 6556 002a 4FF49E61 		mov	r1, #1264
 6557 002e 0348     		ldr	r0, .L486+8
 6558 0030 FFF7FEFF 		bl	_Error_Handler
 6559              	.LVL427:
 6560              	.L487:
 6561              		.align	2
 6562              	.L486:
 6563 0034 00000000 		.word	huart6
 6564 0038 00140140 		.word	1073812480
 6565 003c 00000000 		.word	.LC25
 6566              		.cfi_endproc
 6567              	.LFE208:
 6569              		.section	.text.MX_TIM7_Init,"ax",%progbits
 6570              		.align	1
 6571              		.syntax unified
 6572              		.thumb
 6573              		.thumb_func
 6574              		.fpu fpv5-sp-d16
 6576              	MX_TIM7_Init:
 6577              	.LFB204:
1139:main.c        **** 
 6578              		.loc 1 1139 0
 6579              		.cfi_startproc
ARM GAS  C:\Users\lenovo\AppData\Local\Temp\ccfgRfuq.s 			page 172


 6580              		@ args = 0, pretend = 0, frame = 16
 6581              		@ frame_needed = 0, uses_anonymous_args = 0
 6582 0000 00B5     		push	{lr}
 6583              	.LCFI94:
 6584              		.cfi_def_cfa_offset 4
 6585              		.cfi_offset 14, -4
 6586 0002 85B0     		sub	sp, sp, #20
 6587              	.LCFI95:
 6588              		.cfi_def_cfa_offset 24
1143:main.c        ****   htim7.Init.Prescaler = 0;
 6589              		.loc 1 1143 0
 6590 0004 0F48     		ldr	r0, .L494
 6591 0006 104B     		ldr	r3, .L494+4
 6592 0008 0360     		str	r3, [r0]
1144:main.c        ****   htim7.Init.CounterMode = TIM_COUNTERMODE_UP;
 6593              		.loc 1 1144 0
 6594 000a 0023     		movs	r3, #0
 6595 000c 4360     		str	r3, [r0, #4]
1145:main.c        ****   htim7.Init.Period = 0;
 6596              		.loc 1 1145 0
 6597 000e 8360     		str	r3, [r0, #8]
1146:main.c        ****   htim7.Init.AutoReloadPreload = TIM_AUTORELOAD_PRELOAD_DISABLE;
 6598              		.loc 1 1146 0
 6599 0010 C360     		str	r3, [r0, #12]
1147:main.c        ****   if (HAL_TIM_Base_Init(&htim7) != HAL_OK)
 6600              		.loc 1 1147 0
 6601 0012 8361     		str	r3, [r0, #24]
1148:main.c        ****   {
 6602              		.loc 1 1148 0
 6603 0014 FFF7FEFF 		bl	HAL_TIM_Base_Init
 6604              	.LVL428:
 6605 0018 50B9     		cbnz	r0, .L492
1153:main.c        ****   sMasterConfig.MasterSlaveMode = TIM_MASTERSLAVEMODE_DISABLE;
 6606              		.loc 1 1153 0
 6607 001a 0023     		movs	r3, #0
 6608 001c 0193     		str	r3, [sp, #4]
1154:main.c        ****   if (HAL_TIMEx_MasterConfigSynchronization(&htim7, &sMasterConfig) != HAL_OK)
 6609              		.loc 1 1154 0
 6610 001e 0393     		str	r3, [sp, #12]
1155:main.c        ****   {
 6611              		.loc 1 1155 0
 6612 0020 01A9     		add	r1, sp, #4
 6613 0022 0848     		ldr	r0, .L494
 6614 0024 FFF7FEFF 		bl	HAL_TIMEx_MasterConfigSynchronization
 6615              	.LVL429:
 6616 0028 38B9     		cbnz	r0, .L493
1160:main.c        **** 
 6617              		.loc 1 1160 0
 6618 002a 05B0     		add	sp, sp, #20
 6619              	.LCFI96:
 6620              		.cfi_remember_state
 6621              		.cfi_def_cfa_offset 4
 6622              		@ sp needed
 6623 002c 5DF804FB 		ldr	pc, [sp], #4
 6624              	.L492:
 6625              	.LCFI97:
 6626              		.cfi_restore_state
ARM GAS  C:\Users\lenovo\AppData\Local\Temp\ccfgRfuq.s 			page 173


1150:main.c        ****   }
 6627              		.loc 1 1150 0
 6628 0030 40F27E41 		movw	r1, #1150
 6629 0034 0548     		ldr	r0, .L494+8
 6630 0036 FFF7FEFF 		bl	_Error_Handler
 6631              	.LVL430:
 6632              	.L493:
1157:main.c        ****   }
 6633              		.loc 1 1157 0
 6634 003a 40F28541 		movw	r1, #1157
 6635 003e 0348     		ldr	r0, .L494+8
 6636 0040 FFF7FEFF 		bl	_Error_Handler
 6637              	.LVL431:
 6638              	.L495:
 6639              		.align	2
 6640              	.L494:
 6641 0044 00000000 		.word	htim7
 6642 0048 00140040 		.word	1073746944
 6643 004c 00000000 		.word	.LC25
 6644              		.cfi_endproc
 6645              	.LFE204:
 6647              		.section	.text.SystemClock_Config,"ax",%progbits
 6648              		.align	1
 6649              		.global	SystemClock_Config
 6650              		.syntax unified
 6651              		.thumb
 6652              		.thumb_func
 6653              		.fpu fpv5-sp-d16
 6655              	SystemClock_Config:
 6656              	.LFB186:
 374:main.c        **** 
 6657              		.loc 1 374 0
 6658              		.cfi_startproc
 6659              		@ args = 0, pretend = 0, frame = 208
 6660              		@ frame_needed = 0, uses_anonymous_args = 0
 6661 0000 00B5     		push	{lr}
 6662              	.LCFI98:
 6663              		.cfi_def_cfa_offset 4
 6664              		.cfi_offset 14, -4
 6665 0002 B5B0     		sub	sp, sp, #212
 6666              	.LCFI99:
 6667              		.cfi_def_cfa_offset 216
 6668              	.LBB45:
 382:main.c        **** 
 6669              		.loc 1 382 0
 6670 0004 474B     		ldr	r3, .L506
 6671 0006 1A6C     		ldr	r2, [r3, #64]
 6672 0008 42F08052 		orr	r2, r2, #268435456
 6673 000c 1A64     		str	r2, [r3, #64]
 6674 000e 1B6C     		ldr	r3, [r3, #64]
 6675 0010 03F08053 		and	r3, r3, #268435456
 6676 0014 0093     		str	r3, [sp]
 6677 0016 009B     		ldr	r3, [sp]
 6678              	.LBE45:
 6679              	.LBB46:
 384:main.c        **** 
 6680              		.loc 1 384 0
ARM GAS  C:\Users\lenovo\AppData\Local\Temp\ccfgRfuq.s 			page 174


 6681 0018 434B     		ldr	r3, .L506+4
 6682 001a 1A68     		ldr	r2, [r3]
 6683 001c 42F44042 		orr	r2, r2, #49152
 6684 0020 1A60     		str	r2, [r3]
 6685 0022 1B68     		ldr	r3, [r3]
 6686 0024 03F44043 		and	r3, r3, #49152
 6687 0028 0193     		str	r3, [sp, #4]
 6688 002a 019B     		ldr	r3, [sp, #4]
 6689              	.LBE46:
 388:main.c        ****   RCC_OscInitStruct.HSEState = RCC_HSE_ON;
 6690              		.loc 1 388 0
 6691 002c 0923     		movs	r3, #9
 6692 002e 2893     		str	r3, [sp, #160]
 389:main.c        ****   RCC_OscInitStruct.LSIState = RCC_LSI_ON;
 6693              		.loc 1 389 0
 6694 0030 4FF48033 		mov	r3, #65536
 6695 0034 2993     		str	r3, [sp, #164]
 390:main.c        ****   RCC_OscInitStruct.PLL.PLLState = RCC_PLL_ON;
 6696              		.loc 1 390 0
 6697 0036 0123     		movs	r3, #1
 6698 0038 2D93     		str	r3, [sp, #180]
 391:main.c        ****   RCC_OscInitStruct.PLL.PLLSource = RCC_PLLSOURCE_HSE;
 6699              		.loc 1 391 0
 6700 003a 0223     		movs	r3, #2
 6701 003c 2E93     		str	r3, [sp, #184]
 392:main.c        ****   RCC_OscInitStruct.PLL.PLLM = 25;
 6702              		.loc 1 392 0
 6703 003e 4FF48002 		mov	r2, #4194304
 6704 0042 2F92     		str	r2, [sp, #188]
 393:main.c        ****   RCC_OscInitStruct.PLL.PLLN = 400;
 6705              		.loc 1 393 0
 6706 0044 1922     		movs	r2, #25
 6707 0046 3092     		str	r2, [sp, #192]
 394:main.c        ****   RCC_OscInitStruct.PLL.PLLP = RCC_PLLP_DIV2;
 6708              		.loc 1 394 0
 6709 0048 4FF4C872 		mov	r2, #400
 6710 004c 3192     		str	r2, [sp, #196]
 395:main.c        ****   RCC_OscInitStruct.PLL.PLLQ = 8;
 6711              		.loc 1 395 0
 6712 004e 3293     		str	r3, [sp, #200]
 396:main.c        ****   if (HAL_RCC_OscConfig(&RCC_OscInitStruct) != HAL_OK)
 6713              		.loc 1 396 0
 6714 0050 0823     		movs	r3, #8
 6715 0052 3393     		str	r3, [sp, #204]
 397:main.c        ****   {
 6716              		.loc 1 397 0
 6717 0054 28A8     		add	r0, sp, #160
 6718 0056 FFF7FEFF 		bl	HAL_RCC_OscConfig
 6719              	.LVL432:
 6720 005a 0028     		cmp	r0, #0
 6721 005c 4ED1     		bne	.L502
 404:main.c        ****   {
 6722              		.loc 1 404 0
 6723 005e FFF7FEFF 		bl	HAL_PWREx_EnableOverDrive
 6724              	.LVL433:
 6725 0062 0028     		cmp	r0, #0
 6726 0064 4FD1     		bne	.L503
ARM GAS  C:\Users\lenovo\AppData\Local\Temp\ccfgRfuq.s 			page 175


 411:main.c        ****                               |RCC_CLOCKTYPE_PCLK1|RCC_CLOCKTYPE_PCLK2;
 6727              		.loc 1 411 0
 6728 0066 0F23     		movs	r3, #15
 6729 0068 2393     		str	r3, [sp, #140]
 413:main.c        ****   RCC_ClkInitStruct.AHBCLKDivider = RCC_SYSCLK_DIV1;
 6730              		.loc 1 413 0
 6731 006a 0223     		movs	r3, #2
 6732 006c 2493     		str	r3, [sp, #144]
 414:main.c        ****   RCC_ClkInitStruct.APB1CLKDivider = RCC_HCLK_DIV4;
 6733              		.loc 1 414 0
 6734 006e 0023     		movs	r3, #0
 6735 0070 2593     		str	r3, [sp, #148]
 415:main.c        ****   RCC_ClkInitStruct.APB2CLKDivider = RCC_HCLK_DIV2;
 6736              		.loc 1 415 0
 6737 0072 4FF4A053 		mov	r3, #5120
 6738 0076 2693     		str	r3, [sp, #152]
 416:main.c        **** 
 6739              		.loc 1 416 0
 6740 0078 4FF48053 		mov	r3, #4096
 6741 007c 2793     		str	r3, [sp, #156]
 418:main.c        ****   {
 6742              		.loc 1 418 0
 6743 007e 0621     		movs	r1, #6
 6744 0080 23A8     		add	r0, sp, #140
 6745 0082 FFF7FEFF 		bl	HAL_RCC_ClockConfig
 6746              	.LVL434:
 6747 0086 0028     		cmp	r0, #0
 6748 0088 42D1     		bne	.L504
 423:main.c        ****                               |RCC_PERIPHCLK_RTC|RCC_PERIPHCLK_USART1
 6749              		.loc 1 423 0
 6750 008a 284B     		ldr	r3, .L506+8
 6751 008c 0293     		str	r3, [sp, #8]
 428:main.c        ****   PeriphClkInitStruct.PLLI2S.PLLI2SP = RCC_PLLP_DIV2;
 6752              		.loc 1 428 0
 6753 008e 6423     		movs	r3, #100
 6754 0090 0393     		str	r3, [sp, #12]
 429:main.c        ****   PeriphClkInitStruct.PLLI2S.PLLI2SR = 2;
 6755              		.loc 1 429 0
 6756 0092 0223     		movs	r3, #2
 6757 0094 0693     		str	r3, [sp, #24]
 430:main.c        ****   PeriphClkInitStruct.PLLI2S.PLLI2SQ = 2;
 6758              		.loc 1 430 0
 6759 0096 0493     		str	r3, [sp, #16]
 431:main.c        ****   PeriphClkInitStruct.PLLSAI.PLLSAIN = 192;
 6760              		.loc 1 431 0
 6761 0098 0593     		str	r3, [sp, #20]
 432:main.c        ****   PeriphClkInitStruct.PLLSAI.PLLSAIR = 4;
 6762              		.loc 1 432 0
 6763 009a C023     		movs	r3, #192
 6764 009c 0793     		str	r3, [sp, #28]
 433:main.c        ****   PeriphClkInitStruct.PLLSAI.PLLSAIQ = 4;
 6765              		.loc 1 433 0
 6766 009e 0423     		movs	r3, #4
 6767 00a0 0993     		str	r3, [sp, #36]
 434:main.c        ****   PeriphClkInitStruct.PLLSAI.PLLSAIP = RCC_PLLSAIP_DIV4;
 6768              		.loc 1 434 0
 6769 00a2 0893     		str	r3, [sp, #32]
ARM GAS  C:\Users\lenovo\AppData\Local\Temp\ccfgRfuq.s 			page 176


 435:main.c        ****   PeriphClkInitStruct.PLLI2SDivQ = 1;
 6770              		.loc 1 435 0
 6771 00a4 0123     		movs	r3, #1
 6772 00a6 0A93     		str	r3, [sp, #40]
 436:main.c        ****   PeriphClkInitStruct.PLLSAIDivQ = 1;
 6773              		.loc 1 436 0
 6774 00a8 0B93     		str	r3, [sp, #44]
 437:main.c        ****   PeriphClkInitStruct.PLLSAIDivR = RCC_PLLSAIDIVR_8;
 6775              		.loc 1 437 0
 6776 00aa 0C93     		str	r3, [sp, #48]
 438:main.c        ****   PeriphClkInitStruct.RTCClockSelection = RCC_RTCCLKSOURCE_LSI;
 6777              		.loc 1 438 0
 6778 00ac 4FF40033 		mov	r3, #131072
 6779 00b0 0D93     		str	r3, [sp, #52]
 439:main.c        ****   PeriphClkInitStruct.Sai2ClockSelection = RCC_SAI2CLKSOURCE_PLLSAI;
 6780              		.loc 1 439 0
 6781 00b2 4FF40073 		mov	r3, #512
 6782 00b6 0E93     		str	r3, [sp, #56]
 440:main.c        ****   PeriphClkInitStruct.Usart1ClockSelection = RCC_USART1CLKSOURCE_PCLK2;
 6783              		.loc 1 440 0
 6784 00b8 0023     		movs	r3, #0
 6785 00ba 1293     		str	r3, [sp, #72]
 441:main.c        ****   PeriphClkInitStruct.Usart6ClockSelection = RCC_USART6CLKSOURCE_PCLK2;
 6786              		.loc 1 441 0
 6787 00bc 1393     		str	r3, [sp, #76]
 442:main.c        ****   PeriphClkInitStruct.I2c1ClockSelection = RCC_I2C1CLKSOURCE_PCLK1;
 6788              		.loc 1 442 0
 6789 00be 1893     		str	r3, [sp, #96]
 443:main.c        ****   PeriphClkInitStruct.I2c3ClockSelection = RCC_I2C3CLKSOURCE_PCLK1;
 6790              		.loc 1 443 0
 6791 00c0 1B93     		str	r3, [sp, #108]
 444:main.c        ****   PeriphClkInitStruct.Clk48ClockSelection = RCC_CLK48SOURCE_PLLSAIP;
 6792              		.loc 1 444 0
 6793 00c2 1D93     		str	r3, [sp, #116]
 445:main.c        ****   PeriphClkInitStruct.Sdmmc1ClockSelection = RCC_SDMMC1CLKSOURCE_CLK48;
 6794              		.loc 1 445 0
 6795 00c4 4FF00062 		mov	r2, #134217728
 6796 00c8 2192     		str	r2, [sp, #132]
 446:main.c        ****   if (HAL_RCCEx_PeriphCLKConfig(&PeriphClkInitStruct) != HAL_OK)
 6797              		.loc 1 446 0
 6798 00ca 2293     		str	r3, [sp, #136]
 447:main.c        ****   {
 6799              		.loc 1 447 0
 6800 00cc 02A8     		add	r0, sp, #8
 6801 00ce FFF7FEFF 		bl	HAL_RCCEx_PeriphCLKConfig
 6802              	.LVL435:
 6803 00d2 10BB     		cbnz	r0, .L505
 454:main.c        **** 
 6804              		.loc 1 454 0
 6805 00d4 FFF7FEFF 		bl	HAL_RCC_GetHCLKFreq
 6806              	.LVL436:
 6807 00d8 154B     		ldr	r3, .L506+12
 6808 00da A3FB0030 		umull	r3, r0, r3, r0
 6809 00de 8009     		lsrs	r0, r0, #6
 6810 00e0 FFF7FEFF 		bl	HAL_SYSTICK_Config
 6811              	.LVL437:
 458:main.c        **** 
ARM GAS  C:\Users\lenovo\AppData\Local\Temp\ccfgRfuq.s 			page 177


 6812              		.loc 1 458 0
 6813 00e4 0420     		movs	r0, #4
 6814 00e6 FFF7FEFF 		bl	HAL_SYSTICK_CLKSourceConfig
 6815              	.LVL438:
 461:main.c        **** }
 6816              		.loc 1 461 0
 6817 00ea 0022     		movs	r2, #0
 6818 00ec 0F21     		movs	r1, #15
 6819 00ee 4FF0FF30 		mov	r0, #-1
 6820 00f2 FFF7FEFF 		bl	HAL_NVIC_SetPriority
 6821              	.LVL439:
 462:main.c        **** 
 6822              		.loc 1 462 0
 6823 00f6 35B0     		add	sp, sp, #212
 6824              	.LCFI100:
 6825              		.cfi_remember_state
 6826              		.cfi_def_cfa_offset 4
 6827              		@ sp needed
 6828 00f8 5DF804FB 		ldr	pc, [sp], #4
 6829              	.L502:
 6830              	.LCFI101:
 6831              		.cfi_restore_state
 399:main.c        ****   }
 6832              		.loc 1 399 0
 6833 00fc 40F28F11 		movw	r1, #399
 6834 0100 0C48     		ldr	r0, .L506+16
 6835 0102 FFF7FEFF 		bl	_Error_Handler
 6836              	.LVL440:
 6837              	.L503:
 406:main.c        ****   }
 6838              		.loc 1 406 0
 6839 0106 4FF4CB71 		mov	r1, #406
 6840 010a 0A48     		ldr	r0, .L506+16
 6841 010c FFF7FEFF 		bl	_Error_Handler
 6842              	.LVL441:
 6843              	.L504:
 420:main.c        ****   }
 6844              		.loc 1 420 0
 6845 0110 4FF4D271 		mov	r1, #420
 6846 0114 0748     		ldr	r0, .L506+16
 6847 0116 FFF7FEFF 		bl	_Error_Handler
 6848              	.LVL442:
 6849              	.L505:
 449:main.c        ****   }
 6850              		.loc 1 449 0
 6851 011a 40F2C111 		movw	r1, #449
 6852 011e 0548     		ldr	r0, .L506+16
 6853 0120 FFF7FEFF 		bl	_Error_Handler
 6854              	.LVL443:
 6855              	.L507:
 6856              		.align	2
 6857              	.L506:
 6858 0124 00380240 		.word	1073887232
 6859 0128 00700040 		.word	1073770496
 6860 012c 6848B101 		.word	28395624
 6861 0130 D34D6210 		.word	274877907
 6862 0134 00000000 		.word	.LC25
ARM GAS  C:\Users\lenovo\AppData\Local\Temp\ccfgRfuq.s 			page 178


 6863              		.cfi_endproc
 6864              	.LFE186:
 6866              		.section	.text.main,"ax",%progbits
 6867              		.align	1
 6868              		.global	main
 6869              		.syntax unified
 6870              		.thumb
 6871              		.thumb_func
 6872              		.fpu fpv5-sp-d16
 6874              	main:
 6875              	.LFB185:
 264:main.c        ****   /* USER CODE BEGIN 1 */
 6876              		.loc 1 264 0
 6877              		.cfi_startproc
 6878              		@ Volatile: function does not return.
 6879              		@ args = 0, pretend = 0, frame = 24
 6880              		@ frame_needed = 0, uses_anonymous_args = 0
 6881 0000 00B5     		push	{lr}
 6882              	.LCFI102:
 6883              		.cfi_def_cfa_offset 4
 6884              		.cfi_offset 14, -4
 6885 0002 87B0     		sub	sp, sp, #28
 6886              	.LCFI103:
 6887              		.cfi_def_cfa_offset 32
 272:main.c        **** 
 6888              		.loc 1 272 0
 6889 0004 FFF7FEFF 		bl	HAL_Init
 6890              	.LVL444:
 279:main.c        **** 
 6891              		.loc 1 279 0
 6892 0008 FFF7FEFF 		bl	SystemClock_Config
 6893              	.LVL445:
 286:main.c        ****   MX_ADC3_Init();
 6894              		.loc 1 286 0
 6895 000c FFF7FEFF 		bl	MX_GPIO_Init
 6896              	.LVL446:
 287:main.c        ****   MX_CRC_Init();
 6897              		.loc 1 287 0
 6898 0010 FFF7FEFF 		bl	MX_ADC3_Init
 6899              	.LVL447:
 288:main.c        ****   MX_DCMI_Init();
 6900              		.loc 1 288 0
 6901 0014 FFF7FEFF 		bl	MX_CRC_Init
 6902              	.LVL448:
 289:main.c        ****   MX_DMA2D_Init();
 6903              		.loc 1 289 0
 6904 0018 FFF7FEFF 		bl	MX_DCMI_Init
 6905              	.LVL449:
 290:main.c        ****   MX_FMC_Init();
 6906              		.loc 1 290 0
 6907 001c FFF7FEFF 		bl	MX_DMA2D_Init
 6908              	.LVL450:
 291:main.c        ****   MX_I2C1_Init();
 6909              		.loc 1 291 0
 6910 0020 FFF7FEFF 		bl	MX_FMC_Init
 6911              	.LVL451:
 292:main.c        ****   MX_I2C3_Init();
ARM GAS  C:\Users\lenovo\AppData\Local\Temp\ccfgRfuq.s 			page 179


 6912              		.loc 1 292 0
 6913 0024 FFF7FEFF 		bl	MX_I2C1_Init
 6914              	.LVL452:
 293:main.c        ****   MX_LTDC_Init();
 6915              		.loc 1 293 0
 6916 0028 FFF7FEFF 		bl	MX_I2C3_Init
 6917              	.LVL453:
 294:main.c        ****   MX_QUADSPI_Init();
 6918              		.loc 1 294 0
 6919 002c FFF7FEFF 		bl	MX_LTDC_Init
 6920              	.LVL454:
 295:main.c        ****   MX_RTC_Init();
 6921              		.loc 1 295 0
 6922 0030 FFF7FEFF 		bl	MX_QUADSPI_Init
 6923              	.LVL455:
 296:main.c        ****   MX_SAI2_Init();
 6924              		.loc 1 296 0
 6925 0034 FFF7FEFF 		bl	MX_RTC_Init
 6926              	.LVL456:
 297:main.c        ****   MX_SDMMC1_SD_Init();
 6927              		.loc 1 297 0
 6928 0038 FFF7FEFF 		bl	MX_SAI2_Init
 6929              	.LVL457:
 298:main.c        ****   MX_SPDIFRX_Init();
 6930              		.loc 1 298 0
 6931 003c FFF7FEFF 		bl	MX_SDMMC1_SD_Init
 6932              	.LVL458:
 299:main.c        ****   MX_SPI2_Init();
 6933              		.loc 1 299 0
 6934 0040 FFF7FEFF 		bl	MX_SPDIFRX_Init
 6935              	.LVL459:
 300:main.c        ****   MX_TIM1_Init();
 6936              		.loc 1 300 0
 6937 0044 FFF7FEFF 		bl	MX_SPI2_Init
 6938              	.LVL460:
 301:main.c        ****   MX_TIM2_Init();
 6939              		.loc 1 301 0
 6940 0048 FFF7FEFF 		bl	MX_TIM1_Init
 6941              	.LVL461:
 302:main.c        ****   MX_TIM3_Init();
 6942              		.loc 1 302 0
 6943 004c FFF7FEFF 		bl	MX_TIM2_Init
 6944              	.LVL462:
 303:main.c        ****   MX_TIM5_Init();
 6945              		.loc 1 303 0
 6946 0050 FFF7FEFF 		bl	MX_TIM3_Init
 6947              	.LVL463:
 304:main.c        ****   MX_TIM8_Init();
 6948              		.loc 1 304 0
 6949 0054 FFF7FEFF 		bl	MX_TIM5_Init
 6950              	.LVL464:
 305:main.c        ****   MX_TIM12_Init();
 6951              		.loc 1 305 0
 6952 0058 FFF7FEFF 		bl	MX_TIM8_Init
 6953              	.LVL465:
 306:main.c        ****   MX_USART1_UART_Init();
 6954              		.loc 1 306 0
ARM GAS  C:\Users\lenovo\AppData\Local\Temp\ccfgRfuq.s 			page 180


 6955 005c FFF7FEFF 		bl	MX_TIM12_Init
 6956              	.LVL466:
 307:main.c        ****   MX_USART6_UART_Init();
 6957              		.loc 1 307 0
 6958 0060 FFF7FEFF 		bl	MX_USART1_UART_Init
 6959              	.LVL467:
 308:main.c        ****   MX_TIM7_Init();
 6960              		.loc 1 308 0
 6961 0064 FFF7FEFF 		bl	MX_USART6_UART_Init
 6962              	.LVL468:
 309:main.c        ****   /* USER CODE BEGIN 2 */
 6963              		.loc 1 309 0
 6964 0068 FFF7FEFF 		bl	MX_TIM7_Init
 6965              	.LVL469:
 311:main.c        **** 
 6966              		.loc 1 311 0
 6967 006c 0D48     		ldr	r0, .L511
 6968 006e FFF7FEFF 		bl	debug_init
 6969              	.LVL470:
 313:main.c        **** 
 6970              		.loc 1 313 0
 6971 0072 0D48     		ldr	r0, .L511+4
 6972 0074 FFF7FEFF 		bl	xprintf
 6973              	.LVL471:
 315:main.c        **** 
 6974              		.loc 1 315 0
 6975 0078 0C48     		ldr	r0, .L511+8
 6976 007a FFF7FEFF 		bl	puts
 6977              	.LVL472:
 317:main.c        **** //draw_background();
 6978              		.loc 1 317 0
 6979 007e FFF7FEFF 		bl	lcd_start
 6980              	.LVL473:
 319:main.c        **** 
 6981              		.loc 1 319 0
 6982 0082 FFF7FEFF 		bl	initialize_touchscreen
 6983              	.LVL474:
 337:main.c        ****   defaultTaskHandle = osThreadCreate(osThread(defaultTask), NULL);
 6984              		.loc 1 337 0
 6985 0086 01AC     		add	r4, sp, #4
 6986 0088 094D     		ldr	r5, .L511+12
 6987 008a 0FCD     		ldmia	r5!, {r0, r1, r2, r3}
 6988 008c 0FC4     		stmia	r4!, {r0, r1, r2, r3}
 6989 008e 2B68     		ldr	r3, [r5]
 6990 0090 2360     		str	r3, [r4]
 338:main.c        **** 
 6991              		.loc 1 338 0
 6992 0092 0021     		movs	r1, #0
 6993 0094 01A8     		add	r0, sp, #4
 6994 0096 FFF7FEFF 		bl	osThreadCreate
 6995              	.LVL475:
 6996 009a 064B     		ldr	r3, .L511+16
 6997 009c 1860     		str	r0, [r3]
 350:main.c        ****   
 6998              		.loc 1 350 0
 6999 009e FFF7FEFF 		bl	osKernelStart
 7000              	.LVL476:
ARM GAS  C:\Users\lenovo\AppData\Local\Temp\ccfgRfuq.s 			page 181


 7001              	.L509:
 7002 00a2 FEE7     		b	.L509
 7003              	.L512:
 7004              		.align	2
 7005              	.L511:
 7006 00a4 00000000 		.word	huart1
 7007 00a8 00000000 		.word	.LC26
 7008 00ac 2C000000 		.word	.LC27
 7009 00b0 14000000 		.word	.LANCHOR4+20
 7010 00b4 00000000 		.word	defaultTaskHandle
 7011              		.cfi_endproc
 7012              	.LFE185:
 7014              		.comm	buff,8192,4
 7015              		.comm	netconn_thread_handle,4,4
 7016              		.comm	tableTaskHandle,4,4
 7017              		.comm	defaultTaskHandle,4,4
 7018              		.comm	hsdram1,52,4
 7019              		.comm	huart6,112,4
 7020              		.comm	huart1,112,4
 7021              		.comm	htim12,64,4
 7022              		.comm	htim8,64,4
 7023              		.comm	htim7,64,4
 7024              		.comm	htim5,64,4
 7025              		.comm	htim3,64,4
 7026              		.comm	htim2,64,4
 7027              		.comm	htim1,64,4
 7028              		.comm	hspi2,100,4
 7029              		.comm	hspdif,76,4
 7030              		.comm	hsd1,132,4
 7031              		.comm	hsai_BlockB2,132,4
 7032              		.comm	hsai_BlockA2,132,4
 7033              		.comm	hrtc,32,4
 7034              		.comm	hqspi,76,4
 7035              		.comm	hltdc,168,4
 7036              		.comm	hi2c3,76,4
 7037              		.comm	hi2c1,76,4
 7038              		.comm	hdma2d,64,4
 7039              		.comm	hdcmi,80,4
 7040              		.comm	hcrc,36,4
 7041              		.comm	hadc3,72,4
 7042              		.global	stopped
 7043              		.global	drawing_state
 7044              		.global	state_changed
 7045              		.global	state
 7046              		.global	delay
 7047              		.global	table
 7048              		.section	.rodata
 7049              		.align	2
 7050              		.set	.LANCHOR4,. + 0
 7051              	.LC5:
 7052 0000 00000000 		.word	.LC2
 7053 0004 00000000 		.word	StartTableTask
 7054 0008 0000     		.short	0
 7055 000a 0000     		.space	2
 7056 000c 00000000 		.word	0
 7057 0010 00040000 		.word	1024
 7058              	.LC28:
ARM GAS  C:\Users\lenovo\AppData\Local\Temp\ccfgRfuq.s 			page 182


 7059 0014 0C000000 		.word	.LC0
 7060 0018 00000000 		.word	StartDefaultTask
 7061 001c 0000     		.short	0
 7062 001e 0000     		.space	2
 7063 0020 00000000 		.word	0
 7064 0024 00100000 		.word	4096
 7065              		.section	.bss.TS_State,"aw",%nobits
 7066              		.align	2
 7067              		.set	.LANCHOR5,. + 0
 7070              	TS_State:
 7071 0000 00000000 		.space	44
 7071      00000000 
 7071      00000000 
 7071      00000000 
 7071      00000000 
 7072              		.section	.bss.drawing_state,"aw",%nobits
 7073              		.align	2
 7074              		.set	.LANCHOR6,. + 0
 7077              	drawing_state:
 7078 0000 00000000 		.space	4
 7079              		.section	.bss.state,"aw",%nobits
 7080              		.align	2
 7081              		.set	.LANCHOR8,. + 0
 7084              	state:
 7085 0000 00000000 		.space	4
 7086              		.section	.bss.state_changed,"aw",%nobits
 7087              		.align	2
 7088              		.set	.LANCHOR9,. + 0
 7091              	state_changed:
 7092 0000 00000000 		.space	4
 7093              		.section	.bss.table,"aw",%nobits
 7094              		.align	2
 7095              		.set	.LANCHOR2,. + 0
 7098              	table:
 7099 0000 00000000 		.space	2916
 7099      00000000 
 7099      00000000 
 7099      00000000 
 7099      00000000 
 7100              		.section	.data.delay,"aw",%progbits
 7101              		.align	2
 7102              		.set	.LANCHOR3,. + 0
 7105              	delay:
 7106 0000 64000000 		.word	100
 7107              		.section	.data.stopped,"aw",%progbits
 7108              		.align	2
 7109              		.set	.LANCHOR7,. + 0
 7112              	stopped:
 7113 0000 01000000 		.word	1
 7114              		.section	.rodata.MX_ADC3_Init.str1.4,"aMS",%progbits,1
 7115              		.align	2
 7116              	.LC25:
 7117 0000 6D61696E 		.ascii	"main.c\000"
 7117      2E6300
 7118              		.section	.rodata.StartDefaultTask.str1.4,"aMS",%progbits,1
 7119              		.align	2
 7120              	.LC6:
ARM GAS  C:\Users\lenovo\AppData\Local\Temp\ccfgRfuq.s 			page 183


 7121 0000 25752000 		.ascii	"%u \000"
 7122              	.LC7:
 7123 0004 25750A00 		.ascii	"%u\012\000"
 7124              		.section	.rodata.draw_drawingbackground.str1.4,"aMS",%progbits,1
 7125              		.align	2
 7126              	.LC24:
 7127 0000 44656C61 		.ascii	"Delay: %d\000"
 7127      793A2025 
 7127      6400
 7128              		.section	.rodata.init_background.str1.4,"aMS",%progbits,1
 7129              		.align	2
 7130              	.LC8:
 7131 0000 50756C73 		.ascii	"Pulsar\000"
 7131      617200
 7132 0007 00       		.space	1
 7133              	.LC9:
 7134 0008 45766F6C 		.ascii	"Evolution\000"
 7134      7574696F 
 7134      6E00
 7135 0012 0000     		.space	2
 7136              	.LC10:
 7137 0014 466F756E 		.ascii	"Fountain\000"
 7137      7461696E 
 7137      00
 7138 001d 000000   		.space	3
 7139              	.LC11:
 7140 0020 43726F63 		.ascii	"Crocodile\000"
 7140      6F64696C 
 7140      6500
 7141 002a 0000     		.space	2
 7142              	.LC12:
 7143 002c 4E455854 		.ascii	"NEXT\000"
 7143      00
 7144 0031 000000   		.space	3
 7145              	.LC13:
 7146 0034 48657274 		.ascii	"Hertz\000"
 7146      7A00
 7147 003a 0000     		.space	2
 7148              	.LC14:
 7149 003c 436F7070 		.ascii	"Copperhead\000"
 7149      65726865 
 7149      616400
 7150 0047 00       		.space	1
 7151              	.LC15:
 7152 0048 45696768 		.ascii	"Eight\000"
 7152      7400
 7153 004e 0000     		.space	2
 7154              	.LC16:
 7155 0050 51756565 		.ascii	"QueenBee\000"
 7155      6E426565 
 7155      00
 7156 0059 000000   		.space	3
 7157              	.LC17:
 7158 005c 50524556 		.ascii	"PREV\000"
 7158      00
 7159 0061 000000   		.space	3
 7160              	.LC18:
ARM GAS  C:\Users\lenovo\AppData\Local\Temp\ccfgRfuq.s 			page 184


 7161 0064 4C575353 		.ascii	"LWSS\000"
 7161      00
 7162 0069 000000   		.space	3
 7163              	.LC19:
 7164 006c 436C6F76 		.ascii	"Cloverleaf\000"
 7164      65726C65 
 7164      616600
 7165 0077 00       		.space	1
 7166              	.LC20:
 7167 0078 42656163 		.ascii	"Beacon\000"
 7167      6F6E00
 7168 007f 00       		.space	1
 7169              	.LC21:
 7170 0080 47616D65 		.ascii	"GameOfLife\000"
 7170      4F664C69 
 7170      666500
 7171 008b 00       		.space	1
 7172              	.LC22:
 7173 008c 44524157 		.ascii	"DRAW\000"
 7173      00
 7174              		.section	.rodata.init_drawingbackground.str1.4,"aMS",%progbits,1
 7175              		.align	2
 7176              	.LC23:
 7177 0000 444F4E45 		.ascii	"DONE\000"
 7177      00
 7178              		.section	.rodata.main.str1.4,"aMS",%progbits,1
 7179              		.align	2
 7180              	.LC26:
 7181 0000 1B5B303B 		.ascii	"\033[0;32mSTM32F746 Discovery Project\033[0;39m\012"
 7181      33326D53 
 7181      544D3332 
 7181      46373436 
 7181      20446973 
 7182 002a 00       		.ascii	"\000"
 7183 002b 00       		.space	1
 7184              	.LC27:
 7185 002c 52656775 		.ascii	"Regular printf\000"
 7185      6C617220 
 7185      7072696E 
 7185      746600
 7186              		.section	.rodata.str1.4,"aMS",%progbits,1
 7187              		.align	2
 7188              	.LC2:
 7189 0000 7461626C 		.ascii	"tableTask\000"
 7189      65546173 
 7189      6B00
 7190 000a 0000     		.space	2
 7191              	.LC0:
 7192 000c 64656661 		.ascii	"defaultTask\000"
 7192      756C7454 
 7192      61736B00 
 7193              		.section	.rodata.xprintfTable.str1.4,"aMS",%progbits,1
 7194              		.align	2
 7195              	.LC4:
 7196 0000 4E6F7420 		.ascii	"Not 0: %d %d\000"
 7196      303A2025 
 7196      64202564 
ARM GAS  C:\Users\lenovo\AppData\Local\Temp\ccfgRfuq.s 			page 185


 7196      00
 7197              		.section	.sdram,"aw",%progbits
 7198              		.align	2
 7199              		.set	.LANCHOR0,. + 0
 7200              		.set	.LANCHOR1,. + 521280
 7203              	lcd_image_bg:
 7204 0000 00000000 		.space	522240
 7204      00000000 
 7204      00000000 
 7204      00000000 
 7204      00000000 
 7207              	lcd_image_fg:
 7208 7f800 00000000 		.space	522240
 7208      00000000 
 7208      00000000 
 7208      00000000 
 7208      00000000 
 7209              		.text
 7210              	.Letext0:
 7211              		.file 5 "c:\\gcc_toolchain\\6_2017-q1-update\\arm-none-eabi\\include\\machine\\_default_types.h"
 7212              		.file 6 "c:\\gcc_toolchain\\6_2017-q1-update\\arm-none-eabi\\include\\sys\\_stdint.h"
 7213              		.file 7 "Drivers/CMSIS/Include/core_cm7.h"
 7214              		.file 8 "Drivers/CMSIS/Device/ST/STM32F7xx/Include/system_stm32f7xx.h"
 7215              		.file 9 "Drivers/CMSIS/Device/ST/STM32F7xx/Include/stm32f746xx.h"
 7216              		.file 10 "Drivers/CMSIS/Device/ST/STM32F7xx/Include/stm32f7xx.h"
 7217              		.file 11 "c:\\gcc_toolchain\\6_2017-q1-update\\arm-none-eabi\\include\\sys\\lock.h"
 7218              		.file 12 "c:\\gcc_toolchain\\6_2017-q1-update\\arm-none-eabi\\include\\sys\\_types.h"
 7219              		.file 13 "c:\\gcc_toolchain\\6_2017-q1-update\\lib\\gcc\\arm-none-eabi\\6.3.1\\include\\stddef.h"
 7220              		.file 14 "c:\\gcc_toolchain\\6_2017-q1-update\\arm-none-eabi\\include\\sys\\reent.h"
 7221              		.file 15 "Drivers/STM32F7xx_HAL_Driver/Inc/stm32f7xx_hal_def.h"
 7222              		.file 16 "Drivers/STM32F7xx_HAL_Driver/Inc/stm32f7xx_hal_rcc_ex.h"
 7223              		.file 17 "Drivers/STM32F7xx_HAL_Driver/Inc/stm32f7xx_hal_rcc.h"
 7224              		.file 18 "Drivers/STM32F7xx_HAL_Driver/Inc/stm32f7xx_hal_gpio.h"
 7225              		.file 19 "Drivers/STM32F7xx_HAL_Driver/Inc/stm32f7xx_hal_dma.h"
 7226              		.file 20 "Drivers/STM32F7xx_HAL_Driver/Inc/stm32f7xx_hal_adc.h"
 7227              		.file 21 "Drivers/STM32F7xx_HAL_Driver/Inc/stm32f7xx_hal_crc.h"
 7228              		.file 22 "Drivers/STM32F7xx_HAL_Driver/Inc/stm32f7xx_hal_dma2d.h"
 7229              		.file 23 "Drivers/STM32F7xx_HAL_Driver/Inc/stm32f7xx_hal_dcmi.h"
 7230              		.file 24 "Drivers/STM32F7xx_HAL_Driver/Inc/stm32f7xx_hal_eth.h"
 7231              		.file 25 "Drivers/STM32F7xx_HAL_Driver/Inc/stm32f7xx_ll_fmc.h"
 7232              		.file 26 "Drivers/STM32F7xx_HAL_Driver/Inc/stm32f7xx_hal_sdram.h"
 7233              		.file 27 "Drivers/STM32F7xx_HAL_Driver/Inc/stm32f7xx_hal_i2c.h"
 7234              		.file 28 "Drivers/STM32F7xx_HAL_Driver/Inc/stm32f7xx_hal_ltdc.h"
 7235              		.file 29 "Drivers/STM32F7xx_HAL_Driver/Inc/stm32f7xx_hal_qspi.h"
 7236              		.file 30 "Drivers/STM32F7xx_HAL_Driver/Inc/stm32f7xx_hal_rtc.h"
 7237              		.file 31 "Drivers/STM32F7xx_HAL_Driver/Inc/stm32f7xx_hal_sai.h"
 7238              		.file 32 "Drivers/STM32F7xx_HAL_Driver/Inc/stm32f7xx_ll_sdmmc.h"
 7239              		.file 33 "Drivers/STM32F7xx_HAL_Driver/Inc/stm32f7xx_hal_sd.h"
 7240              		.file 34 "Drivers/STM32F7xx_HAL_Driver/Inc/stm32f7xx_hal_spdifrx.h"
 7241              		.file 35 "Drivers/STM32F7xx_HAL_Driver/Inc/stm32f7xx_hal_spi.h"
 7242              		.file 36 "Drivers/STM32F7xx_HAL_Driver/Inc/stm32f7xx_hal_tim.h"
 7243              		.file 37 "Drivers/STM32F7xx_HAL_Driver/Inc/stm32f7xx_hal_tim_ex.h"
 7244              		.file 38 "Drivers/STM32F7xx_HAL_Driver/Inc/stm32f7xx_hal_uart.h"
 7245              		.file 39 "Middlewares/Third_Party/FreeRTOS/Source/include/task.h"
 7246              		.file 40 "Middlewares/Third_Party/FreeRTOS/Source/include/queue.h"
 7247              		.file 41 "Middlewares/Third_Party/FreeRTOS/Source/include/semphr.h"
 7248              		.file 42 "Middlewares/Third_Party/FreeRTOS/Source/CMSIS_RTOS/cmsis_os.h"
ARM GAS  C:\Users\lenovo\AppData\Local\Temp\ccfgRfuq.s 			page 186


 7249              		.file 43 "Middlewares/Third_Party/FatFs/src/integer.h"
 7250              		.file 44 "c:\\gcc_toolchain\\6_2017-q1-update\\arm-none-eabi\\include\\stdlib.h"
 7251              		.file 45 "Middlewares/ST/STM32_USB_Host_Library/Core/Inc/usbh_def.h"
 7252              		.file 46 "Middlewares/ST/STM32_USB_Host_Library/Core/Inc/usbh_ctlreq.h"
 7253              		.file 47 "Middlewares/ST/STM32_USB_Host_Library/Class/MSC/Inc/usbh_msc.h"
 7254              		.file 48 "Middlewares/Third_Party/FatFs/src/ff.h"
 7255              		.file 49 "Middlewares/Third_Party/FatFs/src/diskio.h"
 7256              		.file 50 "Middlewares/Third_Party/FatFs/src/ff_gen_drv.h"
 7257              		.file 51 "Inc/sd_diskio.h"
 7258              		.file 52 "Inc/usbh_diskio.h"
 7259              		.file 53 "Inc/fatfs.h"
 7260              		.file 54 "c:\\gcc_toolchain\\6_2017-q1-update\\arm-none-eabi\\include\\time.h"
 7261              		.file 55 "Middlewares/Third_Party/LwIP/src/include/lwip/arch.h"
 7262              		.file 56 "Middlewares/Third_Party/LwIP/src/include/lwip/memp.h"
 7263              		.file 57 "Middlewares/Third_Party/LwIP/src/include/lwip/priv/memp_priv.h"
 7264              		.file 58 "Middlewares/Third_Party/LwIP/src/include/lwip/err.h"
 7265              		.file 59 "Middlewares/Third_Party/LwIP/src/include/lwip/pbuf.h"
 7266              		.file 60 "Middlewares/Third_Party/LwIP/src/include/lwip/ip4_addr.h"
 7267              		.file 61 "Middlewares/Third_Party/LwIP/src/include/lwip/ip_addr.h"
 7268              		.file 62 "Middlewares/Third_Party/LwIP/src/include/lwip/netif.h"
 7269              		.file 63 "Middlewares/Third_Party/LwIP/src/include/lwip/prot/ip4.h"
 7270              		.file 64 "Middlewares/Third_Party/LwIP/src/include/lwip/prot/ethernet.h"
 7271              		.file 65 "Middlewares/Third_Party/LwIP/src/include/netif/ethernet.h"
 7272              		.file 66 "Middlewares/Third_Party/LwIP/src/include/lwip/ip.h"
 7273              		.file 67 "Middlewares/Third_Party/LwIP/src/include/lwip/udp.h"
 7274              		.file 68 "Middlewares/Third_Party/LwIP/system/arch/sys_arch.h"
 7275              		.file 69 "Middlewares/Third_Party/LwIP/src/include/lwip/timeouts.h"
 7276              		.file 70 "Middlewares/Third_Party/LwIP/src/include/lwip/tcpip.h"
 7277              		.file 71 "Inc/lwip.h"
 7278              		.file 72 "Inc/usb_host.h"
 7279              		.file 73 "Middlewares/Third_Party/LwIP/src/include/lwip/errno.h"
 7280              		.file 74 "c:\\gcc_toolchain\\6_2017-q1-update\\arm-none-eabi\\include\\sys\\unistd.h"
 7281              		.file 75 "Drivers/BSP/STM32746G-Discovery/../../../Utilities/Fonts/fonts.h"
 7282              		.file 76 "Drivers/BSP/STM32746G-Discovery/stm32746g_discovery_lcd.h"
 7283              		.file 77 "Drivers/BSP/STM32746G-Discovery/../Components/ft5336/../Common/ts.h"
 7284              		.file 78 "Drivers/BSP/STM32746G-Discovery/../Components/ft5336/ft5336.h"
 7285              		.file 79 "Drivers/BSP/STM32746G-Discovery/stm32746g_discovery_ts.h"
 7286              		.file 80 "Drivers/BSP/STM32746G-Discovery/../Components/wm8994/../Common/audio.h"
 7287              		.file 81 "Drivers/BSP/STM32746G-Discovery/../Components/wm8994/wm8994.h"
 7288              		.file 82 "Drivers/BSP/STM32746G-Discovery/stm32746g_discovery_audio.h"
 7289              		.file 83 "Middlewares/Third_Party/LwIP/src/include/lwip/inet.h"
 7290              		.file 84 "Middlewares/Third_Party/LwIP/src/include/lwip/netdb.h"
 7291              		.file 85 "Drivers/STM32F7xx_HAL_Driver/Inc/stm32f7xx_hal.h"
 7292              		.file 86 "Inc/term_io.h"
 7293              		.file 87 "Drivers/STM32F7xx_HAL_Driver/Inc/stm32f7xx_hal_rtc_ex.h"
 7294              		.file 88 "Drivers/STM32F7xx_HAL_Driver/Inc/stm32f7xx_hal_i2c_ex.h"
 7295              		.file 89 "Drivers/STM32F7xx_HAL_Driver/Inc/stm32f7xx_hal_pwr_ex.h"
 7296              		.file 90 "Drivers/STM32F7xx_HAL_Driver/Inc/stm32f7xx_hal_cortex.h"
 7297              		.file 91 "Inc/dbgu.h"
 7298              		.file 92 "c:\\gcc_toolchain\\6_2017-q1-update\\arm-none-eabi\\include\\stdio.h"
 7299              		.file 93 "<built-in>"
ARM GAS  C:\Users\lenovo\AppData\Local\Temp\ccfgRfuq.s 			page 187


DEFINED SYMBOLS
                            *ABS*:00000000 main.c
C:\Users\lenovo\AppData\Local\Temp\ccfgRfuq.s:18     .text.MX_SDMMC1_SD_Init:00000000 $t
C:\Users\lenovo\AppData\Local\Temp\ccfgRfuq.s:24     .text.MX_SDMMC1_SD_Init:00000000 MX_SDMMC1_SD_Init
C:\Users\lenovo\AppData\Local\Temp\ccfgRfuq.s:53     .text.MX_SDMMC1_SD_Init:00000018 $d
                            *COM*:00000084 hsd1
C:\Users\lenovo\AppData\Local\Temp\ccfgRfuq.s:59     .text.MX_GPIO_Init:00000000 $t
C:\Users\lenovo\AppData\Local\Temp\ccfgRfuq.s:65     .text.MX_GPIO_Init:00000000 MX_GPIO_Init
C:\Users\lenovo\AppData\Local\Temp\ccfgRfuq.s:474    .text.MX_GPIO_Init:00000270 $d
C:\Users\lenovo\AppData\Local\Temp\ccfgRfuq.s:490    .text.lcd_start:00000000 $t
C:\Users\lenovo\AppData\Local\Temp\ccfgRfuq.s:496    .text.lcd_start:00000000 lcd_start
C:\Users\lenovo\AppData\Local\Temp\ccfgRfuq.s:566    .text.lcd_start:00000064 $d
C:\Users\lenovo\AppData\Local\Temp\ccfgRfuq.s:572    .text.xprintfTable:00000000 $t
C:\Users\lenovo\AppData\Local\Temp\ccfgRfuq.s:579    .text.xprintfTable:00000000 xprintfTable
C:\Users\lenovo\AppData\Local\Temp\ccfgRfuq.s:642    .text.xprintfTable:00000038 $d
C:\Users\lenovo\AppData\Local\Temp\ccfgRfuq.s:648    .text.clearTable:00000000 $t
C:\Users\lenovo\AppData\Local\Temp\ccfgRfuq.s:655    .text.clearTable:00000000 clearTable
C:\Users\lenovo\AppData\Local\Temp\ccfgRfuq.s:730    .text.clearTable:0000003c $d
C:\Users\lenovo\AppData\Local\Temp\ccfgRfuq.s:736    .text.setGameOfLife:00000000 $t
C:\Users\lenovo\AppData\Local\Temp\ccfgRfuq.s:743    .text.setGameOfLife:00000000 setGameOfLife
C:\Users\lenovo\AppData\Local\Temp\ccfgRfuq.s:971    .text.setGameOfLife:000001ac $d
C:\Users\lenovo\AppData\Local\Temp\ccfgRfuq.s:977    .text.setEvolution:00000000 $t
C:\Users\lenovo\AppData\Local\Temp\ccfgRfuq.s:984    .text.setEvolution:00000000 setEvolution
C:\Users\lenovo\AppData\Local\Temp\ccfgRfuq.s:1024   .text.setEvolution:00000034 $d
C:\Users\lenovo\AppData\Local\Temp\ccfgRfuq.s:1030   .text.setDiamond:00000000 $t
C:\Users\lenovo\AppData\Local\Temp\ccfgRfuq.s:1037   .text.setDiamond:00000000 setDiamond
C:\Users\lenovo\AppData\Local\Temp\ccfgRfuq.s:1089   .text.setDiamond:0000004c $d
C:\Users\lenovo\AppData\Local\Temp\ccfgRfuq.s:1094   .text.setQueenBee:00000000 $t
C:\Users\lenovo\AppData\Local\Temp\ccfgRfuq.s:1101   .text.setQueenBee:00000000 setQueenBee
C:\Users\lenovo\AppData\Local\Temp\ccfgRfuq.s:1165   .text.setQueenBee:00000064 $d
C:\Users\lenovo\AppData\Local\Temp\ccfgRfuq.s:1171   .text.setHertzOscillator:00000000 $t
C:\Users\lenovo\AppData\Local\Temp\ccfgRfuq.s:1178   .text.setHertzOscillator:00000000 setHertzOscillator
C:\Users\lenovo\AppData\Local\Temp\ccfgRfuq.s:1272   .text.setHertzOscillator:000000a0 $d
C:\Users\lenovo\AppData\Local\Temp\ccfgRfuq.s:1278   .text.setFigureEigth:00000000 $t
C:\Users\lenovo\AppData\Local\Temp\ccfgRfuq.s:1285   .text.setFigureEigth:00000000 setFigureEigth
C:\Users\lenovo\AppData\Local\Temp\ccfgRfuq.s:1345   .text.setFigureEigth:0000005c $d
C:\Users\lenovo\AppData\Local\Temp\ccfgRfuq.s:1351   .text.setCopperhead:00000000 $t
C:\Users\lenovo\AppData\Local\Temp\ccfgRfuq.s:1358   .text.setCopperhead:00000000 setCopperhead
C:\Users\lenovo\AppData\Local\Temp\ccfgRfuq.s:1438   .text.setCopperhead:00000084 $d
C:\Users\lenovo\AppData\Local\Temp\ccfgRfuq.s:1444   .text.setCloverleaf:00000000 $t
C:\Users\lenovo\AppData\Local\Temp\ccfgRfuq.s:1451   .text.setCloverleaf:00000000 setCloverleaf
C:\Users\lenovo\AppData\Local\Temp\ccfgRfuq.s:1555   .text.setCloverleaf:000000b4 $d
C:\Users\lenovo\AppData\Local\Temp\ccfgRfuq.s:1561   .text.setLWSS:00000000 $t
C:\Users\lenovo\AppData\Local\Temp\ccfgRfuq.s:1568   .text.setLWSS:00000000 setLWSS
C:\Users\lenovo\AppData\Local\Temp\ccfgRfuq.s:1616   .text.setLWSS:00000044 $d
C:\Users\lenovo\AppData\Local\Temp\ccfgRfuq.s:1622   .text.setBeacon:00000000 $t
C:\Users\lenovo\AppData\Local\Temp\ccfgRfuq.s:1629   .text.setBeacon:00000000 setBeacon
C:\Users\lenovo\AppData\Local\Temp\ccfgRfuq.s:1665   .text.setBeacon:0000002c $d
C:\Users\lenovo\AppData\Local\Temp\ccfgRfuq.s:1671   .text.setPulsar:00000000 $t
C:\Users\lenovo\AppData\Local\Temp\ccfgRfuq.s:1678   .text.setPulsar:00000000 setPulsar
C:\Users\lenovo\AppData\Local\Temp\ccfgRfuq.s:1798   .text.setPulsar:000000d4 $d
C:\Users\lenovo\AppData\Local\Temp\ccfgRfuq.s:1804   .text.setCrocodile:00000000 $t
C:\Users\lenovo\AppData\Local\Temp\ccfgRfuq.s:1811   .text.setCrocodile:00000000 setCrocodile
C:\Users\lenovo\AppData\Local\Temp\ccfgRfuq.s:1871   .text.setCrocodile:0000005c $d
C:\Users\lenovo\AppData\Local\Temp\ccfgRfuq.s:1877   .text.setFountain:00000000 $t
C:\Users\lenovo\AppData\Local\Temp\ccfgRfuq.s:1884   .text.setFountain:00000000 setFountain
C:\Users\lenovo\AppData\Local\Temp\ccfgRfuq.s:1944   .text.setFountain:0000005c $d
ARM GAS  C:\Users\lenovo\AppData\Local\Temp\ccfgRfuq.s 			page 188


C:\Users\lenovo\AppData\Local\Temp\ccfgRfuq.s:1950   .text.StartDefaultTask:00000000 $t
C:\Users\lenovo\AppData\Local\Temp\ccfgRfuq.s:1957   .text.StartDefaultTask:00000000 StartDefaultTask
C:\Users\lenovo\AppData\Local\Temp\ccfgRfuq.s:2452   .text.StartDefaultTask:00000300 $d
                            *COM*:00000004 tableTaskHandle
C:\Users\lenovo\AppData\Local\Temp\ccfgRfuq.s:2470   .text.setGun:00000000 $t
C:\Users\lenovo\AppData\Local\Temp\ccfgRfuq.s:2477   .text.setGun:00000000 setGun
C:\Users\lenovo\AppData\Local\Temp\ccfgRfuq.s:2569   .text.setGun:0000009c $d
C:\Users\lenovo\AppData\Local\Temp\ccfgRfuq.s:2574   .text.count_neighbours:00000000 $t
C:\Users\lenovo\AppData\Local\Temp\ccfgRfuq.s:2581   .text.count_neighbours:00000000 count_neighbours
C:\Users\lenovo\AppData\Local\Temp\ccfgRfuq.s:2671   .text.count_neighbours:00000074 $d
C:\Users\lenovo\AppData\Local\Temp\ccfgRfuq.s:2677   .text.update_table:00000000 $t
C:\Users\lenovo\AppData\Local\Temp\ccfgRfuq.s:2684   .text.update_table:00000000 update_table
C:\Users\lenovo\AppData\Local\Temp\ccfgRfuq.s:2836   .text.update_table:000000e4 $d
C:\Users\lenovo\AppData\Local\Temp\ccfgRfuq.s:2841   .text.ABS:00000000 $t
C:\Users\lenovo\AppData\Local\Temp\ccfgRfuq.s:2848   .text.ABS:00000000 ABS
C:\Users\lenovo\AppData\Local\Temp\ccfgRfuq.s:2863   .text.FillTriangle:00000000 $t
C:\Users\lenovo\AppData\Local\Temp\ccfgRfuq.s:2869   .text.FillTriangle:00000000 FillTriangle
C:\Users\lenovo\AppData\Local\Temp\ccfgRfuq.s:3081   .text.initialize_touchscreen:00000000 $t
C:\Users\lenovo\AppData\Local\Temp\ccfgRfuq.s:3088   .text.initialize_touchscreen:00000000 initialize_touchscreen
C:\Users\lenovo\AppData\Local\Temp\ccfgRfuq.s:3127   .text.init_background:00000000 $t
C:\Users\lenovo\AppData\Local\Temp\ccfgRfuq.s:3134   .text.init_background:00000000 init_background
C:\Users\lenovo\AppData\Local\Temp\ccfgRfuq.s:3472   .text.init_background:00000220 $d
C:\Users\lenovo\AppData\Local\Temp\ccfgRfuq.s:3495   .text.draw_background:00000000 $t
C:\Users\lenovo\AppData\Local\Temp\ccfgRfuq.s:3502   .text.draw_background:00000000 draw_background
C:\Users\lenovo\AppData\Local\Temp\ccfgRfuq.s:3655   .text.draw_background:000000ec $d
C:\Users\lenovo\AppData\Local\Temp\ccfgRfuq.s:3662   .text.init_drawingbackground:00000000 $t
C:\Users\lenovo\AppData\Local\Temp\ccfgRfuq.s:3669   .text.init_drawingbackground:00000000 init_drawingbackground
C:\Users\lenovo\AppData\Local\Temp\ccfgRfuq.s:3981   .text.init_drawingbackground:000001c8 $d
C:\Users\lenovo\AppData\Local\Temp\ccfgRfuq.s:3990   .text.draw_drawingbackground:00000000 $t
C:\Users\lenovo\AppData\Local\Temp\ccfgRfuq.s:3997   .text.draw_drawingbackground:00000000 draw_drawingbackground
C:\Users\lenovo\AppData\Local\Temp\ccfgRfuq.s:4159   .text.draw_drawingbackground:000000ec $d
C:\Users\lenovo\AppData\Local\Temp\ccfgRfuq.s:4168   .text.StartTableTask:00000000 $t
C:\Users\lenovo\AppData\Local\Temp\ccfgRfuq.s:4175   .text.StartTableTask:00000000 StartTableTask
C:\Users\lenovo\AppData\Local\Temp\ccfgRfuq.s:4249   .text.StartTableTask:00000054 $d
C:\Users\lenovo\AppData\Local\Temp\ccfgRfuq.s:4256   .text.__io_putchar:00000000 $t
C:\Users\lenovo\AppData\Local\Temp\ccfgRfuq.s:4263   .text.__io_putchar:00000000 __io_putchar
C:\Users\lenovo\AppData\Local\Temp\ccfgRfuq.s:4288   .text.__io_putchar:00000014 $d
                            *COM*:00000070 huart1
C:\Users\lenovo\AppData\Local\Temp\ccfgRfuq.s:4293   .text.inkey:00000000 $t
C:\Users\lenovo\AppData\Local\Temp\ccfgRfuq.s:4300   .text.inkey:00000000 inkey
C:\Users\lenovo\AppData\Local\Temp\ccfgRfuq.s:4332   .text.inkey:0000001c $d
C:\Users\lenovo\AppData\Local\Temp\ccfgRfuq.s:4337   .text.BSP_AUDIO_OUT_TransferComplete_CallBack:00000000 $t
C:\Users\lenovo\AppData\Local\Temp\ccfgRfuq.s:4344   .text.BSP_AUDIO_OUT_TransferComplete_CallBack:00000000 BSP_AUDIO_OUT_TransferComplete_CallBack
C:\Users\lenovo\AppData\Local\Temp\ccfgRfuq.s:4356   .text.BSP_AUDIO_OUT_HalfTransfer_CallBack:00000000 $t
C:\Users\lenovo\AppData\Local\Temp\ccfgRfuq.s:4363   .text.BSP_AUDIO_OUT_HalfTransfer_CallBack:00000000 BSP_AUDIO_OUT_HalfTransfer_CallBack
C:\Users\lenovo\AppData\Local\Temp\ccfgRfuq.s:4375   .text.HAL_TIM_PeriodElapsedCallback:00000000 $t
C:\Users\lenovo\AppData\Local\Temp\ccfgRfuq.s:4382   .text.HAL_TIM_PeriodElapsedCallback:00000000 HAL_TIM_PeriodElapsedCallback
C:\Users\lenovo\AppData\Local\Temp\ccfgRfuq.s:4413   .text.HAL_TIM_PeriodElapsedCallback:00000014 $d
C:\Users\lenovo\AppData\Local\Temp\ccfgRfuq.s:4418   .text._Error_Handler:00000000 $t
C:\Users\lenovo\AppData\Local\Temp\ccfgRfuq.s:4425   .text._Error_Handler:00000000 _Error_Handler
C:\Users\lenovo\AppData\Local\Temp\ccfgRfuq.s:4440   .text.MX_ADC3_Init:00000000 $t
C:\Users\lenovo\AppData\Local\Temp\ccfgRfuq.s:4446   .text.MX_ADC3_Init:00000000 MX_ADC3_Init
C:\Users\lenovo\AppData\Local\Temp\ccfgRfuq.s:4533   .text.MX_ADC3_Init:00000060 $d
                            *COM*:00000048 hadc3
C:\Users\lenovo\AppData\Local\Temp\ccfgRfuq.s:4541   .text.MX_CRC_Init:00000000 $t
C:\Users\lenovo\AppData\Local\Temp\ccfgRfuq.s:4547   .text.MX_CRC_Init:00000000 MX_CRC_Init
C:\Users\lenovo\AppData\Local\Temp\ccfgRfuq.s:4588   .text.MX_CRC_Init:00000028 $d
ARM GAS  C:\Users\lenovo\AppData\Local\Temp\ccfgRfuq.s 			page 189


                            *COM*:00000024 hcrc
C:\Users\lenovo\AppData\Local\Temp\ccfgRfuq.s:4595   .text.MX_DCMI_Init:00000000 $t
C:\Users\lenovo\AppData\Local\Temp\ccfgRfuq.s:4601   .text.MX_DCMI_Init:00000000 MX_DCMI_Init
C:\Users\lenovo\AppData\Local\Temp\ccfgRfuq.s:4653   .text.MX_DCMI_Init:00000034 $d
                            *COM*:00000050 hdcmi
C:\Users\lenovo\AppData\Local\Temp\ccfgRfuq.s:4660   .text.MX_DMA2D_Init:00000000 $t
C:\Users\lenovo\AppData\Local\Temp\ccfgRfuq.s:4666   .text.MX_DMA2D_Init:00000000 MX_DMA2D_Init
C:\Users\lenovo\AppData\Local\Temp\ccfgRfuq.s:4722   .text.MX_DMA2D_Init:00000040 $d
                            *COM*:00000040 hdma2d
C:\Users\lenovo\AppData\Local\Temp\ccfgRfuq.s:4729   .text.MX_FMC_Init:00000000 $t
C:\Users\lenovo\AppData\Local\Temp\ccfgRfuq.s:4735   .text.MX_FMC_Init:00000000 MX_FMC_Init
C:\Users\lenovo\AppData\Local\Temp\ccfgRfuq.s:4819   .text.MX_FMC_Init:00000060 $d
                            *COM*:00000034 hsdram1
C:\Users\lenovo\AppData\Local\Temp\ccfgRfuq.s:4826   .text.MX_I2C1_Init:00000000 $t
C:\Users\lenovo\AppData\Local\Temp\ccfgRfuq.s:4832   .text.MX_I2C1_Init:00000000 MX_I2C1_Init
C:\Users\lenovo\AppData\Local\Temp\ccfgRfuq.s:4904   .text.MX_I2C1_Init:00000058 $d
                            *COM*:0000004c hi2c1
C:\Users\lenovo\AppData\Local\Temp\ccfgRfuq.s:4912   .text.MX_I2C3_Init:00000000 $t
C:\Users\lenovo\AppData\Local\Temp\ccfgRfuq.s:4918   .text.MX_I2C3_Init:00000000 MX_I2C3_Init
C:\Users\lenovo\AppData\Local\Temp\ccfgRfuq.s:4990   .text.MX_I2C3_Init:00000058 $d
                            *COM*:0000004c hi2c3
C:\Users\lenovo\AppData\Local\Temp\ccfgRfuq.s:4998   .text.MX_LTDC_Init:00000000 $t
C:\Users\lenovo\AppData\Local\Temp\ccfgRfuq.s:5004   .text.MX_LTDC_Init:00000000 MX_LTDC_Init
C:\Users\lenovo\AppData\Local\Temp\ccfgRfuq.s:5131   .text.MX_LTDC_Init:000000ac $d
                            *COM*:000000a8 hltdc
C:\Users\lenovo\AppData\Local\Temp\ccfgRfuq.s:5138   .text.MX_QUADSPI_Init:00000000 $t
C:\Users\lenovo\AppData\Local\Temp\ccfgRfuq.s:5144   .text.MX_QUADSPI_Init:00000000 MX_QUADSPI_Init
C:\Users\lenovo\AppData\Local\Temp\ccfgRfuq.s:5192   .text.MX_QUADSPI_Init:00000030 $d
                            *COM*:0000004c hqspi
C:\Users\lenovo\AppData\Local\Temp\ccfgRfuq.s:5199   .text.MX_RTC_Init:00000000 $t
C:\Users\lenovo\AppData\Local\Temp\ccfgRfuq.s:5205   .text.MX_RTC_Init:00000000 MX_RTC_Init
C:\Users\lenovo\AppData\Local\Temp\ccfgRfuq.s:5376   .text.MX_RTC_Init:000000f8 $d
                            *COM*:00000020 hrtc
C:\Users\lenovo\AppData\Local\Temp\ccfgRfuq.s:5383   .text.MX_SAI2_Init:00000000 $t
C:\Users\lenovo\AppData\Local\Temp\ccfgRfuq.s:5389   .text.MX_SAI2_Init:00000000 MX_SAI2_Init
C:\Users\lenovo\AppData\Local\Temp\ccfgRfuq.s:5530   .text.MX_SAI2_Init:0000009c $d
                            *COM*:00000084 hsai_BlockA2
                            *COM*:00000084 hsai_BlockB2
C:\Users\lenovo\AppData\Local\Temp\ccfgRfuq.s:5540   .text.MX_SPDIFRX_Init:00000000 $t
C:\Users\lenovo\AppData\Local\Temp\ccfgRfuq.s:5546   .text.MX_SPDIFRX_Init:00000000 MX_SPDIFRX_Init
C:\Users\lenovo\AppData\Local\Temp\ccfgRfuq.s:5596   .text.MX_SPDIFRX_Init:00000034 $d
                            *COM*:0000004c hspdif
C:\Users\lenovo\AppData\Local\Temp\ccfgRfuq.s:5602   .text.MX_SPI2_Init:00000000 $t
C:\Users\lenovo\AppData\Local\Temp\ccfgRfuq.s:5608   .text.MX_SPI2_Init:00000000 MX_SPI2_Init
C:\Users\lenovo\AppData\Local\Temp\ccfgRfuq.s:5669   .text.MX_SPI2_Init:00000048 $d
                            *COM*:00000064 hspi2
C:\Users\lenovo\AppData\Local\Temp\ccfgRfuq.s:5676   .text.MX_TIM1_Init:00000000 $t
C:\Users\lenovo\AppData\Local\Temp\ccfgRfuq.s:5682   .text.MX_TIM1_Init:00000000 MX_TIM1_Init
C:\Users\lenovo\AppData\Local\Temp\ccfgRfuq.s:5853   .text.MX_TIM1_Init:000000e4 $d
                            *COM*:00000040 htim1
C:\Users\lenovo\AppData\Local\Temp\ccfgRfuq.s:5860   .text.MX_TIM2_Init:00000000 $t
C:\Users\lenovo\AppData\Local\Temp\ccfgRfuq.s:5866   .text.MX_TIM2_Init:00000000 MX_TIM2_Init
C:\Users\lenovo\AppData\Local\Temp\ccfgRfuq.s:5985   .text.MX_TIM2_Init:0000009c $d
                            *COM*:00000040 htim2
C:\Users\lenovo\AppData\Local\Temp\ccfgRfuq.s:5991   .text.MX_TIM3_Init:00000000 $t
C:\Users\lenovo\AppData\Local\Temp\ccfgRfuq.s:5997   .text.MX_TIM3_Init:00000000 MX_TIM3_Init
C:\Users\lenovo\AppData\Local\Temp\ccfgRfuq.s:6116   .text.MX_TIM3_Init:0000009c $d
ARM GAS  C:\Users\lenovo\AppData\Local\Temp\ccfgRfuq.s 			page 190


                            *COM*:00000040 htim3
C:\Users\lenovo\AppData\Local\Temp\ccfgRfuq.s:6123   .text.MX_TIM5_Init:00000000 $t
C:\Users\lenovo\AppData\Local\Temp\ccfgRfuq.s:6129   .text.MX_TIM5_Init:00000000 MX_TIM5_Init
C:\Users\lenovo\AppData\Local\Temp\ccfgRfuq.s:6249   .text.MX_TIM5_Init:0000009c $d
                            *COM*:00000040 htim5
C:\Users\lenovo\AppData\Local\Temp\ccfgRfuq.s:6256   .text.MX_TIM8_Init:00000000 $t
C:\Users\lenovo\AppData\Local\Temp\ccfgRfuq.s:6262   .text.MX_TIM8_Init:00000000 MX_TIM8_Init
C:\Users\lenovo\AppData\Local\Temp\ccfgRfuq.s:6348   .text.MX_TIM8_Init:00000068 $d
                            *COM*:00000040 htim8
C:\Users\lenovo\AppData\Local\Temp\ccfgRfuq.s:6355   .text.MX_TIM12_Init:00000000 $t
C:\Users\lenovo\AppData\Local\Temp\ccfgRfuq.s:6361   .text.MX_TIM12_Init:00000000 MX_TIM12_Init
C:\Users\lenovo\AppData\Local\Temp\ccfgRfuq.s:6437   .text.MX_TIM12_Init:00000054 $d
                            *COM*:00000040 htim12
C:\Users\lenovo\AppData\Local\Temp\ccfgRfuq.s:6444   .text.MX_USART1_UART_Init:00000000 $t
C:\Users\lenovo\AppData\Local\Temp\ccfgRfuq.s:6450   .text.MX_USART1_UART_Init:00000000 MX_USART1_UART_Init
C:\Users\lenovo\AppData\Local\Temp\ccfgRfuq.s:6500   .text.MX_USART1_UART_Init:00000034 $d
C:\Users\lenovo\AppData\Local\Temp\ccfgRfuq.s:6507   .text.MX_USART6_UART_Init:00000000 $t
C:\Users\lenovo\AppData\Local\Temp\ccfgRfuq.s:6513   .text.MX_USART6_UART_Init:00000000 MX_USART6_UART_Init
C:\Users\lenovo\AppData\Local\Temp\ccfgRfuq.s:6563   .text.MX_USART6_UART_Init:00000034 $d
                            *COM*:00000070 huart6
C:\Users\lenovo\AppData\Local\Temp\ccfgRfuq.s:6570   .text.MX_TIM7_Init:00000000 $t
C:\Users\lenovo\AppData\Local\Temp\ccfgRfuq.s:6576   .text.MX_TIM7_Init:00000000 MX_TIM7_Init
C:\Users\lenovo\AppData\Local\Temp\ccfgRfuq.s:6641   .text.MX_TIM7_Init:00000044 $d
                            *COM*:00000040 htim7
C:\Users\lenovo\AppData\Local\Temp\ccfgRfuq.s:6648   .text.SystemClock_Config:00000000 $t
C:\Users\lenovo\AppData\Local\Temp\ccfgRfuq.s:6655   .text.SystemClock_Config:00000000 SystemClock_Config
C:\Users\lenovo\AppData\Local\Temp\ccfgRfuq.s:6858   .text.SystemClock_Config:00000124 $d
C:\Users\lenovo\AppData\Local\Temp\ccfgRfuq.s:6867   .text.main:00000000 $t
C:\Users\lenovo\AppData\Local\Temp\ccfgRfuq.s:6874   .text.main:00000000 main
C:\Users\lenovo\AppData\Local\Temp\ccfgRfuq.s:7006   .text.main:000000a4 $d
                            *COM*:00000004 defaultTaskHandle
                            *COM*:00002000 buff
                            *COM*:00000004 netconn_thread_handle
C:\Users\lenovo\AppData\Local\Temp\ccfgRfuq.s:7112   .data.stopped:00000000 stopped
C:\Users\lenovo\AppData\Local\Temp\ccfgRfuq.s:7077   .bss.drawing_state:00000000 drawing_state
C:\Users\lenovo\AppData\Local\Temp\ccfgRfuq.s:7091   .bss.state_changed:00000000 state_changed
C:\Users\lenovo\AppData\Local\Temp\ccfgRfuq.s:7084   .bss.state:00000000 state
C:\Users\lenovo\AppData\Local\Temp\ccfgRfuq.s:7105   .data.delay:00000000 delay
C:\Users\lenovo\AppData\Local\Temp\ccfgRfuq.s:7098   .bss.table:00000000 table
C:\Users\lenovo\AppData\Local\Temp\ccfgRfuq.s:7049   .rodata:00000000 $d
C:\Users\lenovo\AppData\Local\Temp\ccfgRfuq.s:7066   .bss.TS_State:00000000 $d
C:\Users\lenovo\AppData\Local\Temp\ccfgRfuq.s:7070   .bss.TS_State:00000000 TS_State
C:\Users\lenovo\AppData\Local\Temp\ccfgRfuq.s:7073   .bss.drawing_state:00000000 $d
C:\Users\lenovo\AppData\Local\Temp\ccfgRfuq.s:7080   .bss.state:00000000 $d
C:\Users\lenovo\AppData\Local\Temp\ccfgRfuq.s:7087   .bss.state_changed:00000000 $d
C:\Users\lenovo\AppData\Local\Temp\ccfgRfuq.s:7094   .bss.table:00000000 $d
C:\Users\lenovo\AppData\Local\Temp\ccfgRfuq.s:7101   .data.delay:00000000 $d
C:\Users\lenovo\AppData\Local\Temp\ccfgRfuq.s:7108   .data.stopped:00000000 $d
C:\Users\lenovo\AppData\Local\Temp\ccfgRfuq.s:7115   .rodata.MX_ADC3_Init.str1.4:00000000 $d
C:\Users\lenovo\AppData\Local\Temp\ccfgRfuq.s:7119   .rodata.StartDefaultTask.str1.4:00000000 $d
C:\Users\lenovo\AppData\Local\Temp\ccfgRfuq.s:7125   .rodata.draw_drawingbackground.str1.4:00000000 $d
C:\Users\lenovo\AppData\Local\Temp\ccfgRfuq.s:7129   .rodata.init_background.str1.4:00000000 $d
C:\Users\lenovo\AppData\Local\Temp\ccfgRfuq.s:7175   .rodata.init_drawingbackground.str1.4:00000000 $d
C:\Users\lenovo\AppData\Local\Temp\ccfgRfuq.s:7179   .rodata.main.str1.4:00000000 $d
C:\Users\lenovo\AppData\Local\Temp\ccfgRfuq.s:7187   .rodata.str1.4:00000000 $d
C:\Users\lenovo\AppData\Local\Temp\ccfgRfuq.s:7194   .rodata.xprintfTable.str1.4:00000000 $d
C:\Users\lenovo\AppData\Local\Temp\ccfgRfuq.s:7198   .sdram:00000000 $d
ARM GAS  C:\Users\lenovo\AppData\Local\Temp\ccfgRfuq.s 			page 191


C:\Users\lenovo\AppData\Local\Temp\ccfgRfuq.s:7203   .sdram:00000000 lcd_image_bg
C:\Users\lenovo\AppData\Local\Temp\ccfgRfuq.s:7207   .sdram:0007f800 lcd_image_fg
                     .debug_frame:00000010 $d

UNDEFINED SYMBOLS
HAL_GPIO_WritePin
HAL_GPIO_Init
BSP_LCD_Init
BSP_LCD_LayerDefaultInit
BSP_LCD_DisplayOn
BSP_LCD_SelectLayer
BSP_LCD_Clear
BSP_LCD_SetBackColor
BSP_LCD_SetColorKeying
BSP_LCD_SetTransparency
xprintf
MX_FATFS_Init
MX_USB_HOST_Init
vTaskDelay
osThreadCreate
BSP_TS_GetState
memset
BSP_LCD_DrawLine
BSP_LCD_GetXSize
BSP_LCD_GetYSize
BSP_TS_Init
BSP_LCD_DrawRect
BSP_LCD_SetTextColor
BSP_LCD_FillRect
BSP_LCD_DisplayStringAt
sprintf
HAL_IncTick
HAL_ADC_Init
HAL_ADC_ConfigChannel
HAL_CRC_Init
HAL_DCMI_Init
HAL_DMA2D_Init
HAL_DMA2D_ConfigLayer
HAL_SDRAM_Init
HAL_I2C_Init
HAL_I2CEx_ConfigAnalogFilter
HAL_I2CEx_ConfigDigitalFilter
HAL_LTDC_Init
HAL_LTDC_ConfigLayer
HAL_QSPI_Init
HAL_RTC_Init
HAL_RTC_SetTime
HAL_RTC_SetDate
HAL_RTC_SetAlarm
HAL_RTCEx_SetTimeStamp
HAL_SAI_Init
HAL_SPDIFRX_Init
HAL_SPI_Init
HAL_TIM_Base_Init
HAL_TIM_ConfigClockSource
HAL_TIM_PWM_Init
HAL_TIMEx_MasterConfigSynchronization
ARM GAS  C:\Users\lenovo\AppData\Local\Temp\ccfgRfuq.s 			page 192


HAL_TIM_PWM_ConfigChannel
HAL_TIMEx_ConfigBreakDeadTime
HAL_TIM_MspPostInit
HAL_UART_Init
HAL_RCC_OscConfig
HAL_PWREx_EnableOverDrive
HAL_RCC_ClockConfig
HAL_RCCEx_PeriphCLKConfig
HAL_RCC_GetHCLKFreq
HAL_SYSTICK_Config
HAL_SYSTICK_CLKSourceConfig
HAL_NVIC_SetPriority
HAL_Init
debug_init
puts
osKernelStart
